(dp0
(S'/home/clayton/grive/pics/3wC8A7AD15-B749-2EF7-395E-3567AFF409A3.jpg'
p1
I45
tp2
S'n'
p3
s(S'/home/clayton/grive/pics/3w6583AC61-429D-C61E-715E-EFF713238241.jpg'
p4
I37
tp5
g3
s(S'/home/clayton/grive/pics/4w4123FC40-659C-BBF1-A29E-29652EC92828.jpg'
p6
I76
tp7
g3
s(S'/home/clayton/grive/pics/6m139a1aec-0c0b-440d-8a6c-7d5c8598259c.jpg'
p8
I34
tp9
S'y'
p10
s(S'/home/clayton/grive/pics/1mdb7d65e0-544b-4fd9-afc4-62fe2f96b2e1.jpg'
p11
I22
tp12
g3
s(S'/home/clayton/grive/pics/0DSCN0309.JPG'
p13
I6
tp14
S's'
p15
s(S'/home/clayton/grive/pics/3w2C9F8C42-E900-B747-C962-465A32A9CCE7.jpg'
p16
I5
tp17
g3
s(S'/home/clayton/grive/pics/4wC8A7AD15-B749-2EF7-395E-3567AFF409A3.jpg'
p18
I44
tp19
S'y'
p20
s(S'/home/clayton/grive/pics/3w2CDDD638-E92B-8EBA-60E3-F00A5BD784E3.jpg'
p21
I26
tp22
g20
s(S'/home/clayton/grive/pics/6w455E62E6-5EAF-9986-F10E-383E9405062F.jpg'
p23
I59
tp24
g10
s(S'/home/clayton/grive/pics/2w7EA25B92-1336-94C0-FB2D-EFDA52371B47.jpg'
p25
I16
tp26
g20
s(S'/home/clayton/grive/pics/6w422A3E39-00CD-54DC-F42A-332478449BD6.jpg'
p27
I81
tp28
g10
s(S'/home/clayton/grive/pics/3wA9A6A8C9-21F5-F703-10C9-EFE8A9410583.jpg'
p29
I4
tp30
g3
s(S'/home/clayton/grive/pics/1wA8290F86-C077-9F89-F9F7-464D6C6DEA5F.jpg'
p31
I35
tp32
g20
s(S'/home/clayton/grive/pics/4w5D981B62-3BF3-3379-219B-EFF97EC7E5A0.jpg'
p33
I54
tp34
g3
s(S'/home/clayton/grive/pics/0wDF2DC2D6-F1E3-1B71-20E2-467A671A3D60.jpg'
p35
I4
tp36
S'n'
p37
s(S'/home/clayton/grive/pics/0wA78D46C1-F503-3E91-F99D-6B2FA22B3D14.jpg'
p38
I71
tp39
S'y'
p40
s(S'/home/clayton/grive/pics/5wD6ABCA51-AA30-AB83-36E3-3D933B925793.jpg'
p41
I4
tp42
S'n'
p43
s(S'/home/clayton/grive/pics/1wD4EB92C9-4F2D-BEA4-25DD-EFD882F1442E.jpg'
p44
I21
tp45
g20
s(S'/home/clayton/grive/pics/4w12EC627A-1192-EC96-EEC9-489DEAE24E0B.jpg'
p46
I49
tp47
g20
s(S'/home/clayton/grive/pics/6w6A3CAB4F-95AC-25CB-4CD4-2D0EA445F376.jpg'
p48
I64
tp49
g10
s(S'/home/clayton/grive/pics/0w90056D7B-4D04-567E-6142-F00A0A0CACCC.jpg'
p50
I51
tp51
g40
s(S'/home/clayton/grive/pics/1w79D4D2F8-3794-9B73-B7D1-EFEF32720063.jpg'
p52
I12
tp53
g3
s(S'/home/clayton/grive/pics/3wDF2DC2D6-F1E3-1B71-20E2-467A671A3D60.jpg'
p54
I28
tp55
g3
s(S'/home/clayton/grive/pics/4w90056D7B-4D04-567E-6142-F00A0A0CACCC.jpg'
p56
I28
tp57
g3
s(S'/home/clayton/grive/pics/6m4ed4b5c3-8594-4921-981d-970fc18d5fea.jpg'
p58
I4
tp59
g43
s(S'/home/clayton/grive/pics/5m040789e6-8b61-484e-b935-203eeeaf5a7f.jpg'
p60
I72
tp61
g20
s(S'/home/clayton/grive/pics/4wEE5FC257-9937-1847-8A4C-31E98B5E3AC3.jpg'
p62
I47
tp63
g3
s(S'/home/clayton/grive/pics/6wF9371CDA-417F-992A-A6BC-DD6373EF9014.jpg'
p64
I57
tp65
g10
s(S'/home/clayton/grive/pics/6w77EDF533-C254-FD89-6404-4660A2F03302.jpg'
p66
I42
tp67
g10
s(S'/home/clayton/grive/pics/0wB75D3F87-A36C-1CFC-5730-28E28C577A75.jpg'
p68
I74
tp69
g40
s(S'/home/clayton/grive/pics/4w9CF2D657-F38A-A867-1844-64AF3A43DEAA.jpg'
p70
I54
tp71
g20
s(S'/home/clayton/grive/pics/3wE7D19A4A-E34F-1A45-F7A2-EFF5B26C785E.jpg'
p72
I4
tp73
g3
s(S'/home/clayton/grive/pics/1m3a33b8ba-bfdc-4061-a7b3-4c7fcc6839b7.jpg'
p74
I84
tp75
g20
s(S'/home/clayton/grive/pics/3wB3B65A5B-6FD6-FB6B-DC2C-3797ABC3D83E.jpg'
p76
I43
tp77
g3
s(S'/home/clayton/grive/pics/6mdb7d65e0-544b-4fd9-afc4-62fe2f96b2e1.jpg'
p78
I17
tp79
g10
s(S'/home/clayton/grive/pics/6w3439D79B-2F14-0A7C-A485-3D9751A5715E.jpg'
p80
I27
tp81
g10
s(S'/home/clayton/grive/pics/3mee953784-3873-4738-a45f-15bf2d546bdf.jpg'
p82
I11
tp83
g3
s(S'/home/clayton/grive/pics/2w809F0A15-03D4-873B-62D0-6B3146FEE7CF.jpg'
p84
I74
tp85
g20
s(S'/home/clayton/grive/pics/4m0792947c-37db-4047-bef9-7a582d6f6fca.jpg'
p86
I19
tp87
g20
s(S'/home/clayton/grive/pics/3w62D19778-1AA6-13C2-004F-389AF747333D.jpg'
p88
I17
tp89
g20
s(S'/home/clayton/grive/pics/3w7B52AA0B-3547-4AAC-D109-389D5596BF39.jpg'
p90
I31
tp91
g20
s(S'/home/clayton/grive/pics/4w6C9F7832-CE9D-15A0-5DA4-6B8CFF5E8490.jpg'
p92
I67
tp93
g20
s(S'/home/clayton/grive/pics/4w8EC27280-1A0E-1E4D-29EA-EFF6FEF7C705.jpg'
p94
I23
tp95
g3
s(S'/home/clayton/grive/pics/3Surprised.jpg (Case Conflict 2)'
p96
I37
tp97
g20
s(S'/home/clayton/grive/pics/1w86213EB0-EFE5-91A5-6308-4CE43B9C4ABB.jpg'
p98
I47
tp99
g20
s(S'/home/clayton/grive/pics/1m354dbab3-cc44-4fa5-a76b-1832158454cd.jpg'
p100
I14
tp101
g20
s(S'/home/clayton/grive/pics/5m3a33b8ba-bfdc-4061-a7b3-4c7fcc6839b7.jpg'
p102
I64
tp103
g10
s(S'/home/clayton/grive/pics/5wE6FF3C82-8BAF-EFF6-6F4B-F007379019E6.jpg'
p104
I8
tp105
g10
s(S'/home/clayton/grive/pics/0w2CDDD638-E92B-8EBA-60E3-F00A5BD784E3.jpg'
p106
I36
tp107
g40
s(S'/home/clayton/grive/pics/5w869F00B2-7F5B-6906-0CB1-EFF2FF299FD4.jpg'
p108
I5
tp109
g10
s(S'/home/clayton/grive/pics/1w2C6C7917-E34A-87BF-D366-2849EADFBD8B.jpg'
p110
I35
tp111
g3
s(S'/home/clayton/grive/pics/4md99d5900-5461-41eb-adb1-8681a6885dc6.jpg'
p112
I38
tp113
g20
s(S'/home/clayton/grive/pics/4mfdc9ff7d-8480-4e52-940b-33d65b5f09d9.jpg'
p114
I58
tp115
g3
s(S'/home/clayton/grive/pics/1wD5BE1562-F05B-1AA8-6290-37EE9C424B0E.jpg'
p116
I24
tp117
g3
s(S'/home/clayton/grive/pics/5wE953282F-1713-2679-406D-285C8932B012.jpg'
p118
I18
tp119
g43
s(S'/home/clayton/grive/pics/1wC6AB8E45-0D08-5231-7C41-EFF50AB9F865.jpg'
p120
I40
tp121
g20
s(S'/home/clayton/grive/pics/4w157643A0-E4FE-5F90-C9B1-465764731874.jpg'
p122
I29
tp123
g20
s(S'/home/clayton/grive/pics/6m38b89e01-3e85-484d-b908-782035034769.jpg'
p124
I39
tp125
g10
s(S'/home/clayton/grive/pics/6wD7662DB4-ED2D-0E94-3A81-F002716EC18A.jpg'
p126
I45
tp127
g10
s(S'/home/clayton/grive/pics/2wCFBE9FE8-526E-B206-585D-7A9FA92FD844.jpg'
p128
I74
tp129
g20
s(S'/home/clayton/grive/pics/3w547FEF42-FCBE-B966-D617-2888E39F4498.jpg'
p130
I34
tp131
g3
s(S'/home/clayton/grive/pics/2wD18772FE-63EF-7FDC-EF9A-F00545998FBB.jpg'
p132
I11
tp133
g3
s(S'/home/clayton/grive/pics/3m38b89e01-3e85-484d-b908-782035034769.jpg'
p134
I14
tp135
g3
s(S'/home/clayton/grive/pics/4w2CDDD638-E92B-8EBA-60E3-F00A5BD784E3.jpg'
p136
I16
tp137
g20
s(S'/home/clayton/grive/pics/0wAC2868E4-B636-2A84-4932-D85F939963F1.jpg'
p138
I20
tp139
g40
s(S'/home/clayton/grive/pics/2Angry.jpg (Case Conflict 2)'
p140
I62
tp141
g20
s(S'/home/clayton/grive/pics/0w1DA4F3B0-46AF-07D5-6E56-2A8D17618C41.jpg'
p142
I34
tp143
g40
s(S'/home/clayton/grive/pics/4wCDB694D9-BD6D-9794-0202-EFEF6E711F61.jpg'
p144
I32
tp145
g20
s(S'/home/clayton/grive/pics/0wA17C2882-CBD3-D872-556E-45F7E2047628.jpg'
p146
I92
tp147
g40
s(S'/home/clayton/grive/pics/2w545D8371-906B-59FB-3297-3D9D8D822C99.jpg'
p148
I46
tp149
g20
s(S'/home/clayton/grive/pics/5wDF2DC2D6-F1E3-1B71-20E2-467A671A3D60.jpg'
p150
I29
tp151
g10
s(S'/home/clayton/grive/pics/3w8CE97341-98AC-5D5E-73AB-46736817D056.jpg'
p152
I14
tp153
g3
s(S'/home/clayton/grive/pics/3wEA81AD9F-C919-7319-BDCE-333C59C6579E.jpg'
p154
I29
tp155
g3
s(S'/home/clayton/grive/pics/0wF7EB9296-7FE8-1C37-2486-4CDB6B286E59.jpg'
p156
I101
tp157
g40
s(S'/home/clayton/grive/pics/4wAC2868E4-B636-2A84-4932-D85F939963F1.jpg'
p158
I33
tp159
g20
s(S'/home/clayton/grive/pics/6w44B9D53B-EC71-47ED-AF85-EFEBF9C330AB.jpg'
p160
I7
tp161
g10
s(S'/home/clayton/grive/pics/0w6D8B00F1-237C-5070-C5C5-2725674902D4.jpg'
p162
I68
tp163
g40
s(S'/home/clayton/grive/pics/6w5D981B62-3BF3-3379-219B-EFF97EC7E5A0.jpg'
p164
I55
tp165
g10
s(S'/home/clayton/grive/pics/5w4123FC40-659C-BBF1-A29E-29652EC92828.jpg'
p166
I55
tp167
g10
s(S'/home/clayton/grive/pics/3w79D4D2F8-3794-9B73-B7D1-EFEF32720063.jpg'
p168
I6
tp169
g3
s(S'/home/clayton/grive/pics/2w17B211E6-BF03-6BE8-3E13-EFF255F37851.jpg'
p170
I12
tp171
g20
s(S'/home/clayton/grive/pics/3wF60A9437-78B3-BDE2-BCD1-EFFEB41D538F.jpg'
p172
I41
tp173
g20
s(S'/home/clayton/grive/pics/4wFF66FA36-78E6-6508-EDF0-3686176BF53D.jpg'
p174
I11
tp175
g20
s(S'/home/clayton/grive/pics/4w77EDF533-C254-FD89-6404-4660A2F03302.jpg'
p176
I15
tp177
g3
s(S'/home/clayton/grive/pics/0w17B211E6-BF03-6BE8-3E13-EFF255F37851.jpg'
p178
I11
tp179
g37
s(S'/home/clayton/grive/pics/5wE7D19A4A-E34F-1A45-F7A2-EFF5B26C785E.jpg'
p180
I10
tp181
g10
s(S'/home/clayton/grive/pics/4wE1F57AF5-064C-9BD6-AE25-F007E6803651.jpg'
p182
I54
tp183
g3
s(S'/home/clayton/grive/pics/5w4ACD6E21-0751-DEA6-DB60-2F0500DBF231.jpg'
p184
I83
tp185
g10
s(S'/home/clayton/grive/pics/2w656B02A8-518C-90F3-7234-38211A0CD399.jpg'
p186
I6
tp187
g3
s(S'/home/clayton/grive/pics/3m81793c88-5a77-4c1a-96b9-19113f792758.jpg'
p188
I72
tp189
g3
s(S'/home/clayton/grive/pics/1wE91A57C8-8766-64BA-4E1F-33C5F731BCE4.jpg'
p190
I28
tp191
g20
s(S'/home/clayton/grive/pics/4w7E85E5B5-F196-987E-51DD-2EC43C62E76D.jpg'
p192
I59
tp193
g20
s(S'/home/clayton/grive/pics/0w39D34F71-9398-68F2-4F8C-F0102C7A0F3C.jpg'
p194
I16
tp195
g40
s(S'/home/clayton/grive/pics/1wAC2868E4-B636-2A84-4932-D85F939963F1.jpg'
p196
I41
tp197
g20
s(S'/home/clayton/grive/pics/3w9FB993B7-8646-7117-CD23-27C2F4C7EC67.jpg'
p198
I105
tp199
g20
s(S'/home/clayton/grive/pics/6m89be575f-50b5-4d23-b6d7-940a46e9c030.jpg'
p200
I55
tp201
g10
s(S'/home/clayton/grive/pics/5md6e113df-509f-49d9-b0c7-905e86cc5df3.jpg'
p202
I21
tp203
g43
s(S'/home/clayton/grive/pics/4wC18279D9-47D0-4718-36BA-EFECC87D675D.jpg'
p204
I13
tp205
g20
s(S'/home/clayton/grive/pics/5wA78D46C1-F503-3E91-F99D-6B2FA22B3D14.jpg'
p206
I77
tp207
g10
s(S'/home/clayton/grive/pics/3w345D99A7-58C3-9A8D-4DBE-F0039637562A.jpg'
p208
I18
tp209
g3
s(S'/home/clayton/grive/pics/2m709ed245-1794-48b2-99f4-73cae971abbf.jpg'
p210
I6
tp211
g3
s(S'/home/clayton/grive/pics/4w1522DE41-3A6C-DEA0-CB4C-46E4E637BE61.jpg'
p212
I41
tp213
g3
s(S'/home/clayton/grive/pics/5w79B28E67-96B7-EB0D-9A75-EFFEDB8F577D.jpg'
p214
I48
tp215
g10
s(S'/home/clayton/grive/pics/5m6ce740af-da51-4c19-92ce-7b9d9adba5fe.jpg'
p216
I35
tp217
g10
s(S'/home/clayton/grive/pics/6w3D74C8C9-3DC1-0E0C-4327-4CE1A9A76C25.jpg'
p218
I87
tp219
g10
s(S'/home/clayton/grive/pics/1w9CF2D657-F38A-A867-1844-64AF3A43DEAA.jpg'
p220
I24
tp221
g20
s(S'/home/clayton/grive/pics/4m709ed245-1794-48b2-99f4-73cae971abbf.jpg'
p222
I55
tp223
g3
s(S'/home/clayton/grive/pics/6neutral1.JPG'
p224
I122
tp225
g10
s(S'/home/clayton/grive/pics/5w3D74C8C9-3DC1-0E0C-4327-4CE1A9A76C25.jpg'
p226
I79
tp227
g43
s(S'/home/clayton/grive/pics/0w04AB60B8-053D-0086-A395-4698C6ECDA34.jpg'
p228
I39
tp229
g40
s(S'/home/clayton/grive/pics/2wC8A7AD15-B749-2EF7-395E-3567AFF409A3.jpg'
p230
I4
tp231
g3
s(S'/home/clayton/grive/pics/3m3f589b66-7d9c-47c1-96ae-a7749e5a0293.jpg'
p232
I4
tp233
g3
s(S'/home/clayton/grive/pics/3m139a1aec-0c0b-440d-8a6c-7d5c8598259c.jpg'
p234
I24
tp235
g20
s(S'/home/clayton/grive/pics/3m4b57e50c-264c-4921-b4ca-8db06d561bcd.jpg'
p236
I59
tp237
g20
s(S'/home/clayton/grive/pics/0m139a1aec-0c0b-440d-8a6c-7d5c8598259c.jpg'
p238
I34
tp239
g40
s(S'/home/clayton/grive/pics/4w4ACD6E21-0751-DEA6-DB60-2F0500DBF231.jpg'
p240
I111
tp241
g20
s(S'/home/clayton/grive/pics/0w9D75EFDC-3AE6-E0D7-C7F4-28316CCF01BA.jpg'
p242
I114
tp243
g40
s(S'/home/clayton/grive/pics/6w3EC88953-2C9A-08EE-D3A5-465D5B7072D4.jpg'
p244
I85
tp245
g10
s(S'/home/clayton/grive/pics/5mbfafedbe-f2cf-4c12-b287-c50e7850c5eb.jpg'
p246
I22
tp247
g10
s(S'/home/clayton/grive/pics/5w8C431FA1-7A06-58B5-4FDB-EFF2BCDEFC0C.jpg'
p248
I16
tp249
g43
s(S'/home/clayton/grive/pics/2w0C837C12-99DE-6798-DCC0-6B372D9B14DF.jpg'
p250
I68
tp251
g20
s(S'/home/clayton/grive/pics/2w2C6C7917-E34A-87BF-D366-2849EADFBD8B.jpg'
p252
I22
tp253
g20
s(S'/home/clayton/grive/pics/4w99B8ED23-08A7-D462-5293-489B07663B77.jpg'
p254
I52
tp255
g20
s(S'/home/clayton/grive/pics/6w2C6C7917-E34A-87BF-D366-2849EADFBD8B.jpg'
p256
I30
tp257
g10
s(S'/home/clayton/grive/pics/3w656B02A8-518C-90F3-7234-38211A0CD399.jpg'
p258
I46
tp259
g3
s(S'/home/clayton/grive/pics/3mfeef873d-a3d3-409a-b559-85c7ecff3bba.jpg'
p260
I22
tp261
g20
s(S'/home/clayton/grive/pics/5m8e9ff3d6-a4ff-4675-848b-314010102ee8.jpg'
p262
I68
tp263
g43
s(S'/home/clayton/grive/pics/5w0D06F3B2-6808-7A67-1A70-EFE381C4F509.jpg'
p264
I4
tp265
g43
s(S'/home/clayton/grive/pics/2w0A63D31C-0B59-BFF2-4F27-46B385316AD7.jpg'
p266
I31
tp267
g20
s(S'/home/clayton/grive/pics/1wB75D3F87-A36C-1CFC-5730-28E28C577A75.jpg'
p268
I23
tp269
g3
s(S'/home/clayton/grive/pics/0KuoHappy.jpg'
p270
I99
tp271
g40
s(S'/home/clayton/grive/pics/5wA8290F86-C077-9F89-F9F7-464D6C6DEA5F.jpg'
p272
I29
tp273
g10
s(S'/home/clayton/grive/pics/3w57166D0D-8403-104C-6BEA-2F07DBC2E389.jpg'
p274
I34
tp275
g3
s(S'/home/clayton/grive/pics/4m9340b0af-fe78-4190-bcf7-13abbdf650b9.jpg'
p276
I21
tp277
g3
s(S'/home/clayton/grive/pics/3-Surprised.JPG'
p278
I106
tp279
g20
s(S'/home/clayton/grive/pics/1wA186136D-64B7-7288-372F-3843E2F6EAC4.jpg'
p280
I58
tp281
g20
s(S'/home/clayton/grive/pics/0w3AC58273-1249-F4C2-3A1C-289D10094EB9.jpg'
p282
I18
tp283
g15
s(S'/home/clayton/grive/pics/5w2CDDD638-E92B-8EBA-60E3-F00A5BD784E3.jpg'
p284
I15
tp285
g43
s(S'/home/clayton/grive/pics/6w869F00B2-7F5B-6906-0CB1-EFF2FF299FD4.jpg'
p286
I45
tp287
g10
s(S'/home/clayton/grive/pics/3w17B211E6-BF03-6BE8-3E13-EFF255F37851.jpg'
p288
I9
tp289
g3
s(S'/home/clayton/grive/pics/1w345D99A7-58C3-9A8D-4DBE-F0039637562A.jpg'
p290
I23
tp291
g3
s(S'/home/clayton/grive/pics/4wAEFC7C09-CD73-3B8E-A369-7AFA0E31AF3D.jpg'
p292
I45
tp293
g3
s(S'/home/clayton/grive/pics/3w2FF168A3-54B0-C7D9-47C9-37FA318D713D.jpg'
p294
I4
tp295
g20
s(S'/home/clayton/grive/pics/5wE1F57AF5-064C-9BD6-AE25-F007E6803651.jpg'
p296
I54
tp297
g43
s(S'/home/clayton/grive/pics/6wDF2DC2D6-F1E3-1B71-20E2-467A671A3D60.jpg'
p298
I4
tp299
g43
s(S'/home/clayton/grive/pics/0w869F00B2-7F5B-6906-0CB1-EFF2FF299FD4.jpg'
p300
I47
tp301
g40
s(S'/home/clayton/grive/pics/0w9142C5B8-00C3-B41B-B5F7-7B04092215BC.jpg'
p302
I20
tp303
g40
s(S'/home/clayton/grive/pics/2w8C431FA1-7A06-58B5-4FDB-EFF2BCDEFC0C.jpg'
p304
I25
tp305
g3
s(S'/home/clayton/grive/pics/2wFF66FA36-78E6-6508-EDF0-3686176BF53D.jpg'
p306
I20
tp307
g20
s(S'/home/clayton/grive/pics/1w3D74C8C9-3DC1-0E0C-4327-4CE1A9A76C25.jpg'
p308
I85
tp309
g3
s(S'/home/clayton/grive/pics/1wC8A7AD15-B749-2EF7-395E-3567AFF409A3.jpg'
p310
I13
tp311
g3
s(S'/home/clayton/grive/pics/3w0CC8EC66-FAA1-705C-0776-4AE9EA516A65.jpg'
p312
I4
tp313
g3
s(S'/home/clayton/grive/pics/4wF9371CDA-417F-992A-A6BC-DD6373EF9014.jpg'
p314
I55
tp315
g20
s(S'/home/clayton/grive/pics/0happy7.JPG'
p316
I131
tp317
g40
s(S'/home/clayton/grive/pics/2w4123FC40-659C-BBF1-A29E-29652EC92828.jpg'
p318
I18
tp319
g3
s(S'/home/clayton/grive/pics/6wC8D3294A-B9A8-6A3A-8331-465651FB65F4.jpg'
p320
I70
tp321
g10
s(S'/home/clayton/grive/pics/4m139a1aec-0c0b-440d-8a6c-7d5c8598259c.jpg'
p322
I35
tp323
g3
s(S'/home/clayton/grive/pics/6mcd66cc8e-1866-429d-af90-c2c756395882.jpg'
p324
I44
tp325
g10
s(S'/home/clayton/grive/pics/1w9A37A263-9801-0A1A-312E-3334DD7F32AC.jpg'
p326
I40
tp327
g20
s(S'/home/clayton/grive/pics/4wEA81AD9F-C919-7319-BDCE-333C59C6579E.jpg'
p328
I24
tp329
g20
s(S'/home/clayton/grive/pics/1wA17C2882-CBD3-D872-556E-45F7E2047628.jpg'
p330
I9
tp331
g3
s(S'/home/clayton/grive/pics/0w422A3E39-00CD-54DC-F42A-332478449BD6.jpg'
p332
I102
tp333
g40
s(S'/home/clayton/grive/pics/4wCADCAECA-D3E7-342A-07FA-4652ED88FBA9.jpg'
p334
I26
tp335
g20
s(S'/home/clayton/grive/pics/3w453B0D9A-7B7C-9A9F-3D97-F00362CCA49C.jpg'
p336
I29
tp337
g3
s(S'/home/clayton/grive/pics/3w1522DE41-3A6C-DEA0-CB4C-46E4E637BE61.jpg'
p338
I21
tp339
g20
s(S'/home/clayton/grive/pics/2w88F7430E-6DC5-7C09-D0EC-EFF12BB629CC.jpg'
p340
I25
tp341
g20
s(S'/home/clayton/grive/pics/6w7F2BE16D-8A7C-F883-8CFE-EFF8C9D10E88.jpg'
p342
I26
tp343
g10
s(S'/home/clayton/grive/pics/0m5b216672-8484-4348-b9ab-3f0437fe53dc.jpg'
p344
I127
tp345
g40
s(S'/home/clayton/grive/pics/5w157643A0-E4FE-5F90-C9B1-465764731874.jpg'
p346
I17
tp347
g10
s(S'/home/clayton/grive/pics/3w809F0A15-03D4-873B-62D0-6B3146FEE7CF.jpg'
p348
I8
tp349
g3
s(S'/home/clayton/grive/pics/4w75B0A7BB-3879-FF92-CC05-37B01FC821E8.jpg'
p350
I31
tp351
g20
s(S'/home/clayton/grive/pics/3wC18279D9-47D0-4718-36BA-EFECC87D675D.jpg'
p352
I11
tp353
g20
s(S'/home/clayton/grive/pics/3maa24e3dd-73b7-43bb-9668-26cf6b146f58.jpg'
p354
I29
tp355
g20
s(S'/home/clayton/grive/pics/6w0D06F3B2-6808-7A67-1A70-EFE381C4F509.jpg'
p356
I6
tp357
g43
s(S'/home/clayton/grive/pics/0w7F2BE16D-8A7C-F883-8CFE-EFF8C9D10E88.jpg'
p358
I12
tp359
g40
s(S'/home/clayton/grive/pics/0wBE6C87EF-3D62-189A-34DB-33F0A359A14F.jpg'
p360
I19
tp361
g37
s(S'/home/clayton/grive/pics/4w70574034-301E-9568-EB56-389E0E002C5E.jpg'
p362
I36
tp363
g3
s(S'/home/clayton/grive/pics/5w3AC58273-1249-F4C2-3A1C-289D10094EB9.jpg'
p364
I110
tp365
g10
s(S'/home/clayton/grive/pics/3w42122DD0-1D98-3417-ED3C-3CD7325AEF4E.jpg'
p366
I35
tp367
g20
s(S'/home/clayton/grive/pics/2w9A37A263-9801-0A1A-312E-3334DD7F32AC.jpg'
p368
I36
tp369
g20
s(S'/home/clayton/grive/pics/3wE6FF3C82-8BAF-EFF6-6F4B-F007379019E6.jpg'
p370
I8
tp371
g3
s(S'/home/clayton/grive/pics/0wF6EF8C51-B792-9FCF-687D-3333BA797012.jpg'
p372
I54
tp373
g40
s(S'/home/clayton/grive/pics/3wD9E9B0A8-7D98-A0F3-9A06-37ECA03E6425.jpg'
p374
I6
tp375
g3
s(S'/home/clayton/grive/pics/6Neutral.jpg'
p376
I78
tp377
g10
s(S'/home/clayton/grive/pics/0wCADCAECA-D3E7-342A-07FA-4652ED88FBA9.jpg'
p378
I4
tp379
g40
s(S'/home/clayton/grive/pics/2w6A3CAB4F-95AC-25CB-4CD4-2D0EA445F376.jpg'
p380
I47
tp381
g20
s(S'/home/clayton/grive/pics/3wC89E1EA6-6B03-0107-19C6-312038C89CA1.jpg'
p382
I52
tp383
g3
s(S'/home/clayton/grive/pics/6m040789e6-8b61-484e-b935-203eeeaf5a7f.jpg'
p384
I86
tp385
g10
s(S'/home/clayton/grive/pics/4m4b57e50c-264c-4921-b4ca-8db06d561bcd.jpg'
p386
I65
tp387
g3
s(S'/home/clayton/grive/pics/4w17B211E6-BF03-6BE8-3E13-EFF255F37851.jpg'
p388
I7
tp389
g3
s(S'/home/clayton/grive/pics/6wD5BE1562-F05B-1AA8-6290-37EE9C424B0E.jpg'
p390
I44
tp391
g10
s(S'/home/clayton/grive/pics/0wD7662DB4-ED2D-0E94-3A81-F002716EC18A.jpg'
p392
I34
tp393
g40
s(S'/home/clayton/grive/pics/0wFA3A2A73-D799-1F82-B7C9-6B922E50F6D3.jpg'
p394
I79
tp395
g40
s(S'/home/clayton/grive/pics/2w233E62AD-7E9F-FF61-F5E5-EFFC288A76F9.jpg'
p396
I33
tp397
g3
s(S'/home/clayton/grive/pics/0m8e9ff3d6-a4ff-4675-848b-314010102ee8.jpg'
p398
I47
tp399
g40
s(S'/home/clayton/grive/pics/1w514E3E36-1CFE-F72D-C4B3-EFEBDD4798A6.jpg'
p400
I22
tp401
g20
s(S'/home/clayton/grive/pics/6w4ACD6E21-0751-DEA6-DB60-2F0500DBF231.jpg'
p402
I118
tp403
g10
s(S'/home/clayton/grive/pics/1Sad.jpg (Case Conflict 2)'
p404
I56
tp405
g3
s(S'/home/clayton/grive/pics/3wF6EF8C51-B792-9FCF-687D-3333BA797012.jpg'
p406
I33
tp407
g20
s(S'/home/clayton/grive/pics/1w2FF168A3-54B0-C7D9-47C9-37FA318D713D.jpg'
p408
I7
tp409
g3
s(S'/home/clayton/grive/pics/1w88F7430E-6DC5-7C09-D0EC-EFF12BB629CC.jpg'
p410
I7
tp411
g20
s(S'/home/clayton/grive/pics/2-Angry.JPG'
p412
I122
tp413
g20
s(S'/home/clayton/grive/pics/6wCC78F689-E22B-23A4-2B55-3336F8A9B35C.jpg'
p414
I31
tp415
g10
s(S'/home/clayton/grive/pics/4wF9A08F82-E468-659D-6E2A-4649DD6662AF.jpg'
p416
I6
tp417
g3
s(S'/home/clayton/grive/pics/5w837D0871-935B-7E8E-A689-F00B320588E7.jpg'
p418
I16
tp419
g43
s(S'/home/clayton/grive/pics/3m4ed4b5c3-8594-4921-981d-970fc18d5fea.jpg'
p420
I4
tp421
g3
s(S'/home/clayton/grive/pics/2md6e113df-509f-49d9-b0c7-905e86cc5df3.jpg'
p422
I31
tp423
g20
s(S'/home/clayton/grive/pics/5w42122DD0-1D98-3417-ED3C-3CD7325AEF4E.jpg'
p424
I46
tp425
g10
s(g298
I32
tp426
g10
s(S'/home/clayton/grive/pics/4w10F317F3-9F1E-F59C-B335-38A8ADEE47AF.jpg'
p427
I38
tp428
g20
s(S'/home/clayton/grive/pics/2w98D0D5C2-5A24-77C4-893C-389C780B22BF.jpg'
p429
I39
tp430
g20
s(S'/home/clayton/grive/pics/2m3489e795-35d9-4bc6-83c2-0b80c5b780ea.jpg'
p431
I31
tp432
g20
s(S'/home/clayton/grive/pics/3w2C6C7917-E34A-87BF-D366-2849EADFBD8B.jpg'
p433
I11
tp434
g3
s(S'/home/clayton/grive/pics/5m4b57e50c-264c-4921-b4ca-8db06d561bcd.jpg'
p435
I71
tp436
g43
s(S'/home/clayton/grive/pics/0w6C9F7832-CE9D-15A0-5DA4-6B8CFF5E8490.jpg'
p437
I64
tp438
g40
s(S'/home/clayton/grive/pics/4wA17C2882-CBD3-D872-556E-45F7E2047628.jpg'
p439
I83
tp440
g20
s(S'/home/clayton/grive/pics/3w10F317F3-9F1E-F59C-B335-38A8ADEE47AF.jpg'
p441
I66
tp442
g20
s(S'/home/clayton/grive/pics/2wD174FE9B-6632-6EBB-E135-9EFF44352093.jpg'
p443
I117
tp444
g20
s(S'/home/clayton/grive/pics/3wD2C8420A-CA69-4783-1899-278856A49F4B.jpg'
p445
I20
tp446
g3
s(S'/home/clayton/grive/pics/3w9CF2D657-F38A-A867-1844-64AF3A43DEAA.jpg'
p447
I26
tp448
g20
s(S'/home/clayton/grive/pics/0wFF66FA36-78E6-6508-EDF0-3686176BF53D.jpg'
p449
I15
tp450
g40
s(S'/home/clayton/grive/pics/2w1F9D7616-B031-13BA-2CF1-332BB1E15DC2.jpg'
p451
I102
tp452
g20
s(S'/home/clayton/grive/pics/3w9A37A263-9801-0A1A-312E-3334DD7F32AC.jpg'
p453
I66
tp454
g20
s(S'/home/clayton/grive/pics/4w3D74C8C9-3DC1-0E0C-4327-4CE1A9A76C25.jpg'
p455
I73
tp456
g20
s(S'/home/clayton/grive/pics/4w547FEF42-FCBE-B966-D617-2888E39F4498.jpg'
p457
I44
tp458
g20
s(S'/home/clayton/grive/pics/2wEFC295BD-AB8D-C93F-1AEF-332E960B6391.jpg'
p459
I29
tp460
g20
s(S'/home/clayton/grive/pics/2Angry.jpg'
p461
I58
tp462
g20
s(S'/home/clayton/grive/pics/0w837D0871-935B-7E8E-A689-F00B320588E7.jpg'
p463
I20
tp464
g40
s(S'/home/clayton/grive/pics/0happy8.JPG'
p465
I15
tp466
g40
s(S'/home/clayton/grive/pics/6wAF00C89F-447F-4CD2-7885-EFFB17DF9144.jpg'
p467
I37
tp468
g10
s(S'/home/clayton/grive/pics/0wD2C8420A-CA69-4783-1899-278856A49F4B.jpg'
p469
I28
tp470
g40
s(S'/home/clayton/grive/pics/1w7EA25B92-1336-94C0-FB2D-EFDA52371B47.jpg'
p471
I9
tp472
g20
s(S'/home/clayton/grive/pics/3w30492B57-425C-19D5-B21A-38A9A06B20F8.jpg'
p473
I35
tp474
g20
s(S'/home/clayton/grive/pics/4m9660a96e-a888-40cd-b380-7d3761693c17.jpg'
p475
I99
tp476
g3
s(S'/home/clayton/grive/pics/3w869F00B2-7F5B-6906-0CB1-EFF2FF299FD4.jpg'
p477
I33
tp478
g3
s(S'/home/clayton/grive/pics/4w6583AC61-429D-C61E-715E-EFF713238241.jpg'
p479
I6
tp480
g3
s(S'/home/clayton/grive/pics/3w24FD90A0-B0EF-2E69-7527-48907DFAB4FA.jpg'
p481
I35
tp482
g3
s(S'/home/clayton/grive/pics/2m18d993d2-3c00-433c-8be0-d106d508d053.jpg'
p483
I30
tp484
g20
s(S'/home/clayton/grive/pics/1m18d993d2-3c00-433c-8be0-d106d508d053.jpg'
p485
I34
tp486
g20
s(S'/home/clayton/grive/pics/3wF9A08F82-E468-659D-6E2A-4649DD6662AF.jpg'
p487
I28
tp488
g20
s(S'/home/clayton/grive/pics/4w869F00B2-7F5B-6906-0CB1-EFF2FF299FD4.jpg'
p489
I49
tp490
g20
s(S'/home/clayton/grive/pics/0m6ce740af-da51-4c19-92ce-7b9d9adba5fe.jpg'
p491
I24
tp492
g40
s(g35
I27
tp493
g40
s(S'/home/clayton/grive/pics/5w6D8B00F1-237C-5070-C5C5-2725674902D4.jpg'
p494
I85
tp495
g10
s(S'/home/clayton/grive/pics/5w2C9F8C42-E900-B747-C962-465A32A9CCE7.jpg'
p496
I42
tp497
g43
s(S'/home/clayton/grive/pics/4w1DA4F3B0-46AF-07D5-6E56-2A8D17618C41.jpg'
p498
I54
tp499
g20
s(S'/home/clayton/grive/pics/5me82712a5-8b59-464a-b0fd-d3578d4e83b3.jpg'
p500
I8
tp501
g43
s(S'/home/clayton/grive/pics/0mcd66cc8e-1866-429d-af90-c2c756395882.jpg'
p502
I41
tp503
g40
s(S'/home/clayton/grive/pics/0m3489e795-35d9-4bc6-83c2-0b80c5b780ea.jpg'
p504
I30
tp505
g40
s(S'/home/clayton/grive/pics/3w0AAA0AC9-6F8F-E71E-133D-46E81C08DACC.jpg'
p506
I42
tp507
g3
s(S'/home/clayton/grive/pics/0wEE5FC257-9937-1847-8A4C-31E98B5E3AC3.jpg'
p508
I68
tp509
g40
s(S'/home/clayton/grive/pics/2w86213EB0-EFE5-91A5-6308-4CE43B9C4ABB.jpg'
p510
I45
tp511
g20
s(S'/home/clayton/grive/pics/3wCC78F689-E22B-23A4-2B55-3336F8A9B35C.jpg'
p512
I31
tp513
g3
s(S'/home/clayton/grive/pics/6m3489e795-35d9-4bc6-83c2-0b80c5b780ea.jpg'
p514
I24
tp515
g10
s(S'/home/clayton/grive/pics/0w77EDF533-C254-FD89-6404-4660A2F03302.jpg'
p516
I44
tp517
g40
s(S'/home/clayton/grive/pics/6mee953784-3873-4738-a45f-15bf2d546bdf.jpg'
p518
I8
tp519
g43
s(S'/home/clayton/grive/pics/0w233E62AD-7E9F-FF61-F5E5-EFFC288A76F9.jpg'
p520
I40
tp521
g37
s(S'/home/clayton/grive/pics/1w8039E961-EE34-7805-4B54-D80D2BE38F57.jpg'
p522
I13
tp523
g3
s(S'/home/clayton/grive/pics/0w75A71932-7631-6493-AA4D-CD72B83F1138.jpg'
p524
I78
tp525
g40
s(S'/home/clayton/grive/pics/3w7EA25B92-1336-94C0-FB2D-EFDA52371B47.jpg'
p526
I4
tp527
g20
s(S'/home/clayton/grive/pics/5wFA3A2A73-D799-1F82-B7C9-6B922E50F6D3.jpg'
p528
I54
tp529
g43
s(S'/home/clayton/grive/pics/6wE6FF3C82-8BAF-EFF6-6F4B-F007379019E6.jpg'
p530
I7
tp531
g43
s(S'/home/clayton/grive/pics/4ma066d0c9-b62d-47e2-aba9-89f5120f6750.jpg'
p532
I38
tp533
g3
s(S'/home/clayton/grive/pics/1w77C09460-F810-F1E2-D2AC-EFE8805E512A.jpg'
p534
I4
tp535
g3
s(S'/home/clayton/grive/pics/6w39D34F71-9398-68F2-4F8C-F0102C7A0F3C.jpg'
p536
I39
tp537
g10
s(S'/home/clayton/grive/pics/0wF51ABC70-E908-AA82-8C29-D8B59FE8C62F.jpg'
p538
I55
tp539
g40
s(S'/home/clayton/grive/pics/0w649F4C25-595D-5383-9B2D-F0041EC3CC63.jpg'
p540
I34
tp541
g40
s(S'/home/clayton/grive/pics/3w6C9F7832-CE9D-15A0-5DA4-6B8CFF5E8490.jpg'
p542
I41
tp543
g20
s(S'/home/clayton/grive/pics/0w4ACD6E21-0751-DEA6-DB60-2F0500DBF231.jpg'
p544
I110
tp545
g40
s(S'/home/clayton/grive/pics/6w99B8ED23-08A7-D462-5293-489B07663B77.jpg'
p546
I53
tp547
g10
s(S'/home/clayton/grive/pics/5w01343164-B10C-A805-EF2F-2D0A02E780D0.jpg'
p548
I87
tp549
g43
s(S'/home/clayton/grive/pics/5w75B0A7BB-3879-FF92-CC05-37B01FC821E8.jpg'
p550
I45
tp551
g10
s(S'/home/clayton/grive/pics/6wD174FE9B-6632-6EBB-E135-9EFF44352093.jpg'
p552
I105
tp553
g10
s(S'/home/clayton/grive/pics/1wE7D19A4A-E34F-1A45-F7A2-EFF5B26C785E.jpg'
p554
I22
tp555
g20
s(S'/home/clayton/grive/pics/3w233E62AD-7E9F-FF61-F5E5-EFFC288A76F9.jpg'
p556
I43
tp557
g3
s(g108
I4
tp558
g10
s(S'/home/clayton/grive/pics/0wC6AB8E45-0D08-5231-7C41-EFF50AB9F865.jpg'
p559
I43
tp560
g40
s(S'/home/clayton/grive/pics/6mc2d2626e-bc27-4876-975b-5ee13733ad4e.jpg'
p561
I17
tp562
g10
s(S'/home/clayton/grive/pics/0w57166D0D-8403-104C-6BEA-2F07DBC2E389.jpg'
p563
I23
tp564
g40
s(S'/home/clayton/grive/pics/6w2FF168A3-54B0-C7D9-47C9-37FA318D713D.jpg'
p565
I9
tp566
g43
s(S'/home/clayton/grive/pics/3m6ccb14e5-001d-499c-9d77-979759f7986b.jpg'
p567
I11
tp568
g3
s(S'/home/clayton/grive/pics/3wF7EB9296-7FE8-1C37-2486-4CDB6B286E59.jpg'
p569
I82
tp570
g20
s(S'/home/clayton/grive/pics/0w24FD90A0-B0EF-2E69-7527-48907DFAB4FA.jpg'
p571
I10
tp572
g15
s(S'/home/clayton/grive/pics/4wA78D46C1-F503-3E91-F99D-6B2FA22B3D14.jpg'
p573
I62
tp574
g20
s(S'/home/clayton/grive/pics/4mbfafedbe-f2cf-4c12-b287-c50e7850c5eb.jpg'
p575
I54
tp576
g20
s(S'/home/clayton/grive/pics/2wD61ACB92-52ED-6679-0D80-38A0B91ACF94.jpg'
p577
I65
tp578
g20
s(g18
I9
tp579
g3
s(S'/home/clayton/grive/pics/5w3EC88953-2C9A-08EE-D3A5-465D5B7072D4.jpg'
p580
I97
tp581
g10
s(S'/home/clayton/grive/pics/5mfdc9ff7d-8480-4e52-940b-33d65b5f09d9.jpg'
p582
I66
tp583
g10
s(S'/home/clayton/grive/pics/5wEA81AD9F-C919-7319-BDCE-333C59C6579E.jpg'
p584
I28
tp585
g43
s(S'/home/clayton/grive/pics/0wEA81AD9F-C919-7319-BDCE-333C59C6579E.jpg'
p586
I38
tp587
g40
s(S'/home/clayton/grive/pics/0w3EC88953-2C9A-08EE-D3A5-465D5B7072D4.jpg'
p588
I97
tp589
g40
s(S'/home/clayton/grive/pics/1wE0CA5A8E-D4F8-F93F-8845-CD71832C5BEC.jpg'
p590
I85
tp591
g3
s(S'/home/clayton/grive/pics/1w70574034-301E-9568-EB56-389E0E002C5E.jpg'
p592
I57
tp593
g20
s(S'/home/clayton/grive/pics/2w62D19778-1AA6-13C2-004F-389AF747333D.jpg'
p594
I46
tp595
g20
s(g300
I13
tp596
g37
s(S'/home/clayton/grive/pics/2w7B52AA0B-3547-4AAC-D109-389D5596BF39.jpg'
p597
I11
tp598
g20
s(S'/home/clayton/grive/pics/6w1DA4F3B0-46AF-07D5-6E56-2A8D17618C41.jpg'
p599
I65
tp600
g10
s(S'/home/clayton/grive/pics/6w809F0A15-03D4-873B-62D0-6B3146FEE7CF.jpg'
p601
I63
tp602
g10
s(S'/home/clayton/grive/pics/5wB7907848-2DA7-2CBC-9171-46E1D7C304D7.jpg'
p603
I34
tp604
g10
s(S'/home/clayton/grive/pics/6w5D592E12-AEF9-B530-374E-3322B125D1A1.jpg'
p605
I83
tp606
g10
s(S'/home/clayton/grive/pics/5wD18772FE-63EF-7FDC-EF9A-F00545998FBB.jpg'
p607
I4
tp608
g43
s(S'/home/clayton/grive/pics/0wE1F57AF5-064C-9BD6-AE25-F007E6803651.jpg'
p609
I63
tp610
g40
s(S'/home/clayton/grive/pics/3m53633fb0-91e3-4336-8db7-0f2ed20929f7.jpg'
p611
I35
tp612
g3
s(S'/home/clayton/grive/pics/1w75B0A7BB-3879-FF92-CC05-37B01FC821E8.jpg'
p613
I38
tp614
g3
s(S'/home/clayton/grive/pics/0happy6.JPG'
p615
I116
tp616
g40
s(S'/home/clayton/grive/pics/6w157643A0-E4FE-5F90-C9B1-465764731874.jpg'
p617
I30
tp618
g10
s(S'/home/clayton/grive/pics/3w2B02DD01-5BAB-ABA0-2EAF-3833D439A739.jpg'
p619
I128
tp620
g20
s(S'/home/clayton/grive/pics/2w10F317F3-9F1E-F59C-B335-38A8ADEE47AF.jpg'
p621
I50
tp622
g20
s(S'/home/clayton/grive/pics/3DSCN0308.JPG'
p623
I69
tp624
g20
s(S'/home/clayton/grive/pics/1me82712a5-8b59-464a-b0fd-d3578d4e83b3.jpg'
p625
I10
tp626
g20
s(S'/home/clayton/grive/pics/3w4123FC40-659C-BBF1-A29E-29652EC92828.jpg'
p627
I31
tp628
g3
s(S'/home/clayton/grive/pics/1DSCN0306.JPG'
p629
I85
tp630
g3
s(S'/home/clayton/grive/pics/4wD174FE9B-6632-6EBB-E135-9EFF44352093.jpg'
p631
I89
tp632
g20
s(S'/home/clayton/grive/pics/2m040789e6-8b61-484e-b935-203eeeaf5a7f.jpg'
p633
I55
tp634
g3
s(S'/home/clayton/grive/pics/5w7B52AA0B-3547-4AAC-D109-389D5596BF39.jpg'
p635
I21
tp636
g10
s(S'/home/clayton/grive/pics/6w57166D0D-8403-104C-6BEA-2F07DBC2E389.jpg'
p637
I35
tp638
g10
s(S'/home/clayton/grive/pics/3m354dbab3-cc44-4fa5-a76b-1832158454cd.jpg'
p639
I7
tp640
g3
s(S'/home/clayton/grive/pics/1w3439D79B-2F14-0A7C-A485-3D9751A5715E.jpg'
p641
I28
tp642
g20
s(S'/home/clayton/grive/pics/6wC8A7AD15-B749-2EF7-395E-3567AFF409A3.jpg'
p643
I35
tp644
g10
s(S'/home/clayton/grive/pics/0wE0CA5A8E-D4F8-F93F-8845-CD71832C5BEC.jpg'
p645
I84
tp646
g40
s(S'/home/clayton/grive/pics/3wE91A57C8-8766-64BA-4E1F-33C5F731BCE4.jpg'
p647
I34
tp648
g20
s(S'/home/clayton/grive/pics/2wD5BE1562-F05B-1AA8-6290-37EE9C424B0E.jpg'
p649
I42
tp650
g20
s(S'/home/clayton/grive/pics/0w2C9F8C42-E900-B747-C962-465A32A9CCE7.jpg'
p651
I49
tp652
g40
s(S'/home/clayton/grive/pics/0mbfafedbe-f2cf-4c12-b287-c50e7850c5eb.jpg'
p653
I89
tp654
g40
s(S'/home/clayton/grive/pics/1w6583AC61-429D-C61E-715E-EFF713238241.jpg'
p655
I23
tp656
g20
s(S'/home/clayton/grive/pics/4w0CC8EC66-FAA1-705C-0776-4AE9EA516A65.jpg'
p657
I70
tp658
g20
s(S'/home/clayton/grive/pics/0wB6218480-F680-6013-04E0-38A57AE3C9A5.jpg'
p659
I81
tp660
g40
s(S'/home/clayton/grive/pics/2m9660a96e-a888-40cd-b380-7d3761693c17.jpg'
p661
I84
tp662
g3
s(S'/home/clayton/grive/pics/1wA78D46C1-F503-3E91-F99D-6B2FA22B3D14.jpg'
p663
I51
tp664
g20
s(S'/home/clayton/grive/pics/3wE558DDB7-482D-F4EF-052D-EFE9601C0416.jpg'
p665
I13
tp666
g3
s(S'/home/clayton/grive/pics/4wC6AB8E45-0D08-5231-7C41-EFF50AB9F865.jpg'
p667
I56
tp668
g3
s(S'/home/clayton/grive/pics/1w2EF2AD95-51F3-FC29-E168-F00CBA1039A6.jpg'
p669
I13
tp670
g20
s(S'/home/clayton/grive/pics/0w453B0D9A-7B7C-9A9F-3D97-F00362CCA49C.jpg'
p671
I43
tp672
g40
s(S'/home/clayton/grive/pics/5wAEFC7C09-CD73-3B8E-A369-7AFA0E31AF3D.jpg'
p673
I37
tp674
g10
s(S'/home/clayton/grive/pics/0md99d5900-5461-41eb-adb1-8681a6885dc6.jpg'
p675
I62
tp676
g40
s(S'/home/clayton/grive/pics/4w4A42FC32-7901-26E1-A91B-33331AA34C92.jpg'
p677
I65
tp678
g20
s(S'/home/clayton/grive/pics/3Surprised.jpg'
p679
I44
tp680
g20
s(S'/home/clayton/grive/pics/6w9FB993B7-8646-7117-CD23-27C2F4C7EC67.jpg'
p681
I100
tp682
g10
s(S'/home/clayton/grive/pics/0wCFBE9FE8-526E-B206-585D-7A9FA92FD844.jpg'
p683
I74
tp684
g40
s(S'/home/clayton/grive/pics/6mbb625c3c-721b-4e37-9aa1-68684b210046.jpg'
p685
I13
tp686
g43
s(S'/home/clayton/grive/pics/0w42122DD0-1D98-3417-ED3C-3CD7325AEF4E.jpg'
p687
I17
tp688
g15
s(S'/home/clayton/grive/pics/6w0CC8EC66-FAA1-705C-0776-4AE9EA516A65.jpg'
p689
I58
tp690
g10
s(S'/home/clayton/grive/pics/5w77EDF533-C254-FD89-6404-4660A2F03302.jpg'
p691
I27
tp692
g43
s(S'/home/clayton/grive/pics/1w453B0D9A-7B7C-9A9F-3D97-F00362CCA49C.jpg'
p693
I34
tp694
g20
s(S'/home/clayton/grive/pics/0wB6B835B5-9521-A5DD-61B1-F009B95FB653.jpg'
p695
I26
tp696
g40
s(S'/home/clayton/grive/pics/6w62D19778-1AA6-13C2-004F-389AF747333D.jpg'
p697
I31
tp698
g10
s(S'/home/clayton/grive/pics/4scared_david_bates.jpg'
p699
I4
tp700
g3
s(g284
I5
tp701
g43
s(g138
I70
tp702
g40
s(S'/home/clayton/grive/pics/1w869F00B2-7F5B-6906-0CB1-EFF2FF299FD4.jpg'
p703
I38
tp704
g3
s(S'/home/clayton/grive/pics/3w9D75EFDC-3AE6-E0D7-C7F4-28316CCF01BA.jpg'
p705
I74
tp706
g3
s(S'/home/clayton/grive/pics/5w3439D79B-2F14-0A7C-A485-3D9751A5715E.jpg'
p707
I26
tp708
g43
s(S'/home/clayton/grive/pics/3w5D981B62-3BF3-3379-219B-EFF97EC7E5A0.jpg'
p709
I68
tp710
g3
s(S'/home/clayton/grive/pics/4wEE5485BA-9F02-B81F-7B8A-D865E20BE312.jpg'
p711
I38
tp712
g20
s(S'/home/clayton/grive/pics/0m9660a96e-a888-40cd-b380-7d3761693c17.jpg'
p713
I76
tp714
g40
s(S'/home/clayton/grive/pics/1w0CC8EC66-FAA1-705C-0776-4AE9EA516A65.jpg'
p715
I59
tp716
g20
s(g356
I26
tp717
g10
s(S'/home/clayton/grive/pics/5w98D0D5C2-5A24-77C4-893C-389C780B22BF.jpg'
p718
I30
tp719
g10
s(S'/home/clayton/grive/pics/1w2CDDD638-E92B-8EBA-60E3-F00A5BD784E3.jpg'
p720
I29
tp721
g3
s(S'/home/clayton/grive/pics/0w9FB993B7-8646-7117-CD23-27C2F4C7EC67.jpg'
p722
I103
tp723
g40
s(S'/home/clayton/grive/pics/4wD18772FE-63EF-7FDC-EF9A-F00545998FBB.jpg'
p724
I4
tp725
g3
s(S'/home/clayton/grive/pics/1w3F606B5D-77FB-F545-EEF4-36CCC8791888.jpg'
p726
I19
tp727
g3
s(S'/home/clayton/grive/pics/1w17B211E6-BF03-6BE8-3E13-EFF255F37851.jpg'
p728
I45
tp729
g3
s(S'/home/clayton/grive/pics/0w75B0A7BB-3879-FF92-CC05-37B01FC821E8.jpg'
p730
I62
tp731
g40
s(S'/home/clayton/grive/pics/5wC8A7AD15-B749-2EF7-395E-3567AFF409A3.jpg'
p732
I5
tp733
g43
s(S'/home/clayton/grive/pics/4w23C4FE8C-F60F-F7A0-209F-EFEDBF964235.jpg'
p734
I27
tp735
g20
s(g294
I5
tp736
g3
s(S'/home/clayton/grive/pics/2m53633fb0-91e3-4336-8db7-0f2ed20929f7.jpg'
p737
I52
tp738
g20
s(S'/home/clayton/grive/pics/2wE558DDB7-482D-F4EF-052D-EFE9601C0416.jpg'
p739
I4
tp740
g3
s(S'/home/clayton/grive/pics/2ma066d0c9-b62d-47e2-aba9-89f5120f6750.jpg'
p741
I34
tp742
g20
s(S'/home/clayton/grive/pics/0w99B8ED23-08A7-D462-5293-489B07663B77.jpg'
p743
I65
tp744
g40
s(g360
I6
tp745
g40
s(S'/home/clayton/grive/pics/6w9DC9791F-43FF-A0F2-136E-27278922DE8B.jpg'
p746
I17
tp747
g10
s(S'/home/clayton/grive/pics/2wC89E1EA6-6B03-0107-19C6-312038C89CA1.jpg'
p748
I67
tp749
g20
s(S'/home/clayton/grive/pics/1w809F0A15-03D4-873B-62D0-6B3146FEE7CF.jpg'
p750
I50
tp751
g20
s(S'/home/clayton/grive/pics/6m4b57e50c-264c-4921-b4ca-8db06d561bcd.jpg'
p752
I53
tp753
g10
s(S'/home/clayton/grive/pics/2w79D4D2F8-3794-9B73-B7D1-EFEF32720063.jpg'
p754
I4
tp755
g3
s(g675
I5
tp756
g15
s(S'/home/clayton/grive/pics/4m8e9ff3d6-a4ff-4675-848b-314010102ee8.jpg'
p757
I46
tp758
g3
s(S'/home/clayton/grive/pics/6w90056D7B-4D04-567E-6142-F00A0A0CACCC.jpg'
p759
I30
tp760
g10
s(S'/home/clayton/grive/pics/3md6e113df-509f-49d9-b0c7-905e86cc5df3.jpg'
p761
I37
tp762
g3
s(S'/home/clayton/grive/pics/3w455E62E6-5EAF-9986-F10E-383E9405062F.jpg'
p763
I53
tp764
g20
s(S'/home/clayton/grive/pics/0KuoGlassesHappy.jpg'
p765
I72
tp766
g40
s(S'/home/clayton/grive/pics/3ma066d0c9-b62d-47e2-aba9-89f5120f6750.jpg'
p767
I4
tp768
g3
s(S'/home/clayton/grive/pics/4wE579115D-288C-F313-6988-EFDB2EB5D4BF.jpg'
p769
I9
tp770
g20
s(S'/home/clayton/grive/pics/3wAEFC7C09-CD73-3B8E-A369-7AFA0E31AF3D.jpg'
p771
I32
tp772
g20
s(S'/home/clayton/grive/pics/6wE7D19A4A-E34F-1A45-F7A2-EFF5B26C785E.jpg'
p773
I7
tp774
g43
s(S'/home/clayton/grive/pics/0w0CC8EC66-FAA1-705C-0776-4AE9EA516A65.jpg'
p775
I59
tp776
g40
s(S'/home/clayton/grive/pics/3wA17C2882-CBD3-D872-556E-45F7E2047628.jpg'
p777
I86
tp778
g3
s(S'/home/clayton/grive/pics/4m6ccb14e5-001d-499c-9d77-979759f7986b.jpg'
p779
I14
tp780
g3
s(S'/home/clayton/grive/pics/3w11C902A3-3D0A-1956-0538-6B9806AA4F9F.jpg'
p781
I37
tp782
g20
s(S'/home/clayton/grive/pics/4w545D8371-906B-59FB-3297-3D9D8D822C99.jpg'
p783
I25
tp784
g3
s(S'/home/clayton/grive/pics/6w3AC58273-1249-F4C2-3A1C-289D10094EB9.jpg'
p785
I107
tp786
g10
s(S'/home/clayton/grive/pics/0wEE5485BA-9F02-B81F-7B8A-D865E20BE312.jpg'
p787
I40
tp788
g40
s(S'/home/clayton/grive/pics/6w12EC627A-1192-EC96-EEC9-489DEAE24E0B.jpg'
p789
I49
tp790
g10
s(S'/home/clayton/grive/pics/6w0C837C12-99DE-6798-DCC0-6B372D9B14DF.jpg'
p791
I58
tp792
g10
s(S'/home/clayton/grive/pics/6wC18279D9-47D0-4718-36BA-EFECC87D675D.jpg'
p793
I21
tp794
g43
s(S'/home/clayton/grive/pics/0w7E85E5B5-F196-987E-51DD-2EC43C62E76D.jpg'
p795
I73
tp796
g40
s(g396
I43
tp797
g3
s(g431
I10
tp798
g3
s(S'/home/clayton/grive/pics/6Neutral.jpg (Case Conflict 1)'
p799
I55
tp800
g10
s(S'/home/clayton/grive/pics/0w656B02A8-518C-90F3-7234-38211A0CD399.jpg'
p801
I39
tp802
g40
s(S'/home/clayton/grive/pics/2KuoGlassesAngry.jpg'
p803
I77
tp804
g20
s(S'/home/clayton/grive/pics/6w66F66B26-FBE8-A425-CDA6-D0273FBE14F2.jpg'
p805
I49
tp806
g10
s(S'/home/clayton/grive/pics/3w2EF2AD95-51F3-FC29-E168-F00CBA1039A6.jpg'
p807
I13
tp808
g3
s(S'/home/clayton/grive/pics/6wA17C2882-CBD3-D872-556E-45F7E2047628.jpg'
p809
I7
tp810
g43
s(g230
I5
tp811
g3
s(S'/home/clayton/grive/pics/4wE953282F-1713-2679-406D-285C8932B012.jpg'
p812
I11
tp813
g3
s(S'/home/clayton/grive/pics/5w62D19778-1AA6-13C2-004F-389AF747333D.jpg'
p814
I33
tp815
g10
s(S'/home/clayton/grive/pics/5w0D1FB1C2-D30A-E25F-2EBB-27E9151B697F.jpg'
p816
I23
tp817
g43
s(S'/home/clayton/grive/pics/5wE0F39B0C-94A5-8BD4-61A2-EFE587012FA0.jpg'
p818
I13
tp819
g43
s(S'/home/clayton/grive/pics/1wD2C8420A-CA69-4783-1899-278856A49F4B.jpg'
p820
I29
tp821
g20
s(S'/home/clayton/grive/pics/6w01343164-B10C-A805-EF2F-2D0A02E780D0.jpg'
p822
I92
tp823
g10
s(S'/home/clayton/grive/pics/6m9660a96e-a888-40cd-b380-7d3761693c17.jpg'
p824
I87
tp825
g10
s(S'/home/clayton/grive/pics/4wD445B589-5883-3783-A84A-29622D8DBC8C.jpg'
p826
I72
tp827
g20
s(S'/home/clayton/grive/pics/6wE579115D-288C-F313-6988-EFDB2EB5D4BF.jpg'
p828
I20
tp829
g43
s(S'/home/clayton/grive/pics/1m6ce740af-da51-4c19-92ce-7b9d9adba5fe.jpg'
p830
I17
tp831
g3
s(S'/home/clayton/grive/pics/4w39D34F71-9398-68F2-4F8C-F0102C7A0F3C.jpg'
p832
I13
tp833
g20
s(S'/home/clayton/grive/pics/3wB7907848-2DA7-2CBC-9171-46E1D7C304D7.jpg'
p834
I21
tp835
g20
s(S'/home/clayton/grive/pics/1wF9A08F82-E468-659D-6E2A-4649DD6662AF.jpg'
p836
I37
tp837
g3
s(S'/home/clayton/grive/pics/2wEE5485BA-9F02-B81F-7B8A-D865E20BE312.jpg'
p838
I73
tp839
g20
s(S'/home/clayton/grive/pics/6wE0CA5A8E-D4F8-F93F-8845-CD71832C5BEC.jpg'
p840
I92
tp841
g10
s(S'/home/clayton/grive/pics/5wBE6C87EF-3D62-189A-34DB-33F0A359A14F.jpg'
p842
I15
tp843
g43
s(S'/home/clayton/grive/pics/3wA186136D-64B7-7288-372F-3843E2F6EAC4.jpg'
p844
I41
tp845
g20
s(S'/home/clayton/grive/pics/2maa24e3dd-73b7-43bb-9668-26cf6b146f58.jpg'
p846
I60
tp847
g20
s(S'/home/clayton/grive/pics/4w8772ED2F-20D8-F4F8-64C1-EFFBA3790753.jpg'
p848
I66
tp849
g3
s(S'/home/clayton/grive/pics/2wE1F57AF5-064C-9BD6-AE25-F007E6803651.jpg'
p850
I63
tp851
g3
s(S'/home/clayton/grive/pics/5wE0CA5A8E-D4F8-F93F-8845-CD71832C5BEC.jpg'
p852
I83
tp853
g10
s(S'/home/clayton/grive/pics/2m81793c88-5a77-4c1a-96b9-19113f792758.jpg'
p854
I42
tp855
g20
s(S'/home/clayton/grive/pics/6wAC2868E4-B636-2A84-4932-D85F939963F1.jpg'
p856
I53
tp857
g10
s(S'/home/clayton/grive/pics/1w04AB60B8-053D-0086-A395-4698C6ECDA34.jpg'
p858
I54
tp859
g3
s(S'/home/clayton/grive/pics/4mbb625c3c-721b-4e37-9aa1-68684b210046.jpg'
p860
I32
tp861
g20
s(S'/home/clayton/grive/pics/5wCFBE9FE8-526E-B206-585D-7A9FA92FD844.jpg'
p862
I71
tp863
g10
s(S'/home/clayton/grive/pics/5m5b216672-8484-4348-b9ab-3f0437fe53dc.jpg'
p864
I25
tp865
g10
s(S'/home/clayton/grive/pics/5w503AB7EB-1816-0B00-1966-EFEA502B0E95.jpg'
p866
I5
tp867
g43
s(S'/home/clayton/grive/pics/6w45F00E26-EEF8-ADBC-B511-379A0FB86DFF.jpg'
p868
I9
tp869
g10
s(S'/home/clayton/grive/pics/1wD6ABCA51-AA30-AB83-36E3-3D933B925793.jpg'
p870
I4
tp871
g20
s(S'/home/clayton/grive/pics/5wAC2868E4-B636-2A84-4932-D85F939963F1.jpg'
p872
I52
tp873
g10
s(S'/home/clayton/grive/pics/0wB327C73A-CBE4-4E6F-85BE-37EFF9F68B2E.jpg'
p874
I24
tp875
g40
s(S'/home/clayton/grive/pics/2wB6B835B5-9521-A5DD-61B1-F009B95FB653.jpg'
p876
I32
tp877
g20
s(S'/home/clayton/grive/pics/2w75A71932-7631-6493-AA4D-CD72B83F1138.jpg'
p878
I97
tp879
g20
s(g112
I7
tp880
g3
s(S'/home/clayton/grive/pics/5wF81457BB-C846-A3E9-4C02-DD6128BED15B.jpg'
p881
I135
tp882
g10
s(S'/home/clayton/grive/pics/6wF7EB9296-7FE8-1C37-2486-4CDB6B286E59.jpg'
p883
I74
tp884
g10
s(S'/home/clayton/grive/pics/2w9CF2D657-F38A-A867-1844-64AF3A43DEAA.jpg'
p885
I29
tp886
g20
s(g629
I5
tp887
g3
s(S'/home/clayton/grive/pics/3m9340b0af-fe78-4190-bcf7-13abbdf650b9.jpg'
p888
I5
tp889
g3
s(S'/home/clayton/grive/pics/3wE953282F-1713-2679-406D-285C8932B012.jpg'
p890
I21
tp891
g3
s(S'/home/clayton/grive/pics/2mee953784-3873-4738-a45f-15bf2d546bdf.jpg'
p892
I16
tp893
g20
s(S'/home/clayton/grive/pics/3wA78D46C1-F503-3E91-F99D-6B2FA22B3D14.jpg'
p894
I11
tp895
g3
s(S'/home/clayton/grive/pics/3w9E129634-2C33-C86B-30F7-6B6F8AB2AF22.jpg'
p896
I42
tp897
g20
s(S'/home/clayton/grive/pics/4wFA3A2A73-D799-1F82-B7C9-6B922E50F6D3.jpg'
p898
I53
tp899
g3
s(S'/home/clayton/grive/pics/1md4bfe2ba-2af3-4f65-822b-b1f180ce52a1.jpg'
p900
I14
tp901
g20
s(S'/home/clayton/grive/pics/2w157643A0-E4FE-5F90-C9B1-465764731874.jpg'
p902
I7
tp903
g20
s(S'/home/clayton/grive/pics/3w90056D7B-4D04-567E-6142-F00A0A0CACCC.jpg'
p904
I31
tp905
g20
s(S'/home/clayton/grive/pics/4w233E62AD-7E9F-FF61-F5E5-EFFC288A76F9.jpg'
p906
I44
tp907
g3
s(S'/home/clayton/grive/pics/3w88F7430E-6DC5-7C09-D0EC-EFF12BB629CC.jpg'
p908
I9
tp909
g20
s(S'/home/clayton/grive/pics/2wF60A9437-78B3-BDE2-BCD1-EFFEB41D538F.jpg'
p910
I52
tp911
g20
s(S'/home/clayton/grive/pics/0w4123FC40-659C-BBF1-A29E-29652EC92828.jpg'
p912
I15
tp913
g15
s(S'/home/clayton/grive/pics/3w44B9D53B-EC71-47ED-AF85-EFEBF9C330AB.jpg'
p914
I5
tp915
g20
s(S'/home/clayton/grive/pics/3m8e9ff3d6-a4ff-4675-848b-314010102ee8.jpg'
p916
I48
tp917
g3
s(S'/home/clayton/grive/pics/1wB7907848-2DA7-2CBC-9171-46E1D7C304D7.jpg'
p918
I30
tp919
g3
s(S'/home/clayton/grive/pics/6wD2C8420A-CA69-4783-1899-278856A49F4B.jpg'
p920
I31
tp921
g10
s(g312
I64
tp922
g20
s(S'/home/clayton/grive/pics/5wD7662DB4-ED2D-0E94-3A81-F002716EC18A.jpg'
p923
I30
tp924
g10
s(S'/home/clayton/grive/pics/4w2B02DD01-5BAB-ABA0-2EAF-3833D439A739.jpg'
p925
I121
tp926
g20
s(S'/home/clayton/grive/pics/3w3F606B5D-77FB-F545-EEF4-36CCC8791888.jpg'
p927
I35
tp928
g3
s(S'/home/clayton/grive/pics/3w8039E961-EE34-7805-4B54-D80D2BE38F57.jpg'
p929
I41
tp930
g20
s(S'/home/clayton/grive/pics/3wCFBE9FE8-526E-B206-585D-7A9FA92FD844.jpg'
p931
I57
tp932
g20
s(g324
I19
tp933
g43
s(S'/home/clayton/grive/pics/4mfeef873d-a3d3-409a-b559-85c7ecff3bba.jpg'
p934
I26
tp935
g3
s(g374
I43
tp936
g20
s(S'/home/clayton/grive/pics/3m158a7b3d-0ea7-4403-ba3e-16b56aaa4db0.jpg'
p937
I51
tp938
g20
s(S'/home/clayton/grive/pics/0wF9371CDA-417F-992A-A6BC-DD6373EF9014.jpg'
p939
I25
tp940
g37
s(S'/home/clayton/grive/pics/0w809F0A15-03D4-873B-62D0-6B3146FEE7CF.jpg'
p941
I67
tp942
g40
s(S'/home/clayton/grive/pics/3wAC2868E4-B636-2A84-4932-D85F939963F1.jpg'
p943
I46
tp944
g20
s(S'/home/clayton/grive/pics/6m58c6be84-7243-4efb-b579-ce026defc3d2.jpg'
p945
I37
tp946
g10
s(S'/home/clayton/grive/pics/6wF60A9437-78B3-BDE2-BCD1-EFFEB41D538F.jpg'
p947
I49
tp948
g10
s(S'/home/clayton/grive/pics/1wC0CB773B-9791-D38C-9E93-EFFCB6A4A241.jpg'
p949
I6
tp950
g3
s(S'/home/clayton/grive/pics/1wD9E9B0A8-7D98-A0F3-9A06-37ECA03E6425.jpg'
p951
I52
tp952
g3
s(S'/home/clayton/grive/pics/4w88F7430E-6DC5-7C09-D0EC-EFF12BB629CC.jpg'
p953
I6
tp954
g20
s(S'/home/clayton/grive/pics/3wE579115D-288C-F313-6988-EFDB2EB5D4BF.jpg'
p955
I13
tp956
g3
s(S'/home/clayton/grive/pics/6w7E85E5B5-F196-987E-51DD-2EC43C62E76D.jpg'
p957
I73
tp958
g10
s(S'/home/clayton/grive/pics/0wCDB694D9-BD6D-9794-0202-EFEF6E711F61.jpg'
p959
I36
tp960
g40
s(S'/home/clayton/grive/pics/2wD445B589-5883-3783-A84A-29622D8DBC8C.jpg'
p961
I78
tp962
g20
s(S'/home/clayton/grive/pics/6wD9E9B0A8-7D98-A0F3-9A06-37ECA03E6425.jpg'
p963
I45
tp964
g10
s(S'/home/clayton/grive/pics/6w6B887E6C-D9CE-E590-E3F0-6B34BF5BA23A.jpg'
p965
I28
tp966
g10
s(S'/home/clayton/grive/pics/3wC0CB773B-9791-D38C-9E93-EFFCB6A4A241.jpg'
p967
I34
tp968
g3
s(S'/home/clayton/grive/pics/5wEED45041-BE05-1F78-5044-2EF641914EDD.jpg'
p969
I86
tp970
g10
s(S'/home/clayton/grive/pics/4scared54.jpg'
p971
I48
tp972
g3
s(S'/home/clayton/grive/pics/1wAF00C89F-447F-4CD2-7885-EFFB17DF9144.jpg'
p973
I46
tp974
g3
s(S'/home/clayton/grive/pics/0w038FF51B-B514-1E4A-1F79-37ACE961D312.jpg'
p975
I50
tp976
g40
s(S'/home/clayton/grive/pics/5mc2d2626e-bc27-4876-975b-5ee13733ad4e.jpg'
p977
I22
tp978
g43
s(g775
I4
tp979
g15
s(S'/home/clayton/grive/pics/6w9142C5B8-00C3-B41B-B5F7-7B04092215BC.jpg'
p980
I12
tp981
g10
s(S'/home/clayton/grive/pics/3w3D74C8C9-3DC1-0E0C-4327-4CE1A9A76C25.jpg'
p982
I102
tp983
g20
s(S'/home/clayton/grive/pics/0wF9A08F82-E468-659D-6E2A-4649DD6662AF.jpg'
p984
I30
tp985
g40
s(g752
I5
tp986
g43
s(S'/home/clayton/grive/pics/2wF6EF8C51-B792-9FCF-687D-3333BA797012.jpg'
p987
I26
tp988
g20
s(S'/home/clayton/grive/pics/3m6ce740af-da51-4c19-92ce-7b9d9adba5fe.jpg'
p989
I26
tp990
g20
s(S'/home/clayton/grive/pics/1w4A42FC32-7901-26E1-A91B-33331AA34C92.jpg'
p991
I13
tp992
g20
s(g943
I14
tp993
g20
s(S'/home/clayton/grive/pics/0w886BDA22-A149-C817-238D-EFF0E2A9992C.jpg'
p994
I6
tp995
g37
s(S'/home/clayton/grive/pics/1wC89E1EA6-6B03-0107-19C6-312038C89CA1.jpg'
p996
I67
tp997
g20
s(S'/home/clayton/grive/pics/3w12EC627A-1192-EC96-EEC9-489DEAE24E0B.jpg'
p998
I59
tp999
g20
s(S'/home/clayton/grive/pics/0wD4EB92C9-4F2D-BEA4-25DD-EFD882F1442E.jpg'
p1000
I14
tp1001
g40
s(S'/home/clayton/grive/pics/0w2FF168A3-54B0-C7D9-47C9-37FA318D713D.jpg'
p1002
I17
tp1003
g40
s(S'/home/clayton/grive/pics/5wB7455899-8A91-0D14-67FB-3326BB8944DD.jpg'
p1004
I17
tp1005
g10
s(S'/home/clayton/grive/pics/3w79B28E67-96B7-EB0D-9A75-EFFEDB8F577D.jpg'
p1006
I36
tp1007
g3
s(S'/home/clayton/grive/pics/1wDF2DC2D6-F1E3-1B71-20E2-467A671A3D60.jpg'
p1008
I26
tp1009
g20
s(S'/home/clayton/grive/pics/0m89be575f-50b5-4d23-b6d7-940a46e9c030.jpg'
p1010
I42
tp1011
g40
s(S'/home/clayton/grive/pics/3w837D0871-935B-7E8E-A689-F00B320588E7.jpg'
p1012
I20
tp1013
g3
s(S'/home/clayton/grive/pics/1wCFA8B97D-34BA-E8E4-129F-F00C349D4184.jpg'
p1014
I30
tp1015
g20
s(S'/home/clayton/grive/pics/1w837D0871-935B-7E8E-A689-F00B320588E7.jpg'
p1016
I8
tp1017
g3
s(S'/home/clayton/grive/pics/3w04AB60B8-053D-0086-A395-4698C6ECDA34.jpg'
p1018
I32
tp1019
g20
s(S'/home/clayton/grive/pics/0wAF00C89F-447F-4CD2-7885-EFFB17DF9144.jpg'
p1020
I28
tp1021
g40
s(g530
I8
tp1022
g43
s(S'/home/clayton/grive/pics/2w886BDA22-A149-C817-238D-EFF0E2A9992C.jpg'
p1023
I54
tp1024
g20
s(S'/home/clayton/grive/pics/6wC0CB773B-9791-D38C-9E93-EFFCB6A4A241.jpg'
p1025
I46
tp1026
g10
s(S'/home/clayton/grive/pics/2wC0CB773B-9791-D38C-9E93-EFFCB6A4A241.jpg'
p1027
I13
tp1028
g3
s(S'/home/clayton/grive/pics/0Happy.jpg (Case Conflict 2)'
p1029
I67
tp1030
g40
s(S'/home/clayton/grive/pics/5wF7EB9296-7FE8-1C37-2486-4CDB6B286E59.jpg'
p1031
I59
tp1032
g10
s(S'/home/clayton/grive/pics/3wD61ACB92-52ED-6679-0D80-38A0B91ACF94.jpg'
p1033
I41
tp1034
g20
s(S'/home/clayton/grive/pics/6w038FF51B-B514-1E4A-1F79-37ACE961D312.jpg'
p1035
I45
tp1036
g10
s(S'/home/clayton/grive/pics/3wD5BE1562-F05B-1AA8-6290-37EE9C424B0E.jpg'
p1037
I26
tp1038
g20
s(S'/home/clayton/grive/pics/4-Scared.JPG'
p1039
I8
tp1040
g3
s(S'/home/clayton/grive/pics/1wD61ACB92-52ED-6679-0D80-38A0B91ACF94.jpg'
p1041
I64
tp1042
g20
s(S'/home/clayton/grive/pics/2wE7D19A4A-E34F-1A45-F7A2-EFF5B26C785E.jpg'
p1043
I10
tp1044
g3
s(S'/home/clayton/grive/pics/5ma066d0c9-b62d-47e2-aba9-89f5120f6750.jpg'
p1045
I40
tp1046
g10
s(S'/home/clayton/grive/pics/0happy5.JPG'
p1047
I98
tp1048
g40
s(S'/home/clayton/grive/pics/6w837D0871-935B-7E8E-A689-F00B320588E7.jpg'
p1049
I36
tp1050
g10
s(S'/home/clayton/grive/pics/0w1F9D7616-B031-13BA-2CF1-332BB1E15DC2.jpg'
p1051
I94
tp1052
g40
s(S'/home/clayton/grive/pics/0m040789e6-8b61-484e-b935-203eeeaf5a7f.jpg'
p1053
I79
tp1054
g40
s(S'/home/clayton/grive/pics/6wEBD68548-E683-453C-76FA-387540224631.jpg'
p1055
I47
tp1056
g10
s(g186
I4
tp1057
g3
s(S'/home/clayton/grive/pics/3w157643A0-E4FE-5F90-C9B1-465764731874.jpg'
p1058
I10
tp1059
g20
s(S'/home/clayton/grive/pics/1wC8D3294A-B9A8-6A3A-8331-465651FB65F4.jpg'
p1060
I72
tp1061
g20
s(S'/home/clayton/grive/pics/6w649F4C25-595D-5383-9B2D-F0041EC3CC63.jpg'
p1062
I23
tp1063
g10
s(S'/home/clayton/grive/pics/1md6e113df-509f-49d9-b0c7-905e86cc5df3.jpg'
p1064
I46
tp1065
g3
s(S'/home/clayton/grive/pics/0wCC78F689-E22B-23A4-2B55-3336F8A9B35C.jpg'
p1066
I53
tp1067
g40
s(S'/home/clayton/grive/pics/0wEED45041-BE05-1F78-5044-2EF641914EDD.jpg'
p1068
I85
tp1069
g40
s(S'/home/clayton/grive/pics/6wCFBE9FE8-526E-B206-585D-7A9FA92FD844.jpg'
p1070
I59
tp1071
g10
s(S'/home/clayton/grive/pics/0wB6C4A128-3361-C2D2-A951-EFEBA8C4F0EA.jpg'
p1072
I17
tp1073
g37
s(S'/home/clayton/grive/pics/0wD6ABCA51-AA30-AB83-36E3-3D933B925793.jpg'
p1074
I9
tp1075
g37
s(S'/home/clayton/grive/pics/0w0C837C12-99DE-6798-DCC0-6B372D9B14DF.jpg'
p1076
I80
tp1077
g40
s(g639
I15
tp1078
g20
s(S'/home/clayton/grive/pics/0md6e113df-509f-49d9-b0c7-905e86cc5df3.jpg'
p1079
I4
tp1080
g15
s(S'/home/clayton/grive/pics/1wB6C4A128-3361-C2D2-A951-EFEBA8C4F0EA.jpg'
p1081
I44
tp1082
g3
s(S'/home/clayton/grive/pics/0wEBD68548-E683-453C-76FA-387540224631.jpg'
p1083
I33
tp1084
g40
s(g344
I5
tp1085
g15
s(S'/home/clayton/grive/pics/1wCADCAECA-D3E7-342A-07FA-4652ED88FBA9.jpg'
p1086
I14
tp1087
g3
s(g1053
I5
tp1088
g15
s(S'/home/clayton/grive/pics/6wF6EF8C51-B792-9FCF-687D-3333BA797012.jpg'
p1089
I30
tp1090
g10
s(S'/home/clayton/grive/pics/4w30492B57-425C-19D5-B21A-38A9A06B20F8.jpg'
p1091
I38
tp1092
g20
s(S'/home/clayton/grive/pics/6wFA3A2A73-D799-1F82-B7C9-6B922E50F6D3.jpg'
p1093
I57
tp1094
g10
s(S'/home/clayton/grive/pics/4wCFBE9FE8-526E-B206-585D-7A9FA92FD844.jpg'
p1095
I60
tp1096
g20
s(S'/home/clayton/grive/pics/5w30492B57-425C-19D5-B21A-38A9A06B20F8.jpg'
p1097
I18
tp1098
g10
s(S'/home/clayton/grive/pics/5m139a1aec-0c0b-440d-8a6c-7d5c8598259c.jpg'
p1099
I48
tp1100
g10
s(S'/home/clayton/grive/pics/1w3ED8AF10-C2CD-9852-6CD0-4B1889141529.jpg'
p1101
I19
tp1102
g3
s(S'/home/clayton/grive/pics/6mbfafedbe-f2cf-4c12-b287-c50e7850c5eb.jpg'
p1103
I41
tp1104
g10
s(g4
I23
tp1105
g3
s(S'/home/clayton/grive/pics/1w0D1FB1C2-D30A-E25F-2EBB-27E9151B697F.jpg'
p1106
I15
tp1107
g3
s(S'/home/clayton/grive/pics/3w5465E952-2333-F4F0-922E-D82211FE562D.jpg'
p1108
I44
tp1109
g3
s(S'/home/clayton/grive/pics/1w24FD90A0-B0EF-2E69-7527-48907DFAB4FA.jpg'
p1110
I18
tp1111
g20
s(S'/home/clayton/grive/pics/3w7F7338BC-E565-8DED-FB80-46627677A6C7.jpg'
p1112
I66
tp1113
g3
s(S'/home/clayton/grive/pics/1w0A63D31C-0B59-BFF2-4F27-46B385316AD7.jpg'
p1114
I34
tp1115
g3
s(S'/home/clayton/grive/pics/2w57166D0D-8403-104C-6BEA-2F07DBC2E389.jpg'
p1116
I43
tp1117
g20
s(S'/home/clayton/grive/pics/4wDF2DC2D6-F1E3-1B71-20E2-467A671A3D60.jpg'
p1118
I5
tp1119
g3
s(S'/home/clayton/grive/pics/1w3AC58273-1249-F4C2-3A1C-289D10094EB9.jpg'
p1120
I109
tp1121
g20
s(S'/home/clayton/grive/pics/2w90056D7B-4D04-567E-6142-F00A0A0CACCC.jpg'
p1122
I33
tp1123
g20
s(S'/home/clayton/grive/pics/0wC8D3294A-B9A8-6A3A-8331-465651FB65F4.jpg'
p1124
I74
tp1125
g40
s(g1
I4
tp1126
g3
s(S'/home/clayton/grive/pics/0wD9E9B0A8-7D98-A0F3-9A06-37ECA03E6425.jpg'
p1127
I34
tp1128
g40
s(S'/home/clayton/grive/pics/2wCDB694D9-BD6D-9794-0202-EFEF6E711F61.jpg'
p1129
I44
tp1130
g20
s(S'/home/clayton/grive/pics/5w39D34F71-9398-68F2-4F8C-F0102C7A0F3C.jpg'
p1131
I7
tp1132
g43
s(S'/home/clayton/grive/pics/0m709ed245-1794-48b2-99f4-73cae971abbf.jpg'
p1133
I6
tp1134
g15
s(S'/home/clayton/grive/pics/0m81793c88-5a77-4c1a-96b9-19113f792758.jpg'
p1135
I6
tp1136
g15
s(S'/home/clayton/grive/pics/2wE0CA5A8E-D4F8-F93F-8845-CD71832C5BEC.jpg'
p1137
I97
tp1138
g20
s(S'/home/clayton/grive/pics/4m18d993d2-3c00-433c-8be0-d106d508d053.jpg'
p1139
I8
tp1140
g3
s(S'/home/clayton/grive/pics/3wEE5485BA-9F02-B81F-7B8A-D865E20BE312.jpg'
p1141
I25
tp1142
g3
s(S'/home/clayton/grive/pics/1w2C9F8C42-E900-B747-C962-465A32A9CCE7.jpg'
p1143
I4
tp1144
g3
s(S'/home/clayton/grive/pics/0w98D0D5C2-5A24-77C4-893C-389C780B22BF.jpg'
p1145
I53
tp1146
g40
s(S'/home/clayton/grive/pics/5wCC78F689-E22B-23A4-2B55-3336F8A9B35C.jpg'
p1147
I35
tp1148
g10
s(S'/home/clayton/grive/pics/4wC8D3294A-B9A8-6A3A-8331-465651FB65F4.jpg'
p1149
I85
tp1150
g20
s(g675
I4
tp1151
g15
s(S'/home/clayton/grive/pics/2m6b79eaeb-1360-4503-88c4-d37bedee7440.jpg'
p1152
I37
tp1153
g20
s(S'/home/clayton/grive/pics/2w24FD90A0-B0EF-2E69-7527-48907DFAB4FA.jpg'
p1154
I34
tp1155
g3
s(S'/home/clayton/grive/pics/3me82712a5-8b59-464a-b0fd-d3578d4e83b3.jpg'
p1156
I23
tp1157
g20
s(g912
I49
tp1158
g40
s(S'/home/clayton/grive/pics/4wEFC295BD-AB8D-C93F-1AEF-332E960B6391.jpg'
p1159
I27
tp1160
g3
s(S'/home/clayton/grive/pics/4w0C837C12-99DE-6798-DCC0-6B372D9B14DF.jpg'
p1161
I78
tp1162
g20
s(S'/home/clayton/grive/pics/2wB327C73A-CBE4-4E6F-85BE-37EFF9F68B2E.jpg'
p1163
I4
tp1164
g3
s(S'/home/clayton/grive/pics/1wE579115D-288C-F313-6988-EFDB2EB5D4BF.jpg'
p1165
I16
tp1166
g20
s(S'/home/clayton/grive/pics/4m3489e795-35d9-4bc6-83c2-0b80c5b780ea.jpg'
p1167
I10
tp1168
g20
s(S'/home/clayton/grive/pics/2wF7EB9296-7FE8-1C37-2486-4CDB6B286E59.jpg'
p1169
I64
tp1170
g20
s(g872
I64
tp1171
g10
s(S'/home/clayton/grive/pics/5wD174FE9B-6632-6EBB-E135-9EFF44352093.jpg'
p1172
I81
tp1173
g10
s(S'/home/clayton/grive/pics/2wD2C8420A-CA69-4783-1899-278856A49F4B.jpg'
p1174
I27
tp1175
g20
s(S'/home/clayton/grive/pics/3w7F2BE16D-8A7C-F883-8CFE-EFF8C9D10E88.jpg'
p1176
I18
tp1177
g20
s(S'/home/clayton/grive/pics/4wB75D3F87-A36C-1CFC-5730-28E28C577A75.jpg'
p1178
I68
tp1179
g3
s(S'/home/clayton/grive/pics/6wAEFC7C09-CD73-3B8E-A369-7AFA0E31AF3D.jpg'
p1180
I33
tp1181
g10
s(S'/home/clayton/grive/pics/4w5F94C6B9-8556-11D3-8267-EFFDD1F1CD4B.jpg'
p1182
I50
tp1183
g20
s(S'/home/clayton/grive/pics/1wD18772FE-63EF-7FDC-EF9A-F00545998FBB.jpg'
p1184
I4
tp1185
g20
s(g732
I50
tp1186
g43
s(S'/home/clayton/grive/pics/3w0D06F3B2-6808-7A67-1A70-EFE381C4F509.jpg'
p1187
I8
tp1188
g3
s(S'/home/clayton/grive/pics/6wB7907848-2DA7-2CBC-9171-46E1D7C304D7.jpg'
p1189
I37
tp1190
g10
s(S'/home/clayton/grive/pics/6mfeef873d-a3d3-409a-b559-85c7ecff3bba.jpg'
p1191
I15
tp1192
g10
s(S'/home/clayton/grive/pics/4m158a7b3d-0ea7-4403-ba3e-16b56aaa4db0.jpg'
p1193
I48
tp1194
g20
s(S'/home/clayton/grive/pics/4w8C431FA1-7A06-58B5-4FDB-EFF2BCDEFC0C.jpg'
p1195
I13
tp1196
g3
s(S'/home/clayton/grive/pics/3wE1F57AF5-064C-9BD6-AE25-F007E6803651.jpg'
p1197
I49
tp1198
g3
s(S'/home/clayton/grive/pics/6w79B28E67-96B7-EB0D-9A75-EFFEDB8F577D.jpg'
p1199
I41
tp1200
g10
s(S'/home/clayton/grive/pics/1w0AAA0AC9-6F8F-E71E-133D-46E81C08DACC.jpg'
p1201
I43
tp1202
g20
s(S'/home/clayton/grive/pics/4w75A71932-7631-6493-AA4D-CD72B83F1138.jpg'
p1203
I61
tp1204
g20
s(g623
I4
tp1205
g3
s(S'/home/clayton/grive/pics/1KuoSad.jpg'
p1206
I92
tp1207
g20
s(S'/home/clayton/grive/pics/2angry1.jpg'
p1208
I62
tp1209
g20
s(S'/home/clayton/grive/pics/1wF9371CDA-417F-992A-A6BC-DD6373EF9014.jpg'
p1210
I42
tp1211
g3
s(S'/home/clayton/grive/pics/4w3ED8AF10-C2CD-9852-6CD0-4B1889141529.jpg'
p1212
I11
tp1213
g3
s(S'/home/clayton/grive/pics/1wF60A9437-78B3-BDE2-BCD1-EFFEB41D538F.jpg'
p1214
I56
tp1215
g20
s(S'/home/clayton/grive/pics/4w2FF168A3-54B0-C7D9-47C9-37FA318D713D.jpg'
p1216
I7
tp1217
g3
s(S'/home/clayton/grive/pics/2w649F4C25-595D-5383-9B2D-F0041EC3CC63.jpg'
p1218
I12
tp1219
g20
s(S'/home/clayton/grive/pics/6w7F7338BC-E565-8DED-FB80-46627677A6C7.jpg'
p1220
I86
tp1221
g10
s(S'/home/clayton/grive/pics/3w8EC27280-1A0E-1E4D-29EA-EFF6FEF7C705.jpg'
p1222
I31
tp1223
g20
s(S'/home/clayton/grive/pics/0w7B52AA0B-3547-4AAC-D109-389D5596BF39.jpg'
p1224
I34
tp1225
g40
s(g416
I4
tp1226
g20
s(S'/home/clayton/grive/pics/6m3a33b8ba-bfdc-4061-a7b3-4c7fcc6839b7.jpg'
p1227
I75
tp1228
g10
s(S'/home/clayton/grive/pics/0m4b57e50c-264c-4921-b4ca-8db06d561bcd.jpg'
p1229
I53
tp1230
g40
s(S'/home/clayton/grive/pics/2m4ed4b5c3-8594-4921-981d-970fc18d5fea.jpg'
p1231
I12
tp1232
g3
s(S'/home/clayton/grive/pics/3w9DC9791F-43FF-A0F2-136E-27278922DE8B.jpg'
p1233
I16
tp1234
g3
s(S'/home/clayton/grive/pics/0wC89E1EA6-6B03-0107-19C6-312038C89CA1.jpg'
p1235
I65
tp1236
g40
s(S'/home/clayton/grive/pics/2m38b89e01-3e85-484d-b908-782035034769.jpg'
p1237
I41
tp1238
g20
s(S'/home/clayton/grive/pics/1w9DC9791F-43FF-A0F2-136E-27278922DE8B.jpg'
p1239
I19
tp1240
g3
s(S'/home/clayton/grive/pics/0m38b89e01-3e85-484d-b908-782035034769.jpg'
p1241
I32
tp1242
g40
s(g1072
I38
tp1243
g40
s(S'/home/clayton/grive/pics/5wD61ACB92-52ED-6679-0D80-38A0B91ACF94.jpg'
p1244
I59
tp1245
g10
s(S'/home/clayton/grive/pics/0me82712a5-8b59-464a-b0fd-d3578d4e83b3.jpg'
p1246
I22
tp1247
g40
s(S'/home/clayton/grive/pics/5w547FEF42-FCBE-B966-D617-2888E39F4498.jpg'
p1248
I56
tp1249
g43
s(S'/home/clayton/grive/pics/4w9A37A263-9801-0A1A-312E-3334DD7F32AC.jpg'
p1250
I50
tp1251
g20
s(S'/home/clayton/grive/pics/0wC8A7AD15-B749-2EF7-395E-3567AFF409A3.jpg'
p1252
I46
tp1253
g40
s(S'/home/clayton/grive/pics/3wAF00C89F-447F-4CD2-7885-EFFB17DF9144.jpg'
p1254
I29
tp1255
g20
s(S'/home/clayton/grive/pics/3mbfafedbe-f2cf-4c12-b287-c50e7850c5eb.jpg'
p1256
I41
tp1257
g20
s(S'/home/clayton/grive/pics/6wA186136D-64B7-7288-372F-3843E2F6EAC4.jpg'
p1258
I58
tp1259
g10
s(S'/home/clayton/grive/pics/3wB75D3F87-A36C-1CFC-5730-28E28C577A75.jpg'
p1260
I45
tp1261
g3
s(S'/home/clayton/grive/pics/1wAE00083F-0B9D-4EED-63B7-2757C366CB50.jpg'
p1262
I70
tp1263
g20
s(g787
I50
tp1264
g40
s(S'/home/clayton/grive/pics/4wB6C4A128-3361-C2D2-A951-EFEBA8C4F0EA.jpg'
p1265
I33
tp1266
g20
s(S'/home/clayton/grive/pics/5w77C09460-F810-F1E2-D2AC-EFE8805E512A.jpg'
p1267
I5
tp1268
g43
s(S'/home/clayton/grive/pics/3w75B0A7BB-3879-FF92-CC05-37B01FC821E8.jpg'
p1269
I54
tp1270
g3
s(S'/home/clayton/grive/pics/3w86213EB0-EFE5-91A5-6308-4CE43B9C4ABB.jpg'
p1271
I55
tp1272
g20
s(S'/home/clayton/grive/pics/0m3a33b8ba-bfdc-4061-a7b3-4c7fcc6839b7.jpg'
p1273
I17
tp1274
g40
s(S'/home/clayton/grive/pics/2w2C9F8C42-E900-B747-C962-465A32A9CCE7.jpg'
p1275
I4
tp1276
g3
s(S'/home/clayton/grive/pics/1w99B8ED23-08A7-D462-5293-489B07663B77.jpg'
p1277
I63
tp1278
g20
s(S'/home/clayton/grive/pics/4w0D06F3B2-6808-7A67-1A70-EFE381C4F509.jpg'
p1279
I29
tp1280
g20
s(g1118
I43
tp1281
g3
s(S'/home/clayton/grive/pics/4w42122DD0-1D98-3417-ED3C-3CD7325AEF4E.jpg'
p1282
I43
tp1283
g20
s(S'/home/clayton/grive/pics/1w90056D7B-4D04-567E-6142-F00A0A0CACCC.jpg'
p1284
I33
tp1285
g20
s(S'/home/clayton/grive/pics/0m18d993d2-3c00-433c-8be0-d106d508d053.jpg'
p1286
I27
tp1287
g40
s(S'/home/clayton/grive/pics/4w01343164-B10C-A805-EF2F-2D0A02E780D0.jpg'
p1288
I84
tp1289
g3
s(S'/home/clayton/grive/pics/5m58c6be84-7243-4efb-b579-ce026defc3d2.jpg'
p1290
I45
tp1291
g10
s(S'/home/clayton/grive/pics/0maa24e3dd-73b7-43bb-9668-26cf6b146f58.jpg'
p1292
I49
tp1293
g40
s(S'/home/clayton/grive/pics/3wCFA8B97D-34BA-E8E4-129F-F00C349D4184.jpg'
p1294
I28
tp1295
g20
s(S'/home/clayton/grive/pics/2Angry.jpg (Case Conflict 1)'
p1296
I54
tp1297
g20
s(S'/home/clayton/grive/pics/2w9D75EFDC-3AE6-E0D7-C7F4-28316CCF01BA.jpg'
p1298
I92
tp1299
g20
s(S'/home/clayton/grive/pics/3KuoSurprised.jpg'
p1300
I95
tp1301
g20
s(S'/home/clayton/grive/pics/4w3AC58273-1249-F4C2-3A1C-289D10094EB9.jpg'
p1302
I110
tp1303
g20
s(S'/home/clayton/grive/pics/1w886BDA22-A149-C817-238D-EFF0E2A9992C.jpg'
p1304
I39
tp1305
g3
s(S'/home/clayton/grive/pics/3mc2d2626e-bc27-4876-975b-5ee13733ad4e.jpg'
p1306
I22
tp1307
g3
s(S'/home/clayton/grive/pics/1m89be575f-50b5-4d23-b6d7-940a46e9c030.jpg'
p1308
I41
tp1309
g20
s(S'/home/clayton/grive/pics/0w4A42FC32-7901-26E1-A91B-33331AA34C92.jpg'
p1310
I43
tp1311
g40
s(S'/home/clayton/grive/pics/2wAE00083F-0B9D-4EED-63B7-2757C366CB50.jpg'
p1312
I73
tp1313
g3
s(g166
I23
tp1314
g43
s(S'/home/clayton/grive/pics/3w1F9D7616-B031-13BA-2CF1-332BB1E15DC2.jpg'
p1315
I42
tp1316
g3
s(S'/home/clayton/grive/pics/0wE7D19A4A-E34F-1A45-F7A2-EFF5B26C785E.jpg'
p1317
I31
tp1318
g40
s(S'/home/clayton/grive/pics/3w7E85E5B5-F196-987E-51DD-2EC43C62E76D.jpg'
p1319
I42
tp1320
g20
s(S'/home/clayton/grive/pics/2w9FB993B7-8646-7117-CD23-27C2F4C7EC67.jpg'
p1321
I131
tp1322
g20
s(S'/home/clayton/grive/pics/6ma066d0c9-b62d-47e2-aba9-89f5120f6750.jpg'
p1323
I43
tp1324
g10
s(S'/home/clayton/grive/pics/3w0A63D31C-0B59-BFF2-4F27-46B385316AD7.jpg'
p1325
I25
tp1326
g20
s(S'/home/clayton/grive/pics/5w455E62E6-5EAF-9986-F10E-383E9405062F.jpg'
p1327
I68
tp1328
g10
s(S'/home/clayton/grive/pics/2w3D74C8C9-3DC1-0E0C-4327-4CE1A9A76C25.jpg'
p1329
I73
tp1330
g3
s(S'/home/clayton/grive/pics/1mc2d2626e-bc27-4876-975b-5ee13733ad4e.jpg'
p1331
I22
tp1332
g20
s(S'/home/clayton/grive/pics/5w5465E952-2333-F4F0-922E-D82211FE562D.jpg'
p1333
I7
tp1334
g43
s(g643
I7
tp1335
g43
s(S'/home/clayton/grive/pics/2m0792947c-37db-4047-bef9-7a582d6f6fca.jpg'
p1336
I36
tp1337
g20
s(S'/home/clayton/grive/pics/3KuoGlassesSurprised.jpg'
p1338
I75
tp1339
g20
s(S'/home/clayton/grive/pics/1wAEFC7C09-CD73-3B8E-A369-7AFA0E31AF3D.jpg'
p1340
I28
tp1341
g3
s(S'/home/clayton/grive/pics/4m38b89e01-3e85-484d-b908-782035034769.jpg'
p1342
I7
tp1343
g3
s(S'/home/clayton/grive/pics/5wEE5485BA-9F02-B81F-7B8A-D865E20BE312.jpg'
p1344
I43
tp1345
g43
s(S'/home/clayton/grive/pics/2wCB4A8AF8-BFDA-62AB-F96C-F00E4F7BFBE2.jpg'
p1346
I17
tp1347
g3
s(S'/home/clayton/grive/pics/4w9D75EFDC-3AE6-E0D7-C7F4-28316CCF01BA.jpg'
p1348
I69
tp1349
g20
s(S'/home/clayton/grive/pics/1w42122DD0-1D98-3417-ED3C-3CD7325AEF4E.jpg'
p1350
I10
tp1351
g3
s(S'/home/clayton/grive/pics/1wB6B835B5-9521-A5DD-61B1-F009B95FB653.jpg'
p1352
I37
tp1353
g20
s(S'/home/clayton/grive/pics/5w345D99A7-58C3-9A8D-4DBE-F0039637562A.jpg'
p1354
I19
tp1355
g43
s(S'/home/clayton/grive/pics/4w5F3E20F0-CA15-AB7C-C873-3329D70151F2.jpg'
p1356
I58
tp1357
g20
s(S'/home/clayton/grive/pics/6wB7455899-8A91-0D14-67FB-3326BB8944DD.jpg'
p1358
I48
tp1359
g10
s(S'/home/clayton/grive/pics/1m38b89e01-3e85-484d-b908-782035034769.jpg'
p1360
I24
tp1361
g20
s(S'/home/clayton/grive/pics/0w6583AC61-429D-C61E-715E-EFF713238241.jpg'
p1362
I19
tp1363
g40
s(S'/home/clayton/grive/pics/3w038FF51B-B514-1E4A-1F79-37ACE961D312.jpg'
p1364
I50
tp1365
g20
s(S'/home/clayton/grive/pics/4w3EC88953-2C9A-08EE-D3A5-465D5B7072D4.jpg'
p1366
I76
tp1367
g3
s(S'/home/clayton/grive/pics/1w6D8B00F1-237C-5070-C5C5-2725674902D4.jpg'
p1368
I72
tp1369
g3
s(S'/home/clayton/grive/pics/1w6B887E6C-D9CE-E590-E3F0-6B34BF5BA23A.jpg'
p1370
I21
tp1371
g20
s(S'/home/clayton/grive/pics/3w503AB7EB-1816-0B00-1966-EFEA502B0E95.jpg'
p1372
I5
tp1373
g3
s(S'/home/clayton/grive/pics/0m53633fb0-91e3-4336-8db7-0f2ed20929f7.jpg'
p1374
I42
tp1375
g40
s(g82
I6
tp1376
g20
s(S'/home/clayton/grive/pics/0wE6FF3C82-8BAF-EFF6-6F4B-F007379019E6.jpg'
p1377
I13
tp1378
g40
s(S'/home/clayton/grive/pics/6w656B02A8-518C-90F3-7234-38211A0CD399.jpg'
p1379
I55
tp1380
g10
s(S'/home/clayton/grive/pics/2w5D981B62-3BF3-3379-219B-EFF97EC7E5A0.jpg'
p1381
I63
tp1382
g20
s(S'/home/clayton/grive/pics/2w7E85E5B5-F196-987E-51DD-2EC43C62E76D.jpg'
p1383
I63
tp1384
g20
s(S'/home/clayton/grive/pics/5wE91A57C8-8766-64BA-4E1F-33C5F731BCE4.jpg'
p1385
I26
tp1386
g10
s(S'/home/clayton/grive/pics/0wD445B589-5883-3783-A84A-29622D8DBC8C.jpg'
p1387
I85
tp1388
g40
s(S'/home/clayton/grive/pics/6w75A71932-7631-6493-AA4D-CD72B83F1138.jpg'
p1389
I93
tp1390
g10
s(S'/home/clayton/grive/pics/4w2C9F8C42-E900-B747-C962-465A32A9CCE7.jpg'
p1391
I50
tp1392
g20
s(S'/home/clayton/grive/pics/1wF7EB9296-7FE8-1C37-2486-4CDB6B286E59.jpg'
p1393
I50
tp1394
g20
s(S'/home/clayton/grive/pics/3w23C4FE8C-F60F-F7A0-209F-EFEDBF964235.jpg'
p1395
I19
tp1396
g3
s(S'/home/clayton/grive/pics/6md99d5900-5461-41eb-adb1-8681a6885dc6.jpg'
p1397
I43
tp1398
g10
s(S'/home/clayton/grive/pics/5w453B0D9A-7B7C-9A9F-3D97-F00362CCA49C.jpg'
p1399
I24
tp1400
g43
s(S'/home/clayton/grive/pics/0ma066d0c9-b62d-47e2-aba9-89f5120f6750.jpg'
p1401
I33
tp1402
g40
s(S'/home/clayton/grive/pics/6wEE5FC257-9937-1847-8A4C-31E98B5E3AC3.jpg'
p1403
I14
tp1404
g43
s(S'/home/clayton/grive/pics/1w8C431FA1-7A06-58B5-4FDB-EFF2BCDEFC0C.jpg'
p1405
I14
tp1406
g3
s(g1012
I14
tp1407
g3
s(S'/home/clayton/grive/pics/1wD445B589-5883-3783-A84A-29622D8DBC8C.jpg'
p1408
I69
tp1409
g20
s(g1279
I6
tp1410
g3
s(S'/home/clayton/grive/pics/2w0AAA0AC9-6F8F-E71E-133D-46E81C08DACC.jpg'
p1411
I50
tp1412
g20
s(g1252
I9
tp1413
g37
s(S'/home/clayton/grive/pics/2wB6218480-F680-6013-04E0-38A57AE3C9A5.jpg'
p1414
I82
tp1415
g20
s(S'/home/clayton/grive/pics/1m8e9ff3d6-a4ff-4675-848b-314010102ee8.jpg'
p1416
I10
tp1417
g3
s(S'/home/clayton/grive/pics/0wB3B65A5B-6FD6-FB6B-DC2C-3797ABC3D83E.jpg'
p1418
I45
tp1419
g40
s(S'/home/clayton/grive/pics/0wE558DDB7-482D-F4EF-052D-EFE9601C0416.jpg'
p1420
I5
tp1421
g40
s(S'/home/clayton/grive/pics/2wE579115D-288C-F313-6988-EFDB2EB5D4BF.jpg'
p1422
I25
tp1423
g3
s(g1265
I12
tp1424
g3
s(S'/home/clayton/grive/pics/3m58c6be84-7243-4efb-b579-ce026defc3d2.jpg'
p1425
I33
tp1426
g3
s(S'/home/clayton/grive/pics/4w3F13F903-5652-1111-F8C4-28193F107980.jpg'
p1427
I4
tp1428
g3
s(S'/home/clayton/grive/pics/3w886BDA22-A149-C817-238D-EFF0E2A9992C.jpg'
p1429
I33
tp1430
g20
s(S'/home/clayton/grive/pics/3m5b216672-8484-4348-b9ab-3f0437fe53dc.jpg'
p1431
I34
tp1432
g3
s(g994
I40
tp1433
g40
s(g500
I31
tp1434
g10
s(g477
I67
tp1435
g20
s(S'/home/clayton/grive/pics/5w8039E961-EE34-7805-4B54-D80D2BE38F57.jpg'
p1436
I11
tp1437
g10
s(S'/home/clayton/grive/pics/6w5F3E20F0-CA15-AB7C-C873-3329D70151F2.jpg'
p1438
I55
tp1439
g43
s(S'/home/clayton/grive/pics/0w5465E952-2333-F4F0-922E-D82211FE562D.jpg'
p1440
I15
tp1441
g40
s(g781
I13
tp1442
g3
s(S'/home/clayton/grive/pics/6w0AAA0AC9-6F8F-E71E-133D-46E81C08DACC.jpg'
p1443
I34
tp1444
g10
s(S'/home/clayton/grive/pics/2w3ED8AF10-C2CD-9852-6CD0-4B1889141529.jpg'
p1445
I6
tp1446
g3
s(S'/home/clayton/grive/pics/1w23C4FE8C-F60F-F7A0-209F-EFEDBF964235.jpg'
p1447
I12
tp1448
g3
s(S'/home/clayton/grive/pics/4m3a33b8ba-bfdc-4061-a7b3-4c7fcc6839b7.jpg'
p1449
I63
tp1450
g20
s(S'/home/clayton/grive/pics/3md4bfe2ba-2af3-4f65-822b-b1f180ce52a1.jpg'
p1451
I9
tp1452
g3
s(S'/home/clayton/grive/pics/2wF9A08F82-E468-659D-6E2A-4649DD6662AF.jpg'
p1453
I43
tp1454
g20
s(S'/home/clayton/grive/pics/6wEA81AD9F-C919-7319-BDCE-333C59C6579E.jpg'
p1455
I31
tp1456
g10
s(S'/home/clayton/grive/pics/1w5F94C6B9-8556-11D3-8267-EFFDD1F1CD4B.jpg'
p1457
I40
tp1458
g20
s(S'/home/clayton/grive/pics/0wEFC295BD-AB8D-C93F-1AEF-332E960B6391.jpg'
p1459
I36
tp1460
g40
s(S'/home/clayton/grive/pics/2w0CC8EC66-FAA1-705C-0776-4AE9EA516A65.jpg'
p1461
I8
tp1462
g3
s(S'/home/clayton/grive/pics/3m57519cd1-d254-41e5-9418-09b11ad66a50.jpg'
p1463
I29
tp1464
g20
s(S'/home/clayton/grive/pics/1w12EC627A-1192-EC96-EEC9-489DEAE24E0B.jpg'
p1465
I50
tp1466
g20
s(g310
I45
tp1467
g3
s(S'/home/clayton/grive/pics/6w88F7430E-6DC5-7C09-D0EC-EFF12BB629CC.jpg'
p1468
I10
tp1469
g10
s(g809
I86
tp1470
g10
s(S'/home/clayton/grive/pics/2wA186136D-64B7-7288-372F-3843E2F6EAC4.jpg'
p1471
I60
tp1472
g20
s(S'/home/clayton/grive/pics/6w275D2B77-AD50-E6CD-0121-D80138F626AC.jpg'
p1473
I26
tp1474
g10
s(S'/home/clayton/grive/pics/4wE91A57C8-8766-64BA-4E1F-33C5F731BCE4.jpg'
p1475
I39
tp1476
g20
s(S'/home/clayton/grive/pics/0wC18279D9-47D0-4718-36BA-EFECC87D675D.jpg'
p1477
I10
tp1478
g40
s(S'/home/clayton/grive/pics/0w0A63D31C-0B59-BFF2-4F27-46B385316AD7.jpg'
p1479
I25
tp1480
g40
s(S'/home/clayton/grive/pics/3wD18772FE-63EF-7FDC-EF9A-F00545998FBB.jpg'
p1481
I5
tp1482
g3
s(g152
I4
tp1483
g3
s(S'/home/clayton/grive/pics/5m0792947c-37db-4047-bef9-7a582d6f6fca.jpg'
p1484
I14
tp1485
g10
s(g276
I7
tp1486
g3
s(S'/home/clayton/grive/pics/3wC8D3294A-B9A8-6A3A-8331-465651FB65F4.jpg'
p1487
I56
tp1488
g3
s(S'/home/clayton/grive/pics/5w90056D7B-4D04-567E-6142-F00A0A0CACCC.jpg'
p1489
I32
tp1490
g10
s(S'/home/clayton/grive/pics/5wFF66FA36-78E6-6508-EDF0-3686176BF53D.jpg'
p1491
I17
tp1492
g10
s(S'/home/clayton/grive/pics/5w809F0A15-03D4-873B-62D0-6B3146FEE7CF.jpg'
p1493
I70
tp1494
g10
s(g27
I5
tp1495
g43
s(S'/home/clayton/grive/pics/4wCC78F689-E22B-23A4-2B55-3336F8A9B35C.jpg'
p1496
I39
tp1497
g20
s(S'/home/clayton/grive/pics/6w9E129634-2C33-C86B-30F7-6B6F8AB2AF22.jpg'
p1498
I64
tp1499
g10
s(S'/home/clayton/grive/pics/2mc2d2626e-bc27-4876-975b-5ee13733ad4e.jpg'
p1500
I30
tp1501
g3
s(S'/home/clayton/grive/pics/3w99B8ED23-08A7-D462-5293-489B07663B77.jpg'
p1502
I60
tp1503
g20
s(S'/home/clayton/grive/pics/1mfdc9ff7d-8480-4e52-940b-33d65b5f09d9.jpg'
p1504
I47
tp1505
g3
s(S'/home/clayton/grive/pics/1wF51ABC70-E908-AA82-8C29-D8B59FE8C62F.jpg'
p1506
I48
tp1507
g20
s(S'/home/clayton/grive/pics/6wE1F57AF5-064C-9BD6-AE25-F007E6803651.jpg'
p1508
I42
tp1509
g10
s(S'/home/clayton/grive/pics/4w66F66B26-FBE8-A425-CDA6-D0273FBE14F2.jpg'
p1510
I51
tp1511
g3
s(S'/home/clayton/grive/pics/6wE0F39B0C-94A5-8BD4-61A2-EFE587012FA0.jpg'
p1512
I6
tp1513
g10
s(S'/home/clayton/grive/pics/0mfdc9ff7d-8480-4e52-940b-33d65b5f09d9.jpg'
p1514
I39
tp1515
g40
s(g348
I40
tp1516
g20
s(g1227
I10
tp1517
g43
s(S'/home/clayton/grive/pics/5wEE5FC257-9937-1847-8A4C-31E98B5E3AC3.jpg'
p1518
I21
tp1519
g43
s(S'/home/clayton/grive/pics/6wFF66FA36-78E6-6508-EDF0-3686176BF53D.jpg'
p1520
I17
tp1521
g10
s(S'/home/clayton/grive/pics/4m58c6be84-7243-4efb-b579-ce026defc3d2.jpg'
p1522
I23
tp1523
g20
s(S'/home/clayton/grive/pics/2wAC2868E4-B636-2A84-4932-D85F939963F1.jpg'
p1524
I85
tp1525
g20
s(S'/home/clayton/grive/pics/2m89be575f-50b5-4d23-b6d7-940a46e9c030.jpg'
p1526
I56
tp1527
g20
s(S'/home/clayton/grive/pics/2w8A998EFF-7A50-74D3-B69B-EFE0E7C90AA0.jpg'
p1528
I26
tp1529
g3
s(S'/home/clayton/grive/pics/3wBE6C87EF-3D62-189A-34DB-33F0A359A14F.jpg'
p1530
I17
tp1531
g20
s(S'/home/clayton/grive/pics/2wBE6C87EF-3D62-189A-34DB-33F0A359A14F.jpg'
p1532
I9
tp1533
g20
s(S'/home/clayton/grive/pics/4KuoScared.jpg'
p1534
I107
tp1535
g20
s(S'/home/clayton/grive/pics/5mdb7d65e0-544b-4fd9-afc4-62fe2f96b2e1.jpg'
p1536
I22
tp1537
g43
s(S'/home/clayton/grive/pics/6wB6B835B5-9521-A5DD-61B1-F009B95FB653.jpg'
p1538
I33
tp1539
g43
s(S'/home/clayton/grive/pics/4w9FB993B7-8646-7117-CD23-27C2F4C7EC67.jpg'
p1540
I122
tp1541
g20
s(S'/home/clayton/grive/pics/6wEFC295BD-AB8D-C93F-1AEF-332E960B6391.jpg'
p1542
I25
tp1543
g10
s(S'/home/clayton/grive/pics/1w9D75EFDC-3AE6-E0D7-C7F4-28316CCF01BA.jpg'
p1544
I78
tp1545
g20
s(S'/home/clayton/grive/pics/6wD445B589-5883-3783-A84A-29622D8DBC8C.jpg'
p1546
I75
tp1547
g10
s(S'/home/clayton/grive/pics/1Snapshot_20130218_5.JPG'
p1548
I53
tp1549
g20
s(S'/home/clayton/grive/pics/4w5D592E12-AEF9-B530-374E-3322B125D1A1.jpg'
p1550
I75
tp1551
g20
s(S'/home/clayton/grive/pics/1m139a1aec-0c0b-440d-8a6c-7d5c8598259c.jpg'
p1552
I34
tp1553
g20
s(S'/home/clayton/grive/pics/3w39D34F71-9398-68F2-4F8C-F0102C7A0F3C.jpg'
p1554
I23
tp1555
g3
s(S'/home/clayton/grive/pics/5w88F7430E-6DC5-7C09-D0EC-EFF12BB629CC.jpg'
p1556
I39
tp1557
g10
s(S'/home/clayton/grive/pics/5w038FF51B-B514-1E4A-1F79-37ACE961D312.jpg'
p1558
I55
tp1559
g10
s(g565
I8
tp1560
g10
s(g896
I5
tp1561
g3
s(g13
I59
tp1562
g40
s(g856
I81
tp1563
g10
s(S'/home/clayton/grive/pics/0w455E62E6-5EAF-9986-F10E-383E9405062F.jpg'
p1564
I44
tp1565
g40
s(g278
I5
tp1566
g3
s(S'/home/clayton/grive/pics/0w88F7430E-6DC5-7C09-D0EC-EFF12BB629CC.jpg'
p1567
I22
tp1568
g40
s(S'/home/clayton/grive/pics/2w4A42FC32-7901-26E1-A91B-33331AA34C92.jpg'
p1569
I26
tp1570
g20
s(S'/home/clayton/grive/pics/6w8039E961-EE34-7805-4B54-D80D2BE38F57.jpg'
p1571
I11
tp1572
g43
s(S'/home/clayton/grive/pics/5maa24e3dd-73b7-43bb-9668-26cf6b146f58.jpg'
p1573
I45
tp1574
g10
s(S'/home/clayton/grive/pics/1m9340b0af-fe78-4190-bcf7-13abbdf650b9.jpg'
p1575
I6
tp1576
g3
s(S'/home/clayton/grive/pics/1m4ed4b5c3-8594-4921-981d-970fc18d5fea.jpg'
p1577
I49
tp1578
g20
s(S'/home/clayton/grive/pics/3md99d5900-5461-41eb-adb1-8681a6885dc6.jpg'
p1579
I36
tp1580
g3
s(S'/home/clayton/grive/pics/4wF38C5939-5878-3826-255B-37EF8300E8D1.jpg'
p1581
I51
tp1582
g20
s(S'/home/clayton/grive/pics/0w9A37A263-9801-0A1A-312E-3334DD7F32AC.jpg'
p1583
I63
tp1584
g40
s(g894
I35
tp1585
g20
s(S'/home/clayton/grive/pics/1w422A3E39-00CD-54DC-F42A-332478449BD6.jpg'
p1586
I83
tp1587
g20
s(S'/home/clayton/grive/pics/1w7F7338BC-E565-8DED-FB80-46627677A6C7.jpg'
p1588
I74
tp1589
g3
s(S'/home/clayton/grive/pics/1w503AB7EB-1816-0B00-1966-EFEA502B0E95.jpg'
p1590
I5
tp1591
g20
s(g687
I42
tp1592
g40
s(g637
I10
tp1593
g43
s(S'/home/clayton/grive/pics/2w275D2B77-AD50-E6CD-0121-D80138F626AC.jpg'
p1594
I8
tp1595
g20
s(S'/home/clayton/grive/pics/0w5F3E20F0-CA15-AB7C-C873-3329D70151F2.jpg'
p1596
I38
tp1597
g40
s(S'/home/clayton/grive/pics/0happy11.JPG'
p1598
I35
tp1599
g40
s(S'/home/clayton/grive/pics/5wE579115D-288C-F313-6988-EFDB2EB5D4BF.jpg'
p1600
I12
tp1601
g43
s(S'/home/clayton/grive/pics/2w869F00B2-7F5B-6906-0CB1-EFF2FF299FD4.jpg'
p1602
I21
tp1603
g20
s(S'/home/clayton/grive/pics/1w57166D0D-8403-104C-6BEA-2F07DBC2E389.jpg'
p1604
I35
tp1605
g20
s(S'/home/clayton/grive/pics/3w01343164-B10C-A805-EF2F-2D0A02E780D0.jpg'
p1606
I55
tp1607
g20
s(g1
I11
tp1608
g3
s(g732
I7
tp1609
g43
s(S'/home/clayton/grive/pics/2wD9E9B0A8-7D98-A0F3-9A06-37ECA03E6425.jpg'
p1610
I27
tp1611
g3
s(S'/home/clayton/grive/pics/1w30492B57-425C-19D5-B21A-38A9A06B20F8.jpg'
p1612
I11
tp1613
g20
s(S'/home/clayton/grive/pics/4w649F4C25-595D-5383-9B2D-F0041EC3CC63.jpg'
p1614
I17
tp1615
g3
s(S'/home/clayton/grive/pics/2mbfafedbe-f2cf-4c12-b287-c50e7850c5eb.jpg'
p1616
I35
tp1617
g20
s(S'/home/clayton/grive/pics/6w6C9F7832-CE9D-15A0-5DA4-6B8CFF5E8490.jpg'
p1618
I73
tp1619
g10
s(S'/home/clayton/grive/pics/5w17B211E6-BF03-6BE8-3E13-EFF255F37851.jpg'
p1620
I19
tp1621
g43
s(S'/home/clayton/grive/pics/4mee953784-3873-4738-a45f-15bf2d546bdf.jpg'
p1622
I16
tp1623
g3
s(S'/home/clayton/grive/pics/4w9142C5B8-00C3-B41B-B5F7-7B04092215BC.jpg'
p1624
I13
tp1625
g3
s(S'/home/clayton/grive/pics/4w45F00E26-EEF8-ADBC-B511-379A0FB86DFF.jpg'
p1626
I13
tp1627
g20
s(g754
I6
tp1628
g3
s(S'/home/clayton/grive/pics/1wE953282F-1713-2679-406D-285C8932B012.jpg'
p1629
I11
tp1630
g3
s(g1231
I48
tp1631
g20
s(S'/home/clayton/grive/pics/5wD5BE1562-F05B-1AA8-6290-37EE9C424B0E.jpg'
p1632
I53
tp1633
g10
s(S'/home/clayton/grive/pics/3m89be575f-50b5-4d23-b6d7-940a46e9c030.jpg'
p1634
I57
tp1635
g3
s(S'/home/clayton/grive/pics/1wEE5FC257-9937-1847-8A4C-31E98B5E3AC3.jpg'
p1636
I5
tp1637
g3
s(g661
I5
tp1638
g3
s(S'/home/clayton/grive/pics/5w79D4D2F8-3794-9B73-B7D1-EFEF32720063.jpg'
p1639
I10
tp1640
g10
s(g1216
I8
tp1641
g3
s(S'/home/clayton/grive/pics/0w8039E961-EE34-7805-4B54-D80D2BE38F57.jpg'
p1642
I13
tp1643
g40
s(S'/home/clayton/grive/pics/6m6b79eaeb-1360-4503-88c4-d37bedee7440.jpg'
p1644
I31
tp1645
g10
s(S'/home/clayton/grive/pics/3wD445B589-5883-3783-A84A-29622D8DBC8C.jpg'
p1646
I74
tp1647
g3
s(S'/home/clayton/grive/pics/2Snapshot_20130218_4.JPG'
p1648
I64
tp1649
g3
s(S'/home/clayton/grive/pics/5w9142C5B8-00C3-B41B-B5F7-7B04092215BC.jpg'
p1650
I15
tp1651
g10
s(S'/home/clayton/grive/pics/6wB75D3F87-A36C-1CFC-5730-28E28C577A75.jpg'
p1652
I55
tp1653
g10
s(g793
I23
tp1654
g10
s(S'/home/clayton/grive/pics/3wB6C4A128-3361-C2D2-A951-EFEBA8C4F0EA.jpg'
p1655
I35
tp1656
g3
s(S'/home/clayton/grive/pics/6wF51ABC70-E908-AA82-8C29-D8B59FE8C62F.jpg'
p1657
I55
tp1658
g10
s(S'/home/clayton/grive/pics/2w77EDF533-C254-FD89-6404-4660A2F03302.jpg'
p1659
I9
tp1660
g3
s(S'/home/clayton/grive/pics/1wEBD68548-E683-453C-76FA-387540224631.jpg'
p1661
I5
tp1662
g3
s(S'/home/clayton/grive/pics/3w77C09460-F810-F1E2-D2AC-EFE8805E512A.jpg'
p1663
I5
tp1664
g3
s(S'/home/clayton/grive/pics/0w9E129634-2C33-C86B-30F7-6B6F8AB2AF22.jpg'
p1665
I72
tp1666
g40
s(S'/home/clayton/grive/pics/1w649F4C25-595D-5383-9B2D-F0041EC3CC63.jpg'
p1667
I9
tp1668
g20
s(S'/home/clayton/grive/pics/1w7E85E5B5-F196-987E-51DD-2EC43C62E76D.jpg'
p1669
I61
tp1670
g20
s(S'/home/clayton/grive/pics/2w1DA4F3B0-46AF-07D5-6E56-2A8D17618C41.jpg'
p1671
I59
tp1672
g20
s(S'/home/clayton/grive/pics/5wCFA8B97D-34BA-E8E4-129F-F00C349D4184.jpg'
p1673
I39
tp1674
g10
s(S'/home/clayton/grive/pics/5wCB4A8AF8-BFDA-62AB-F96C-F00E4F7BFBE2.jpg'
p1675
I11
tp1676
g43
s(S'/home/clayton/grive/pics/5m9340b0af-fe78-4190-bcf7-13abbdf650b9.jpg'
p1677
I6
tp1678
g43
s(S'/home/clayton/grive/pics/1m6b79eaeb-1360-4503-88c4-d37bedee7440.jpg'
p1679
I24
tp1680
g20
s(S'/home/clayton/grive/pics/5wC0CB773B-9791-D38C-9E93-EFFCB6A4A241.jpg'
p1681
I59
tp1682
g10
s(S'/home/clayton/grive/pics/0mfeef873d-a3d3-409a-b559-85c7ecff3bba.jpg'
p1683
I39
tp1684
g40
s(S'/home/clayton/grive/pics/4w453B0D9A-7B7C-9A9F-3D97-F00362CCA49C.jpg'
p1685
I32
tp1686
g20
s(S'/home/clayton/grive/pics/4wA186136D-64B7-7288-372F-3843E2F6EAC4.jpg'
p1687
I60
tp1688
g20
s(S'/home/clayton/grive/pics/3m6b79eaeb-1360-4503-88c4-d37bedee7440.jpg'
p1689
I5
tp1690
g3
s(S'/home/clayton/grive/pics/3wD4EB92C9-4F2D-BEA4-25DD-EFD882F1442E.jpg'
p1691
I8
tp1692
g20
s(g703
I4
tp1693
g3
s(g62
I14
tp1694
g3
s(S'/home/clayton/grive/pics/3wEFC295BD-AB8D-C93F-1AEF-332E960B6391.jpg'
p1695
I23
tp1696
g3
s(S'/home/clayton/grive/pics/6wF38C5939-5878-3826-255B-37EF8300E8D1.jpg'
p1697
I47
tp1698
g10
s(S'/home/clayton/grive/pics/1md99d5900-5461-41eb-adb1-8681a6885dc6.jpg'
p1699
I60
tp1700
g20
s(S'/home/clayton/grive/pics/3Snapshot_20130218_3.JPG'
p1701
I42
tp1702
g20
s(S'/home/clayton/grive/pics/5w86213EB0-EFE5-91A5-6308-4CE43B9C4ABB.jpg'
p1703
I56
tp1704
g10
s(S'/home/clayton/grive/pics/5w0C837C12-99DE-6798-DCC0-6B372D9B14DF.jpg'
p1705
I70
tp1706
g43
s(S'/home/clayton/grive/pics/5wEFC295BD-AB8D-C93F-1AEF-332E960B6391.jpg'
p1707
I24
tp1708
g10
s(S'/home/clayton/grive/pics/2w30492B57-425C-19D5-B21A-38A9A06B20F8.jpg'
p1709
I29
tp1710
g20
s(S'/home/clayton/grive/pics/6w04AB60B8-053D-0086-A395-4698C6ECDA34.jpg'
p1711
I41
tp1712
g10
s(S'/home/clayton/grive/pics/2w1522DE41-3A6C-DEA0-CB4C-46E4E637BE61.jpg'
p1713
I5
tp1714
g3
s(g479
I16
tp1715
g3
s(S'/home/clayton/grive/pics/3m040789e6-8b61-484e-b935-203eeeaf5a7f.jpg'
p1716
I81
tp1717
g20
s(S'/home/clayton/grive/pics/2mfdc9ff7d-8480-4e52-940b-33d65b5f09d9.jpg'
p1718
I25
tp1719
g20
s(S'/home/clayton/grive/pics/0mbb625c3c-721b-4e37-9aa1-68684b210046.jpg'
p1720
I28
tp1721
g40
s(S'/home/clayton/grive/pics/3w3EC88953-2C9A-08EE-D3A5-465D5B7072D4.jpg'
p1722
I59
tp1723
g3
s(S'/home/clayton/grive/pics/2wD7662DB4-ED2D-0E94-3A81-F002716EC18A.jpg'
p1724
I36
tp1725
g20
s(g416
I5
tp1726
g3
s(S'/home/clayton/grive/pics/0w66F66B26-FBE8-A425-CDA6-D0273FBE14F2.jpg'
p1727
I36
tp1728
g40
s(S'/home/clayton/grive/pics/2md4bfe2ba-2af3-4f65-822b-b1f180ce52a1.jpg'
p1729
I27
tp1730
g20
s(S'/home/clayton/grive/pics/6w77C09460-F810-F1E2-D2AC-EFE8805E512A.jpg'
p1731
I9
tp1732
g43
s(S'/home/clayton/grive/pics/1w275D2B77-AD50-E6CD-0121-D80138F626AC.jpg'
p1733
I8
tp1734
g3
s(S'/home/clayton/grive/pics/5m3489e795-35d9-4bc6-83c2-0b80c5b780ea.jpg'
p1735
I33
tp1736
g10
s(S'/home/clayton/grive/pics/2wAEFC7C09-CD73-3B8E-A369-7AFA0E31AF3D.jpg'
p1737
I45
tp1738
g20
s(S'/home/clayton/grive/pics/1wC18279D9-47D0-4718-36BA-EFECC87D675D.jpg'
p1739
I6
tp1740
g3
s(S'/home/clayton/grive/pics/0wC0CB773B-9791-D38C-9E93-EFFCB6A4A241.jpg'
p1741
I31
tp1742
g40
s(S'/home/clayton/grive/pics/2w42122DD0-1D98-3417-ED3C-3CD7325AEF4E.jpg'
p1743
I50
tp1744
g20
s(S'/home/clayton/grive/pics/0wB7907848-2DA7-2CBC-9171-46E1D7C304D7.jpg'
p1745
I44
tp1746
g40
s(S'/home/clayton/grive/pics/4wAE00083F-0B9D-4EED-63B7-2757C366CB50.jpg'
p1747
I66
tp1748
g3
s(S'/home/clayton/grive/pics/5w2FF168A3-54B0-C7D9-47C9-37FA318D713D.jpg'
p1749
I20
tp1750
g10
s(S'/home/clayton/grive/pics/6md4bfe2ba-2af3-4f65-822b-b1f180ce52a1.jpg'
p1751
I25
tp1752
g10
s(g1218
I4
tp1753
g3
s(S'/home/clayton/grive/pics/6w2CDDD638-E92B-8EBA-60E3-F00A5BD784E3.jpg'
p1754
I27
tp1755
g10
s(S'/home/clayton/grive/pics/6w2B02DD01-5BAB-ABA0-2EAF-3833D439A739.jpg'
p1756
I129
tp1757
g10
s(S'/home/clayton/grive/pics/5wB47288D7-FAC8-1445-5B16-EFE039E4D11B.jpg'
p1758
I5
tp1759
g43
s(S'/home/clayton/grive/pics/5w1522DE41-3A6C-DEA0-CB4C-46E4E637BE61.jpg'
p1760
I30
tp1761
g43
s(S'/home/clayton/grive/pics/5w233E62AD-7E9F-FF61-F5E5-EFFC288A76F9.jpg'
p1762
I37
tp1763
g43
s(g1176
I4
tp1764
g3
s(S'/home/clayton/grive/pics/2w12EC627A-1192-EC96-EEC9-489DEAE24E0B.jpg'
p1765
I38
tp1766
g20
s(S'/home/clayton/grive/pics/6w8772ED2F-20D8-F4F8-64C1-EFFBA3790753.jpg'
p1767
I4
tp1768
g43
s(g816
I7
tp1769
g43
s(S'/home/clayton/grive/pics/6wBE6C87EF-3D62-189A-34DB-33F0A359A14F.jpg'
p1770
I10
tp1771
g10
s(S'/home/clayton/grive/pics/2wEBD68548-E683-453C-76FA-387540224631.jpg'
p1772
I4
tp1773
g3
s(g230
I48
tp1774
g3
s(S'/home/clayton/grive/pics/2w5D592E12-AEF9-B530-374E-3322B125D1A1.jpg'
p1775
I84
tp1776
g3
s(S'/home/clayton/grive/pics/6w75B0A7BB-3879-FF92-CC05-37B01FC821E8.jpg'
p1777
I50
tp1778
g10
s(S'/home/clayton/grive/pics/2m6ce740af-da51-4c19-92ce-7b9d9adba5fe.jpg'
p1779
I22
tp1780
g20
s(S'/home/clayton/grive/pics/5w99B8ED23-08A7-D462-5293-489B07663B77.jpg'
p1781
I69
tp1782
g10
s(S'/home/clayton/grive/pics/6-Neutral.JPG'
p1783
I6
tp1784
g43
s(g1317
I25
tp1785
g37
s(S'/home/clayton/grive/pics/4w7B52AA0B-3547-4AAC-D109-389D5596BF39.jpg'
p1786
I6
tp1787
g3
s(S'/home/clayton/grive/pics/1wB3B65A5B-6FD6-FB6B-DC2C-3797ABC3D83E.jpg'
p1788
I41
tp1789
g3
s(S'/home/clayton/grive/pics/2mdb7d65e0-544b-4fd9-afc4-62fe2f96b2e1.jpg'
p1790
I30
tp1791
g20
s(S'/home/clayton/grive/pics/4w514E3E36-1CFE-F72D-C4B3-EFEBDD4798A6.jpg'
p1792
I5
tp1793
g3
s(S'/home/clayton/grive/pics/2w99B8ED23-08A7-D462-5293-489B07663B77.jpg'
p1794
I38
tp1795
g20
s(S'/home/clayton/grive/pics/2w6D8B00F1-237C-5070-C5C5-2725674902D4.jpg'
p1796
I67
tp1797
g20
s(S'/home/clayton/grive/pics/0w5D981B62-3BF3-3379-219B-EFF97EC7E5A0.jpg'
p1798
I58
tp1799
g40
s(S'/home/clayton/grive/pics/6wCADCAECA-D3E7-342A-07FA-4652ED88FBA9.jpg'
p1800
I10
tp1801
g10
s(S'/home/clayton/grive/pics/4w77C09460-F810-F1E2-D2AC-EFE8805E512A.jpg'
p1802
I6
tp1803
g3
s(S'/home/clayton/grive/pics/0mdb7d65e0-544b-4fd9-afc4-62fe2f96b2e1.jpg'
p1804
I18
tp1805
g40
s(S'/home/clayton/grive/pics/5wF60A9437-78B3-BDE2-BCD1-EFFEB41D538F.jpg'
p1806
I42
tp1807
g10
s(S'/home/clayton/grive/pics/4wF7EB9296-7FE8-1C37-2486-4CDB6B286E59.jpg'
p1808
I94
tp1809
g20
s(S'/home/clayton/grive/pics/1wEA81AD9F-C919-7319-BDCE-333C59C6579E.jpg'
p1810
I28
tp1811
g20
s(S'/home/clayton/grive/pics/5w3ED8AF10-C2CD-9852-6CD0-4B1889141529.jpg'
p1812
I4
tp1813
g43
s(S'/home/clayton/grive/pics/0w7F7338BC-E565-8DED-FB80-46627677A6C7.jpg'
p1814
I72
tp1815
g40
s(S'/home/clayton/grive/pics/6mfdc9ff7d-8480-4e52-940b-33d65b5f09d9.jpg'
p1816
I48
tp1817
g10
s(S'/home/clayton/grive/pics/5w1F9D7616-B031-13BA-2CF1-332BB1E15DC2.jpg'
p1818
I66
tp1819
g10
s(g689
I4
tp1820
g43
s(S'/home/clayton/grive/pics/0md4bfe2ba-2af3-4f65-822b-b1f180ce52a1.jpg'
p1821
I17
tp1822
g40
s(S'/home/clayton/grive/pics/6w453B0D9A-7B7C-9A9F-3D97-F00362CCA49C.jpg'
p1823
I29
tp1824
g10
s(S'/home/clayton/grive/pics/5wF9A08F82-E468-659D-6E2A-4649DD6662AF.jpg'
p1825
I39
tp1826
g10
s(S'/home/clayton/grive/pics/2KuoAngry.jpg'
p1827
I127
tp1828
g20
s(S'/home/clayton/grive/pics/5w886BDA22-A149-C817-238D-EFF0E2A9992C.jpg'
p1829
I44
tp1830
g10
s(g785
I14
tp1831
g43
s(S'/home/clayton/grive/pics/6md6e113df-509f-49d9-b0c7-905e86cc5df3.jpg'
p1832
I27
tp1833
g10
s(S'/home/clayton/grive/pics/5wEBD68548-E683-453C-76FA-387540224631.jpg'
p1834
I4
tp1835
g43
s(S'/home/clayton/grive/pics/4mc2d2626e-bc27-4876-975b-5ee13733ad4e.jpg'
p1836
I20
tp1837
g20
s(S'/home/clayton/grive/pics/4w0AAA0AC9-6F8F-E71E-133D-46E81C08DACC.jpg'
p1838
I27
tp1839
g20
s(S'/home/clayton/grive/pics/5m6b79eaeb-1360-4503-88c4-d37bedee7440.jpg'
p1840
I29
tp1841
g10
s(g1783
I103
tp1842
g10
s(S'/home/clayton/grive/pics/0w2EF2AD95-51F3-FC29-E168-F00CBA1039A6.jpg'
p1843
I15
tp1844
g40
s(S'/home/clayton/grive/pics/5w70574034-301E-9568-EB56-389E0E002C5E.jpg'
p1845
I45
tp1846
g43
s(S'/home/clayton/grive/pics/5w57166D0D-8403-104C-6BEA-2F07DBC2E389.jpg'
p1847
I41
tp1848
g43
s(S'/home/clayton/grive/pics/3wEED45041-BE05-1F78-5044-2EF641914EDD.jpg'
p1849
I53
tp1850
g20
s(S'/home/clayton/grive/pics/4w656B02A8-518C-90F3-7234-38211A0CD399.jpg'
p1851
I40
tp1852
g3
s(g1163
I49
tp1853
g3
s(S'/home/clayton/grive/pics/4scared.jpg'
p1854
I64
tp1855
g20
s(S'/home/clayton/grive/pics/0mc2d2626e-bc27-4876-975b-5ee13733ad4e.jpg'
p1856
I18
tp1857
g40
s(S'/home/clayton/grive/pics/2w3F606B5D-77FB-F545-EEF4-36CCC8791888.jpg'
p1858
I6
tp1859
g3
s(S'/home/clayton/grive/pics/5w45F00E26-EEF8-ADBC-B511-379A0FB86DFF.jpg'
p1860
I13
tp1861
g10
s(S'/home/clayton/grive/pics/5wB327C73A-CBE4-4E6F-85BE-37EFF9F68B2E.jpg'
p1862
I17
tp1863
g10
s(S'/home/clayton/grive/pics/2w5F3E20F0-CA15-AB7C-C873-3329D70151F2.jpg'
p1864
I36
tp1865
g20
s(S'/home/clayton/grive/pics/5w6A3CAB4F-95AC-25CB-4CD4-2D0EA445F376.jpg'
p1866
I48
tp1867
g10
s(S'/home/clayton/grive/pics/4KuoGlassesScared.jpg'
p1868
I90
tp1869
g20
s(S'/home/clayton/grive/pics/5wC18279D9-47D0-4718-36BA-EFECC87D675D.jpg'
p1870
I11
tp1871
g10
s(S'/home/clayton/grive/pics/2wA17C2882-CBD3-D872-556E-45F7E2047628.jpg'
p1872
I88
tp1873
g20
s(S'/home/clayton/grive/pics/3wFF66FA36-78E6-6508-EDF0-3686176BF53D.jpg'
p1874
I15
tp1875
g20
s(g881
I13
tp1876
g43
s(S'/home/clayton/grive/pics/2w4ACD6E21-0751-DEA6-DB60-2F0500DBF231.jpg'
p1877
I99
tp1878
g20
s(S'/home/clayton/grive/pics/5m354dbab3-cc44-4fa5-a76b-1832158454cd.jpg'
p1879
I15
tp1880
g10
s(S'/home/clayton/grive/pics/2wF38C5939-5878-3826-255B-37EF8300E8D1.jpg'
p1881
I45
tp1882
g20
s(S'/home/clayton/grive/pics/4wAF00C89F-447F-4CD2-7885-EFFB17DF9144.jpg'
p1883
I37
tp1884
g20
s(S'/home/clayton/grive/pics/5wCDB694D9-BD6D-9794-0202-EFEF6E711F61.jpg'
p1885
I36
tp1886
g10
s(S'/home/clayton/grive/pics/4wEBD68548-E683-453C-76FA-387540224631.jpg'
p1887
I31
tp1888
g20
s(S'/home/clayton/grive/pics/4w8A998EFF-7A50-74D3-B69B-EFE0E7C90AA0.jpg'
p1889
I26
tp1890
g3
s(S'/home/clayton/grive/pics/1w0C837C12-99DE-6798-DCC0-6B372D9B14DF.jpg'
p1891
I75
tp1892
g20
s(S'/home/clayton/grive/pics/1wD7662DB4-ED2D-0E94-3A81-F002716EC18A.jpg'
p1893
I43
tp1894
g20
s(S'/home/clayton/grive/pics/6wF81457BB-C846-A3E9-4C02-DD6128BED15B.jpg'
p1895
I8
tp1896
g43
s(S'/home/clayton/grive/pics/3w3AC58273-1249-F4C2-3A1C-289D10094EB9.jpg'
p1897
I88
tp1898
g20
s(S'/home/clayton/grive/pics/6m53633fb0-91e3-4336-8db7-0f2ed20929f7.jpg'
p1899
I36
tp1900
g10
s(g248
I5
tp1901
g43
s(S'/home/clayton/grive/pics/5wC6AB8E45-0D08-5231-7C41-EFF50AB9F865.jpg'
p1902
I24
tp1903
g10
s(g534
I7
tp1904
g3
s(S'/home/clayton/grive/pics/3wB6218480-F680-6013-04E0-38A57AE3C9A5.jpg'
p1905
I43
tp1906
g20
s(S'/home/clayton/grive/pics/2w5F94C6B9-8556-11D3-8267-EFFDD1F1CD4B.jpg'
p1907
I56
tp1908
g3
s(S'/home/clayton/grive/pics/2md99d5900-5461-41eb-adb1-8681a6885dc6.jpg'
p1909
I46
tp1910
g3
s(S'/home/clayton/grive/pics/1w455E62E6-5EAF-9986-F10E-383E9405062F.jpg'
p1911
I54
tp1912
g3
s(S'/home/clayton/grive/pics/2w6583AC61-429D-C61E-715E-EFF713238241.jpg'
p1913
I14
tp1914
g3
s(g282
I135
tp1915
g40
s(S'/home/clayton/grive/pics/6m6ce740af-da51-4c19-92ce-7b9d9adba5fe.jpg'
p1916
I18
tp1917
g10
s(S'/home/clayton/grive/pics/6w23C4FE8C-F60F-F7A0-209F-EFEDBF964235.jpg'
p1918
I32
tp1919
g10
s(g1887
I4
tp1920
g3
s(S'/home/clayton/grive/pics/0w3439D79B-2F14-0A7C-A485-3D9751A5715E.jpg'
p1921
I35
tp1922
g40
s(S'/home/clayton/grive/pics/2m354dbab3-cc44-4fa5-a76b-1832158454cd.jpg'
p1923
I4
tp1924
g3
s(S'/home/clayton/grive/pics/5w422A3E39-00CD-54DC-F42A-332478449BD6.jpg'
p1925
I87
tp1926
g10
s(S'/home/clayton/grive/pics/2w2EF2AD95-51F3-FC29-E168-F00CBA1039A6.jpg'
p1927
I12
tp1928
g3
s(S'/home/clayton/grive/pics/2wB7455899-8A91-0D14-67FB-3326BB8944DD.jpg'
p1929
I72
tp1930
g20
s(S'/home/clayton/grive/pics/4wC0CB773B-9791-D38C-9E93-EFFCB6A4A241.jpg'
p1931
I38
tp1932
g3
s(S'/home/clayton/grive/pics/6wB6C4A128-3361-C2D2-A951-EFEBA8C4F0EA.jpg'
p1933
I24
tp1934
g10
s(g530
I13
tp1935
g10
s(S'/home/clayton/grive/pics/6w6583AC61-429D-C61E-715E-EFF713238241.jpg'
p1936
I26
tp1937
g43
s(S'/home/clayton/grive/pics/3w0C837C12-99DE-6798-DCC0-6B372D9B14DF.jpg'
p1938
I66
tp1939
g20
s(S'/home/clayton/grive/pics/1maa24e3dd-73b7-43bb-9668-26cf6b146f58.jpg'
p1940
I35
tp1941
g20
s(S'/home/clayton/grive/pics/0wAE00083F-0B9D-4EED-63B7-2757C366CB50.jpg'
p1942
I69
tp1943
g40
s(g1895
I123
tp1944
g10
s(S'/home/clayton/grive/pics/1w79B28E67-96B7-EB0D-9A75-EFFEDB8F577D.jpg'
p1945
I35
tp1946
g3
s(S'/home/clayton/grive/pics/6m5b216672-8484-4348-b9ab-3f0437fe53dc.jpg'
p1947
I24
tp1948
g10
s(S'/home/clayton/grive/pics/5w4A42FC32-7901-26E1-A91B-33331AA34C92.jpg'
p1949
I39
tp1950
g10
s(S'/home/clayton/grive/pics/6w3F13F903-5652-1111-F8C4-28193F107980.jpg'
p1951
I9
tp1952
g43
s(S'/home/clayton/grive/pics/3wEBD68548-E683-453C-76FA-387540224631.jpg'
p1953
I47
tp1954
g3
s(g318
I52
tp1955
g3
s(S'/home/clayton/grive/pics/5wAE00083F-0B9D-4EED-63B7-2757C366CB50.jpg'
p1956
I70
tp1957
g10
s(S'/home/clayton/grive/pics/2wDF2DC2D6-F1E3-1B71-20E2-467A671A3D60.jpg'
p1958
I12
tp1959
g3
s(S'/home/clayton/grive/pics/5wA186136D-64B7-7288-372F-3843E2F6EAC4.jpg'
p1960
I64
tp1961
g10
s(S'/home/clayton/grive/pics/2w9DC9791F-43FF-A0F2-136E-27278922DE8B.jpg'
p1962
I18
tp1963
g20
s(S'/home/clayton/grive/pics/5w75A71932-7631-6493-AA4D-CD72B83F1138.jpg'
p1964
I75
tp1965
g10
s(S'/home/clayton/grive/pics/1w545D8371-906B-59FB-3297-3D9D8D822C99.jpg'
p1966
I41
tp1967
g3
s(S'/home/clayton/grive/pics/1w62D19778-1AA6-13C2-004F-389AF747333D.jpg'
p1968
I25
tp1969
g20
s(S'/home/clayton/grive/pics/5w2B02DD01-5BAB-ABA0-2EAF-3833D439A739.jpg'
p1970
I118
tp1971
g10
s(S'/home/clayton/grive/pics/2m4b57e50c-264c-4921-b4ca-8db06d561bcd.jpg'
p1972
I54
tp1973
g20
s(g639
I4
tp1974
g3
s(S'/home/clayton/grive/pics/6neutral2.jpg'
p1975
I17
tp1976
g43
s(S'/home/clayton/grive/pics/0wE91A57C8-8766-64BA-4E1F-33C5F731BCE4.jpg'
p1977
I36
tp1978
g40
s(S'/home/clayton/grive/pics/5wD445B589-5883-3783-A84A-29622D8DBC8C.jpg'
p1979
I95
tp1980
g43
s(S'/home/clayton/grive/pics/2m6ccb14e5-001d-499c-9d77-979759f7986b.jpg'
p1981
I24
tp1982
g20
s(S'/home/clayton/grive/pics/4w0D1FB1C2-D30A-E25F-2EBB-27E9151B697F.jpg'
p1983
I23
tp1984
g3
s(S'/home/clayton/grive/pics/1w233E62AD-7E9F-FF61-F5E5-EFFC288A76F9.jpg'
p1985
I44
tp1986
g20
s(S'/home/clayton/grive/pics/4wD7662DB4-ED2D-0E94-3A81-F002716EC18A.jpg'
p1987
I27
tp1988
g20
s(S'/home/clayton/grive/pics/6w0D1FB1C2-D30A-E25F-2EBB-27E9151B697F.jpg'
p1989
I26
tp1990
g10
s(S'/home/clayton/grive/pics/2w345D99A7-58C3-9A8D-4DBE-F0039637562A.jpg'
p1991
I25
tp1992
g20
s(g761
I5
tp1993
g3
s(S'/home/clayton/grive/pics/3wF9371CDA-417F-992A-A6BC-DD6373EF9014.jpg'
p1994
I50
tp1995
g20
s(g1344
I54
tp1996
g10
s(S'/home/clayton/grive/pics/4wF60A9437-78B3-BDE2-BCD1-EFFEB41D538F.jpg'
p1997
I47
tp1998
g3
s(S'/home/clayton/grive/pics/4me82712a5-8b59-464a-b0fd-d3578d4e83b3.jpg'
p1999
I20
tp2000
g20
s(S'/home/clayton/grive/pics/5w5D592E12-AEF9-B530-374E-3322B125D1A1.jpg'
p2001
I94
tp2002
g43
s(S'/home/clayton/grive/pics/0w01343164-B10C-A805-EF2F-2D0A02E780D0.jpg'
p2003
I72
tp2004
g40
s(g278
I8
tp2005
g3
s(S'/home/clayton/grive/pics/6w0A63D31C-0B59-BFF2-4F27-46B385316AD7.jpg'
p2006
I38
tp2007
g10
s(S'/home/clayton/grive/pics/4wB7455899-8A91-0D14-67FB-3326BB8944DD.jpg'
p2008
I37
tp2009
g3
s(S'/home/clayton/grive/pics/5wA17C2882-CBD3-D872-556E-45F7E2047628.jpg'
p2010
I74
tp2011
g10
s(S'/home/clayton/grive/pics/1wB6218480-F680-6013-04E0-38A57AE3C9A5.jpg'
p2012
I65
tp2013
g3
s(S'/home/clayton/grive/pics/5mcd66cc8e-1866-429d-af90-c2c756395882.jpg'
p2014
I32
tp2015
g43
s(g1189
I4
tp2016
g43
s(S'/home/clayton/grive/pics/6w7B52AA0B-3547-4AAC-D109-389D5596BF39.jpg'
p2017
I20
tp2018
g10
s(S'/home/clayton/grive/pics/1w8A998EFF-7A50-74D3-B69B-EFE0E7C90AA0.jpg'
p2019
I29
tp2020
g20
s(S'/home/clayton/grive/pics/4md4bfe2ba-2af3-4f65-822b-b1f180ce52a1.jpg'
p2021
I13
tp2022
g3
s(S'/home/clayton/grive/pics/2w23C4FE8C-F60F-F7A0-209F-EFEDBF964235.jpg'
p2023
I4
tp2024
g3
s(S'/home/clayton/grive/pics/4m81793c88-5a77-4c1a-96b9-19113f792758.jpg'
p2025
I64
tp2026
g20
s(S'/home/clayton/grive/pics/4wD4EB92C9-4F2D-BEA4-25DD-EFD882F1442E.jpg'
p2027
I8
tp2028
g20
s(S'/home/clayton/grive/pics/1wCC78F689-E22B-23A4-2B55-3336F8A9B35C.jpg'
p2029
I44
tp2030
g20
s(S'/home/clayton/grive/pics/6w545D8371-906B-59FB-3297-3D9D8D822C99.jpg'
p2031
I50
tp2032
g10
s(S'/home/clayton/grive/pics/1wCB4A8AF8-BFDA-62AB-F96C-F00E4F7BFBE2.jpg'
p2033
I18
tp2034
g3
s(S'/home/clayton/grive/pics/0m6ccb14e5-001d-499c-9d77-979759f7986b.jpg'
p2035
I19
tp2036
g40
s(S'/home/clayton/grive/pics/2me82712a5-8b59-464a-b0fd-d3578d4e83b3.jpg'
p2037
I15
tp2038
g20
s(g711
I34
tp2039
g3
s(S'/home/clayton/grive/pics/6wEE5485BA-9F02-B81F-7B8A-D865E20BE312.jpg'
p2040
I73
tp2041
g10
s(S'/home/clayton/grive/pics/1wE0F39B0C-94A5-8BD4-61A2-EFE587012FA0.jpg'
p2042
I8
tp2043
g20
s(S'/home/clayton/grive/pics/1wEFC295BD-AB8D-C93F-1AEF-332E960B6391.jpg'
p2044
I25
tp2045
g20
s(S'/home/clayton/grive/pics/1m0792947c-37db-4047-bef9-7a582d6f6fca.jpg'
p2046
I5
tp2047
g3
s(S'/home/clayton/grive/pics/5wB6218480-F680-6013-04E0-38A57AE3C9A5.jpg'
p2048
I43
tp2049
g10
s(S'/home/clayton/grive/pics/5wF6EF8C51-B792-9FCF-687D-3333BA797012.jpg'
p2050
I42
tp2051
g43
s(S'/home/clayton/grive/pics/1w547FEF42-FCBE-B966-D617-2888E39F4498.jpg'
p2052
I45
tp2053
g20
s(S'/home/clayton/grive/pics/2w2CDDD638-E92B-8EBA-60E3-F00A5BD784E3.jpg'
p2054
I23
tp2055
g20
s(S'/home/clayton/grive/pics/6w79D4D2F8-3794-9B73-B7D1-EFEF32720063.jpg'
p2056
I36
tp2057
g10
s(S'/home/clayton/grive/pics/1wEE5485BA-9F02-B81F-7B8A-D865E20BE312.jpg'
p2058
I57
tp2059
g20
s(S'/home/clayton/grive/pics/5wB6C4A128-3361-C2D2-A951-EFEBA8C4F0EA.jpg'
p2060
I71
tp2061
g10
s(g844
I9
tp2062
g3
s(S'/home/clayton/grive/pics/5wD4EB92C9-4F2D-BEA4-25DD-EFD882F1442E.jpg'
p2063
I28
tp2064
g10
s(S'/home/clayton/grive/pics/3mbb625c3c-721b-4e37-9aa1-68684b210046.jpg'
p2065
I9
tp2066
g3
s(S'/home/clayton/grive/pics/1w66F66B26-FBE8-A425-CDA6-D0273FBE14F2.jpg'
p2067
I15
tp2068
g20
s(S'/home/clayton/grive/pics/6w8C431FA1-7A06-58B5-4FDB-EFF2BCDEFC0C.jpg'
p2069
I6
tp2070
g43
s(S'/home/clayton/grive/pics/1w45F00E26-EEF8-ADBC-B511-379A0FB86DFF.jpg'
p2071
I27
tp2072
g20
s(S'/home/clayton/grive/pics/2w2FF168A3-54B0-C7D9-47C9-37FA318D713D.jpg'
p2073
I11
tp2074
g20
s(S'/home/clayton/grive/pics/2w3F13F903-5652-1111-F8C4-28193F107980.jpg'
p2075
I5
tp2076
g3
s(S'/home/clayton/grive/pics/1w10F317F3-9F1E-F59C-B335-38A8ADEE47AF.jpg'
p2077
I55
tp2078
g20
s(S'/home/clayton/grive/pics/5w5F3E20F0-CA15-AB7C-C873-3329D70151F2.jpg'
p2079
I67
tp2080
g10
s(g196
I78
tp2081
g20
s(S'/home/clayton/grive/pics/2wA78D46C1-F503-3E91-F99D-6B2FA22B3D14.jpg'
p2082
I82
tp2083
g20
s(S'/home/clayton/grive/pics/4w275D2B77-AD50-E6CD-0121-D80138F626AC.jpg'
p2084
I47
tp2085
g3
s(S'/home/clayton/grive/pics/0whitney bday jenny seminary grad 140.JPG'
p2086
I7
tp2087
g37
s(S'/home/clayton/grive/pics/6wB4A6761A-AF53-7278-1AC9-4691D99C2F60.jpg'
p2088
I56
tp2089
g10
s(S'/home/clayton/grive/pics/5w545D8371-906B-59FB-3297-3D9D8D822C99.jpg'
p2090
I24
tp2091
g43
s(g136
I8
tp2092
g3
s(S'/home/clayton/grive/pics/6wB6218480-F680-6013-04E0-38A57AE3C9A5.jpg'
p2093
I67
tp2094
g10
s(S'/home/clayton/grive/pics/3wD6ABCA51-AA30-AB83-36E3-3D933B925793.jpg'
p2095
I5
tp2096
g3
s(S'/home/clayton/grive/pics/1wD174FE9B-6632-6EBB-E135-9EFF44352093.jpg'
p2097
I87
tp2098
g20
s(S'/home/clayton/grive/pics/2w9E129634-2C33-C86B-30F7-6B6F8AB2AF22.jpg'
p2099
I81
tp2100
g20
s(S'/home/clayton/grive/pics/4w24FD90A0-B0EF-2E69-7527-48907DFAB4FA.jpg'
p2101
I33
tp2102
g20
s(S'/home/clayton/grive/pics/2wA8290F86-C077-9F89-F9F7-464D6C6DEA5F.jpg'
p2103
I56
tp2104
g20
s(S'/home/clayton/grive/pics/6w6D8B00F1-237C-5070-C5C5-2725674902D4.jpg'
p2105
I75
tp2106
g10
s(S'/home/clayton/grive/pics/3wB7455899-8A91-0D14-67FB-3326BB8944DD.jpg'
p2107
I62
tp2108
g20
s(g675
I6
tp2109
g15
s(g627
I71
tp2110
g20
s(S'/home/clayton/grive/pics/2w503AB7EB-1816-0B00-1966-EFEA502B0E95.jpg'
p2111
I5
tp2112
g3
s(g661
I4
tp2113
g3
s(S'/home/clayton/grive/pics/6m0792947c-37db-4047-bef9-7a582d6f6fca.jpg'
p2114
I9
tp2115
g10
s(S'/home/clayton/grive/pics/4w98D0D5C2-5A24-77C4-893C-389C780B22BF.jpg'
p2116
I26
tp2117
g20
s(g396
I47
tp2118
g20
s(S'/home/clayton/grive/pics/0w70574034-301E-9568-EB56-389E0E002C5E.jpg'
p2119
I52
tp2120
g40
s(S'/home/clayton/grive/pics/3m18d993d2-3c00-433c-8be0-d106d508d053.jpg'
p2121
I14
tp2122
g3
s(S'/home/clayton/grive/pics/6m8e9ff3d6-a4ff-4675-848b-314010102ee8.jpg'
p2123
I50
tp2124
g10
s(S'/home/clayton/grive/pics/3wF38C5939-5878-3826-255B-37EF8300E8D1.jpg'
p2125
I30
tp2126
g20
s(g186
I57
tp2127
g20
s(S'/home/clayton/grive/pics/3mfdc9ff7d-8480-4e52-940b-33d65b5f09d9.jpg'
p2128
I41
tp2129
g3
s(g1039
I71
tp2130
g3
s(S'/home/clayton/grive/pics/0w514E3E36-1CFE-F72D-C4B3-EFEBDD4798A6.jpg'
p2131
I21
tp2132
g40
s(S'/home/clayton/grive/pics/1m040789e6-8b61-484e-b935-203eeeaf5a7f.jpg'
p2133
I68
tp2134
g20
s(S'/home/clayton/grive/pics/6w886BDA22-A149-C817-238D-EFF0E2A9992C.jpg'
p2135
I6
tp2136
g43
s(S'/home/clayton/grive/pics/4wCFA8B97D-34BA-E8E4-129F-F00C349D4184.jpg'
p2137
I30
tp2138
g20
s(g1636
I22
tp2139
g3
s(S'/home/clayton/grive/pics/5wCADCAECA-D3E7-342A-07FA-4652ED88FBA9.jpg'
p2140
I4
tp2141
g43
s(S'/home/clayton/grive/pics/5w8EC27280-1A0E-1E4D-29EA-EFF6FEF7C705.jpg'
p2142
I26
tp2143
g10
s(S'/home/clayton/grive/pics/4w11C902A3-3D0A-1956-0538-6B9806AA4F9F.jpg'
p2144
I50
tp2145
g20
s(S'/home/clayton/grive/pics/3wB6B835B5-9521-A5DD-61B1-F009B95FB653.jpg'
p2146
I24
tp2147
g20
s(S'/home/clayton/grive/pics/1w6C9F7832-CE9D-15A0-5DA4-6B8CFF5E8490.jpg'
p2148
I67
tp2149
g3
s(S'/home/clayton/grive/pics/4w9E129634-2C33-C86B-30F7-6B6F8AB2AF22.jpg'
p2150
I64
tp2151
g20
s(S'/home/clayton/grive/pics/2mcd66cc8e-1866-429d-af90-c2c756395882.jpg'
p2152
I36
tp2153
g3
s(S'/home/clayton/grive/pics/5w649F4C25-595D-5383-9B2D-F0041EC3CC63.jpg'
p2154
I29
tp2155
g43
s(g1667
I8
tp2156
g3
s(S'/home/clayton/grive/pics/5w9D75EFDC-3AE6-E0D7-C7F4-28316CCF01BA.jpg'
p2157
I82
tp2158
g43
s(S'/home/clayton/grive/pics/4w04AB60B8-053D-0086-A395-4698C6ECDA34.jpg'
p2159
I49
tp2160
g20
s(S'/home/clayton/grive/pics/6wD4EB92C9-4F2D-BEA4-25DD-EFD882F1442E.jpg'
p2161
I22
tp2162
g10
s(g1091
I4
tp2163
g3
s(g1381
I7
tp2164
g3
s(S'/home/clayton/grive/pics/3wBE3974B4-A678-56B4-9610-286BC7FB53FC.jpg'
p2165
I38
tp2166
g20
s(S'/home/clayton/grive/pics/4wF81457BB-C846-A3E9-4C02-DD6128BED15B.jpg'
p2167
I104
tp2168
g20
s(g1864
I6
tp2169
g3
s(S'/home/clayton/grive/pics/5w11C902A3-3D0A-1956-0538-6B9806AA4F9F.jpg'
p2170
I52
tp2171
g10
s(g1292
I4
tp2172
g15
s(g1524
I68
tp2173
g20
s(g728
I5
tp2174
g20
s(S'/home/clayton/grive/pics/0m57519cd1-d254-41e5-9418-09b11ad66a50.jpg'
p2175
I26
tp2176
g40
s(S'/home/clayton/grive/pics/3m9660a96e-a888-40cd-b380-7d3761693c17.jpg'
p2177
I35
tp2178
g3
s(g1812
I16
tp2179
g43
s(S'/home/clayton/grive/pics/2w9142C5B8-00C3-B41B-B5F7-7B04092215BC.jpg'
p2180
I24
tp2181
g3
s(S'/home/clayton/grive/pics/6wF9A08F82-E468-659D-6E2A-4649DD6662AF.jpg'
p2182
I18
tp2183
g43
s(S'/home/clayton/grive/pics/6w98D0D5C2-5A24-77C4-893C-389C780B22BF.jpg'
p2184
I39
tp2185
g10
s(S'/home/clayton/grive/pics/3w422A3E39-00CD-54DC-F42A-332478449BD6.jpg'
p2186
I71
tp2187
g20
s(S'/home/clayton/grive/pics/0w8772ED2F-20D8-F4F8-64C1-EFFBA3790753.jpg'
p2188
I7
tp2189
g40
s(S'/home/clayton/grive/pics/3wD174FE9B-6632-6EBB-E135-9EFF44352093.jpg'
p2190
I69
tp2191
g20
s(g418
I20
tp2192
g43
s(S'/home/clayton/grive/pics/4md6e113df-509f-49d9-b0c7-905e86cc5df3.jpg'
p2193
I6
tp2194
g3
s(S'/home/clayton/grive/pics/6w42122DD0-1D98-3417-ED3C-3CD7325AEF4E.jpg'
p2195
I40
tp2196
g10
s(S'/home/clayton/grive/pics/4wD61ACB92-52ED-6679-0D80-38A0B91ACF94.jpg'
p2197
I68
tp2198
g3
s(S'/home/clayton/grive/pics/4w8039E961-EE34-7805-4B54-D80D2BE38F57.jpg'
p2199
I22
tp2200
g20
s(g1127
I4
tp2201
g37
s(S'/home/clayton/grive/pics/1w656B02A8-518C-90F3-7234-38211A0CD399.jpg'
p2202
I40
tp2203
g3
s(S'/home/clayton/grive/pics/4wB7907848-2DA7-2CBC-9171-46E1D7C304D7.jpg'
p2204
I51
tp2205
g3
s(S'/home/clayton/grive/pics/5w12EC627A-1192-EC96-EEC9-489DEAE24E0B.jpg'
p2206
I55
tp2207
g10
s(S'/home/clayton/grive/pics/2wC8D3294A-B9A8-6A3A-8331-465651FB65F4.jpg'
p2208
I109
tp2209
g20
s(S'/home/clayton/grive/pics/5wC89E1EA6-6B03-0107-19C6-312038C89CA1.jpg'
p2210
I64
tp2211
g10
s(S'/home/clayton/grive/pics/6w4123FC40-659C-BBF1-A29E-29652EC92828.jpg'
p2212
I76
tp2213
g10
s(S'/home/clayton/grive/pics/5w2C6C7917-E34A-87BF-D366-2849EADFBD8B.jpg'
p2214
I27
tp2215
g10
s(S'/home/clayton/grive/pics/1wCFBE9FE8-526E-B206-585D-7A9FA92FD844.jpg'
p2216
I45
tp2217
g20
s(S'/home/clayton/grive/pics/1w01343164-B10C-A805-EF2F-2D0A02E780D0.jpg'
p2218
I81
tp2219
g20
s(S'/home/clayton/grive/pics/5wD2C8420A-CA69-4783-1899-278856A49F4B.jpg'
p2220
I39
tp2221
g10
s(S'/home/clayton/grive/pics/0w3F606B5D-77FB-F545-EEF4-36CCC8791888.jpg'
p2222
I16
tp2223
g37
s(S'/home/clayton/grive/pics/5m18d993d2-3c00-433c-8be0-d106d508d053.jpg'
p2224
I10
tp2225
g43
s(g949
I52
tp2226
g3
s(S'/home/clayton/grive/pics/5wB75D3F87-A36C-1CFC-5730-28E28C577A75.jpg'
p2227
I79
tp2228
g43
s(S'/home/clayton/grive/pics/1wF38C5939-5878-3826-255B-37EF8300E8D1.jpg'
p2229
I4
tp2230
g3
s(g1758
I4
tp2231
g43
s(S'/home/clayton/grive/pics/3m709ed245-1794-48b2-99f4-73cae971abbf.jpg'
p2232
I32
tp2233
g20
s(S'/home/clayton/grive/pics/0m158a7b3d-0ea7-4403-ba3e-16b56aaa4db0.jpg'
p2234
I9
tp2235
g40
s(S'/home/clayton/grive/pics/0m9340b0af-fe78-4190-bcf7-13abbdf650b9.jpg'
p2236
I7
tp2237
g40
s(S'/home/clayton/grive/pics/4w837D0871-935B-7E8E-A689-F00B320588E7.jpg'
p2238
I32
tp2239
g3
s(g2140
I17
tp2240
g43
s(g2086
I122
tp2241
g40
s(g1135
I76
tp2242
g40
s(S'/home/clayton/grive/pics/1w39D34F71-9398-68F2-4F8C-F0102C7A0F3C.jpg'
p2243
I23
tp2244
g20
s(S'/home/clayton/grive/pics/1w038FF51B-B514-1E4A-1F79-37ACE961D312.jpg'
p2245
I51
tp2246
g3
s(S'/home/clayton/grive/pics/1m58c6be84-7243-4efb-b579-ce026defc3d2.jpg'
p2247
I35
tp2248
g20
s(S'/home/clayton/grive/pics/5w7F7338BC-E565-8DED-FB80-46627677A6C7.jpg'
p2249
I86
tp2250
g43
s(S'/home/clayton/grive/pics/6w2C9F8C42-E900-B747-C962-465A32A9CCE7.jpg'
p2251
I51
tp2252
g10
s(S'/home/clayton/grive/pics/4w3439D79B-2F14-0A7C-A485-3D9751A5715E.jpg'
p2253
I25
tp2254
g3
s(S'/home/clayton/grive/pics/2m5b216672-8484-4348-b9ab-3f0437fe53dc.jpg'
p2255
I105
tp2256
g20
s(S'/home/clayton/grive/pics/4m6b79eaeb-1360-4503-88c4-d37bedee7440.jpg'
p2257
I25
tp2258
g20
s(S'/home/clayton/grive/pics/5w5D981B62-3BF3-3379-219B-EFF97EC7E5A0.jpg'
p2259
I57
tp2260
g43
s(S'/home/clayton/grive/pics/3w514E3E36-1CFE-F72D-C4B3-EFEBDD4798A6.jpg'
p2261
I8
tp2262
g20
s(S'/home/clayton/grive/pics/0w0D1FB1C2-D30A-E25F-2EBB-27E9151B697F.jpg'
p2263
I18
tp2264
g37
s(S'/home/clayton/grive/pics/0w4E2B384F-96FC-D805-03DB-EFFF326F409C.jpg'
p2265
I17
tp2266
g40
s(g1783
I5
tp2267
g43
s(S'/home/clayton/grive/pics/3wF51ABC70-E908-AA82-8C29-D8B59FE8C62F.jpg'
p2268
I44
tp2269
g3
s(S'/home/clayton/grive/pics/1wEED45041-BE05-1F78-5044-2EF641914EDD.jpg'
p2270
I90
tp2271
g20
s(S'/home/clayton/grive/pics/6wA8290F86-C077-9F89-F9F7-464D6C6DEA5F.jpg'
p2272
I44
tp2273
g10
s(S'/home/clayton/grive/pics/3w6D8B00F1-237C-5070-C5C5-2725674902D4.jpg'
p2274
I78
tp2275
g20
s(S'/home/clayton/grive/pics/0happy4.JPG'
p2276
I108
tp2277
g40
s(S'/home/clayton/grive/pics/0w11C902A3-3D0A-1956-0538-6B9806AA4F9F.jpg'
p2278
I64
tp2279
g40
s(S'/home/clayton/grive/pics/4mdb7d65e0-544b-4fd9-afc4-62fe2f96b2e1.jpg'
p2280
I20
tp2281
g20
s(S'/home/clayton/grive/pics/4w6A3CAB4F-95AC-25CB-4CD4-2D0EA445F376.jpg'
p2282
I31
tp2283
g20
s(g1461
I43
tp2284
g20
s(S'/home/clayton/grive/pics/3mdb7d65e0-544b-4fd9-afc4-62fe2f96b2e1.jpg'
p2285
I22
tp2286
g3
s(S'/home/clayton/grive/pics/5wD9E9B0A8-7D98-A0F3-9A06-37ECA03E6425.jpg'
p2287
I61
tp2288
g43
s(S'/home/clayton/grive/pics/2w547FEF42-FCBE-B966-D617-2888E39F4498.jpg'
p2289
I39
tp2290
g20
s(S'/home/clayton/grive/pics/5w6583AC61-429D-C61E-715E-EFF713238241.jpg'
p2291
I23
tp2292
g43
s(S'/home/clayton/grive/pics/1w1F9D7616-B031-13BA-2CF1-332BB1E15DC2.jpg'
p2293
I108
tp2294
g3
s(S'/home/clayton/grive/pics/4wC89E1EA6-6B03-0107-19C6-312038C89CA1.jpg'
p2295
I55
tp2296
g20
s(S'/home/clayton/grive/pics/0w79D4D2F8-3794-9B73-B7D1-EFEF32720063.jpg'
p2297
I28
tp2298
g40
s(S'/home/clayton/grive/pics/0Happy.jpg (Case Conflict 1)'
p2299
I56
tp2300
g40
s(S'/home/clayton/grive/pics/1w77EDF533-C254-FD89-6404-4660A2F03302.jpg'
p2301
I11
tp2302
g3
s(S'/home/clayton/grive/pics/1w8EC27280-1A0E-1E4D-29EA-EFF6FEF7C705.jpg'
p2303
I20
tp2304
g20
s(S'/home/clayton/grive/pics/3w6B887E6C-D9CE-E590-E3F0-6B34BF5BA23A.jpg'
p2305
I13
tp2306
g20
s(S'/home/clayton/grive/pics/5mfeef873d-a3d3-409a-b559-85c7ecff3bba.jpg'
p2307
I31
tp2308
g10
s(S'/home/clayton/grive/pics/4w809F0A15-03D4-873B-62D0-6B3146FEE7CF.jpg'
p2309
I61
tp2310
g20
s(S'/home/clayton/grive/pics/0w2C6C7917-E34A-87BF-D366-2849EADFBD8B.jpg'
p2311
I27
tp2312
g40
s(S'/home/clayton/grive/pics/6w24FD90A0-B0EF-2E69-7527-48907DFAB4FA.jpg'
p2313
I23
tp2314
g43
s(g2090
I41
tp2315
g10
s(S'/home/clayton/grive/pics/0w0AAA0AC9-6F8F-E71E-133D-46E81C08DACC.jpg'
p2316
I33
tp2317
g40
s(S'/home/clayton/grive/pics/4w86213EB0-EFE5-91A5-6308-4CE43B9C4ABB.jpg'
p2318
I47
tp2319
g20
s(S'/home/clayton/grive/pics/4w503AB7EB-1816-0B00-1966-EFEA502B0E95.jpg'
p2320
I11
tp2321
g20
s(S'/home/clayton/grive/pics/0w45F00E26-EEF8-ADBC-B511-379A0FB86DFF.jpg'
p2322
I30
tp2323
g40
s(S'/home/clayton/grive/pics/3wCDB694D9-BD6D-9794-0202-EFEF6E711F61.jpg'
p2324
I23
tp2325
g20
s(g1823
I5
tp2326
g43
s(S'/home/clayton/grive/pics/6m18d993d2-3c00-433c-8be0-d106d508d053.jpg'
p2327
I25
tp2328
g10
s(g1079
I38
tp2329
g40
s(S'/home/clayton/grive/pics/3wCADCAECA-D3E7-342A-07FA-4652ED88FBA9.jpg'
p2330
I10
tp2331
g3
s(S'/home/clayton/grive/pics/6wCFA8B97D-34BA-E8E4-129F-F00C349D4184.jpg'
p2332
I46
tp2333
g10
s(S'/home/clayton/grive/pics/1w9FB993B7-8646-7117-CD23-27C2F4C7EC67.jpg'
p2334
I116
tp2335
g20
s(S'/home/clayton/grive/pics/3w6A3CAB4F-95AC-25CB-4CD4-2D0EA445F376.jpg'
p2336
I46
tp2337
g20
s(S'/home/clayton/grive/pics/1w9142C5B8-00C3-B41B-B5F7-7B04092215BC.jpg'
p2338
I14
tp2339
g20
s(S'/home/clayton/grive/pics/2mfeef873d-a3d3-409a-b559-85c7ecff3bba.jpg'
p2340
I42
tp2341
g20
s(S'/home/clayton/grive/pics/2wEA81AD9F-C919-7319-BDCE-333C59C6579E.jpg'
p2342
I47
tp2343
g20
s(S'/home/clayton/grive/pics/6w9A37A263-9801-0A1A-312E-3334DD7F32AC.jpg'
p2344
I49
tp2345
g10
s(S'/home/clayton/grive/pics/2wEED45041-BE05-1F78-5044-2EF641914EDD.jpg'
p2346
I91
tp2347
g3
s(g330
I79
tp2348
g3
s(S'/home/clayton/grive/pics/1m57519cd1-d254-41e5-9418-09b11ad66a50.jpg'
p2349
I15
tp2350
g3
s(S'/home/clayton/grive/pics/1m709ed245-1794-48b2-99f4-73cae971abbf.jpg'
p2351
I8
tp2352
g3
s(S'/home/clayton/grive/pics/0wCFA8B97D-34BA-E8E4-129F-F00C349D4184.jpg'
p2353
I46
tp2354
g40
s(g427
I6
tp2355
g3
s(S'/home/clayton/grive/pics/2wFA3A2A73-D799-1F82-B7C9-6B922E50F6D3.jpg'
p2356
I19
tp2357
g20
s(S'/home/clayton/grive/pics/5wAF00C89F-447F-4CD2-7885-EFFB17DF9144.jpg'
p2358
I30
tp2359
g10
s(S'/home/clayton/grive/pics/2wB6C4A128-3361-C2D2-A951-EFEBA8C4F0EA.jpg'
p2360
I49
tp2361
g20
s(S'/home/clayton/grive/pics/2w514E3E36-1CFE-F72D-C4B3-EFEBDD4798A6.jpg'
p2362
I36
tp2363
g3
s(S'/home/clayton/grive/pics/0w62D19778-1AA6-13C2-004F-389AF747333D.jpg'
p2364
I20
tp2365
g40
s(S'/home/clayton/grive/pics/5w656B02A8-518C-90F3-7234-38211A0CD399.jpg'
p2366
I21
tp2367
g10
s(S'/home/clayton/grive/pics/0wD18772FE-63EF-7FDC-EF9A-F00545998FBB.jpg'
p2368
I7
tp2369
g37
s(S'/home/clayton/grive/pics/3w75A71932-7631-6493-AA4D-CD72B83F1138.jpg'
p2370
I5
tp2371
g3
s(S'/home/clayton/grive/pics/1m81793c88-5a77-4c1a-96b9-19113f792758.jpg'
p2372
I51
tp2373
g20
s(S'/home/clayton/grive/pics/2w8039E961-EE34-7805-4B54-D80D2BE38F57.jpg'
p2374
I11
tp2375
g20
s(S'/home/clayton/grive/pics/0w5F94C6B9-8556-11D3-8267-EFFDD1F1CD4B.jpg'
p2376
I37
tp2377
g40
s(S'/home/clayton/grive/pics/3wFA3A2A73-D799-1F82-B7C9-6B922E50F6D3.jpg'
p2378
I47
tp2379
g3
s(S'/home/clayton/grive/pics/0w3ED8AF10-C2CD-9852-6CD0-4B1889141529.jpg'
p2380
I26
tp2381
g40
s(S'/home/clayton/grive/pics/4wE0CA5A8E-D4F8-F93F-8845-CD71832C5BEC.jpg'
p2382
I43
tp2383
g3
s(g16
I24
tp2384
g20
s(g158
I37
tp2385
g20
s(S'/home/clayton/grive/pics/1wF6EF8C51-B792-9FCF-687D-3333BA797012.jpg'
p2386
I39
tp2387
g20
s(S'/home/clayton/grive/pics/0wE953282F-1713-2679-406D-285C8932B012.jpg'
p2388
I26
tp2389
g40
s(g1923
I7
tp2390
g3
s(S'/home/clayton/grive/pics/5wC8D3294A-B9A8-6A3A-8331-465651FB65F4.jpg'
p2391
I85
tp2392
g10
s(S'/home/clayton/grive/pics/4wD2C8420A-CA69-4783-1899-278856A49F4B.jpg'
p2393
I26
tp2394
g20
s(S'/home/clayton/grive/pics/6m354dbab3-cc44-4fa5-a76b-1832158454cd.jpg'
p2395
I9
tp2396
g10
s(g2040
I44
tp2397
g10
s(S'/home/clayton/grive/pics/0m0792947c-37db-4047-bef9-7a582d6f6fca.jpg'
p2398
I30
tp2399
g40
s(S'/home/clayton/grive/pics/4wB6B835B5-9521-A5DD-61B1-F009B95FB653.jpg'
p2400
I37
tp2401
g3
s(g1321
I5
tp2402
g3
s(S'/home/clayton/grive/pics/2w7F7338BC-E565-8DED-FB80-46627677A6C7.jpg'
p2403
I75
tp2404
g20
s(S'/home/clayton/grive/pics/0wD5BE1562-F05B-1AA8-6290-37EE9C424B0E.jpg'
p2405
I20
tp2406
g40
s(S'/home/clayton/grive/pics/5m709ed245-1794-48b2-99f4-73cae971abbf.jpg'
p2407
I56
tp2408
g43
s(S'/home/clayton/grive/pics/0m6b79eaeb-1360-4503-88c4-d37bedee7440.jpg'
p2409
I26
tp2410
g40
s(S'/home/clayton/grive/pics/0Snapshot_20130218_1.JPG'
p2411
I46
tp2412
g40
s(S'/home/clayton/grive/pics/1wBE3974B4-A678-56B4-9610-286BC7FB53FC.jpg'
p2413
I34
tp2414
g3
s(S'/home/clayton/grive/pics/0w79B28E67-96B7-EB0D-9A75-EFFEDB8F577D.jpg'
p2415
I29
tp2416
g40
s(S'/home/clayton/grive/pics/2wB75D3F87-A36C-1CFC-5730-28E28C577A75.jpg'
p2417
I74
tp2418
g3
s(S'/home/clayton/grive/pics/5w5F94C6B9-8556-11D3-8267-EFFDD1F1CD4B.jpg'
p2419
I26
tp2420
g10
s(S'/home/clayton/grive/pics/6w10F317F3-9F1E-F59C-B335-38A8ADEE47AF.jpg'
p2421
I62
tp2422
g10
s(g264
I29
tp2423
g10
s(S'/home/clayton/grive/pics/1mee953784-3873-4738-a45f-15bf2d546bdf.jpg'
p2424
I16
tp2425
g3
s(S'/home/clayton/grive/pics/2w038FF51B-B514-1E4A-1F79-37ACE961D312.jpg'
p2426
I56
tp2427
g20
s(g685
I26
tp2428
g10
s(S'/home/clayton/grive/pics/3w275D2B77-AD50-E6CD-0121-D80138F626AC.jpg'
p2429
I42
tp2430
g20
s(g1002
I11
tp2431
g15
s(S'/home/clayton/grive/pics/6w7EA25B92-1336-94C0-FB2D-EFDA52371B47.jpg'
p2432
I12
tp2433
g10
s(S'/home/clayton/grive/pics/5w0AAA0AC9-6F8F-E71E-133D-46E81C08DACC.jpg'
p2434
I41
tp2435
g10
s(S'/home/clayton/grive/pics/0-Happy.JPG'
p2436
I6
tp2437
g15
s(S'/home/clayton/grive/pics/6wC6AB8E45-0D08-5231-7C41-EFF50AB9F865.jpg'
p2438
I41
tp2439
g10
s(g556
I5
tp2440
g3
s(g1323
I4
tp2441
g43
s(g360
I8
tp2442
g37
s(S'/home/clayton/grive/pics/2m58c6be84-7243-4efb-b579-ce026defc3d2.jpg'
p2443
I35
tp2444
g20
s(S'/home/clayton/grive/pics/6wD6ABCA51-AA30-AB83-36E3-3D933B925793.jpg'
p2445
I4
tp2446
g43
s(S'/home/clayton/grive/pics/0wA8290F86-C077-9F89-F9F7-464D6C6DEA5F.jpg'
p2447
I26
tp2448
g40
s(S'/home/clayton/grive/pics/4wF6EF8C51-B792-9FCF-687D-3333BA797012.jpg'
p2449
I28
tp2450
g20
s(S'/home/clayton/grive/pics/1sad_david_bates.jpg'
p2451
I4
tp2452
g20
s(S'/home/clayton/grive/pics/2m158a7b3d-0ea7-4403-ba3e-16b56aaa4db0.jpg'
p2453
I44
tp2454
g20
s(S'/home/clayton/grive/pics/3Surprised.jpg (Case Conflict 1)'
p2455
I75
tp2456
g20
s(g565
I4
tp2457
g43
s(S'/home/clayton/grive/pics/0w545D8371-906B-59FB-3297-3D9D8D822C99.jpg'
p2458
I56
tp2459
g40
s(S'/home/clayton/grive/pics/0wA186136D-64B7-7288-372F-3843E2F6EAC4.jpg'
p2460
I53
tp2461
g40
s(S'/home/clayton/grive/pics/4m6ce740af-da51-4c19-92ce-7b9d9adba5fe.jpg'
p2462
I15
tp2463
g3
s(S'/home/clayton/grive/pics/5w0CC8EC66-FAA1-705C-0776-4AE9EA516A65.jpg'
p2464
I47
tp2465
g10
s(g1227
I4
tp2466
g43
s(g1834
I47
tp2467
g10
s(S'/home/clayton/grive/pics/6wA78D46C1-F503-3E91-F99D-6B2FA22B3D14.jpg'
p2468
I66
tp2469
g10
s(g685
I8
tp2470
g43
s(S'/home/clayton/grive/pics/5m89be575f-50b5-4d23-b6d7-940a46e9c030.jpg'
p2471
I45
tp2472
g43
s(S'/home/clayton/grive/pics/0w157643A0-E4FE-5F90-C9B1-465764731874.jpg'
p2473
I29
tp2474
g40
s(S'/home/clayton/grive/pics/5w9CF2D657-F38A-A867-1844-64AF3A43DEAA.jpg'
p2475
I33
tp2476
g10
s(g1758
I52
tp2477
g43
s(S'/home/clayton/grive/pics/2wC18279D9-47D0-4718-36BA-EFECC87D675D.jpg'
p2478
I15
tp2479
g3
s(S'/home/clayton/grive/pics/1w3EC88953-2C9A-08EE-D3A5-465D5B7072D4.jpg'
p2480
I72
tp2481
g20
s(S'/home/clayton/grive/pics/5mbb625c3c-721b-4e37-9aa1-68684b210046.jpg'
p2482
I25
tp2483
g10
s(S'/home/clayton/grive/pics/2wCFA8B97D-34BA-E8E4-129F-F00C349D4184.jpg'
p2484
I28
tp2485
g20
s(S'/home/clayton/grive/pics/4mcd66cc8e-1866-429d-af90-c2c756395882.jpg'
p2486
I7
tp2487
g20
s(g2069
I8
tp2488
g43
s(S'/home/clayton/grive/pics/3m3a33b8ba-bfdc-4061-a7b3-4c7fcc6839b7.jpg'
p2489
I75
tp2490
g20
s(S'/home/clayton/grive/pics/0wBE3974B4-A678-56B4-9610-286BC7FB53FC.jpg'
p2491
I85
tp2492
g40
s(S'/home/clayton/grive/pics/6w3F606B5D-77FB-F545-EEF4-36CCC8791888.jpg'
p2493
I21
tp2494
g43
s(S'/home/clayton/grive/pics/2w45F00E26-EEF8-ADBC-B511-379A0FB86DFF.jpg'
p2495
I30
tp2496
g20
s(g1556
I37
tp2497
g43
s(g2023
I12
tp2498
g20
s(S'/home/clayton/grive/pics/2wB7907848-2DA7-2CBC-9171-46E1D7C304D7.jpg'
p2499
I33
tp2500
g20
s(g1403
I37
tp2501
g10
s(S'/home/clayton/grive/pics/1w221CD601-3CC2-CE4F-C761-F0073C97F0C5.jpg'
p2502
I11
tp2503
g3
s(S'/home/clayton/grive/pics/2DSCN0310.JPG'
p2504
I92
tp2505
g20
s(S'/home/clayton/grive/pics/5w24FD90A0-B0EF-2E69-7527-48907DFAB4FA.jpg'
p2506
I8
tp2507
g43
s(S'/home/clayton/grive/pics/4m57519cd1-d254-41e5-9418-09b11ad66a50.jpg'
p2508
I20
tp2509
g3
s(S'/home/clayton/grive/pics/3wC6AB8E45-0D08-5231-7C41-EFF50AB9F865.jpg'
p2510
I41
tp2511
g3
s(S'/home/clayton/grive/pics/1w157643A0-E4FE-5F90-C9B1-465764731874.jpg'
p2512
I26
tp2513
g3
s(g2238
I25
tp2514
g3
s(S'/home/clayton/grive/pics/2m57519cd1-d254-41e5-9418-09b11ad66a50.jpg'
p2515
I28
tp2516
g20
s(g356
I5
tp2517
g43
s(g1610
I4
tp2518
g3
s(S'/home/clayton/grive/pics/5w0A63D31C-0B59-BFF2-4F27-46B385316AD7.jpg'
p2519
I27
tp2520
g10
s(S'/home/clayton/grive/pics/2w75B0A7BB-3879-FF92-CC05-37B01FC821E8.jpg'
p2521
I43
tp2522
g3
s(S'/home/clayton/grive/pics/5w7F2BE16D-8A7C-F883-8CFE-EFF8C9D10E88.jpg'
p2523
I25
tp2524
g10
s(S'/home/clayton/grive/pics/1m53633fb0-91e3-4336-8db7-0f2ed20929f7.jpg'
p2525
I32
tp2526
g20
s(S'/home/clayton/grive/pics/5w3F13F903-5652-1111-F8C4-28193F107980.jpg'
p2527
I4
tp2528
g43
s(S'/home/clayton/grive/pics/2wE91A57C8-8766-64BA-4E1F-33C5F731BCE4.jpg'
p2529
I37
tp2530
g3
s(S'/home/clayton/grive/pics/6me82712a5-8b59-464a-b0fd-d3578d4e83b3.jpg'
p2531
I40
tp2532
g10
s(S'/home/clayton/grive/pics/3w3439D79B-2F14-0A7C-A485-3D9751A5715E.jpg'
p2533
I14
tp2534
g3
s(g1918
I29
tp2535
g43
s(S'/home/clayton/grive/pics/0wD174FE9B-6632-6EBB-E135-9EFF44352093.jpg'
p2536
I91
tp2537
g40
s(S'/home/clayton/grive/pics/3w98D0D5C2-5A24-77C4-893C-389C780B22BF.jpg'
p2538
I8
tp2539
g20
s(S'/home/clayton/grive/pics/5m57519cd1-d254-41e5-9418-09b11ad66a50.jpg'
p2540
I25
tp2541
g10
s(S'/home/clayton/grive/pics/3w8A998EFF-7A50-74D3-B69B-EFE0E7C90AA0.jpg'
p2542
I20
tp2543
g20
s(S'/home/clayton/grive/pics/1ma066d0c9-b62d-47e2-aba9-89f5120f6750.jpg'
p2544
I36
tp2545
g3
s(S'/home/clayton/grive/pics/0w5D592E12-AEF9-B530-374E-3322B125D1A1.jpg'
p2546
I65
tp2547
g40
s(S'/home/clayton/grive/pics/1mbb625c3c-721b-4e37-9aa1-68684b210046.jpg'
p2548
I34
tp2549
g20
s(S'/home/clayton/grive/pics/4w7F2BE16D-8A7C-F883-8CFE-EFF8C9D10E88.jpg'
p2550
I18
tp2551
g20
s(S'/home/clayton/grive/pics/6w1F9D7616-B031-13BA-2CF1-332BB1E15DC2.jpg'
p2552
I54
tp2553
g10
s(S'/home/clayton/grive/pics/5md4bfe2ba-2af3-4f65-822b-b1f180ce52a1.jpg'
p2554
I49
tp2555
g10
s(S'/home/clayton/grive/pics/5w9E129634-2C33-C86B-30F7-6B6F8AB2AF22.jpg'
p2556
I73
tp2557
g43
s(S'/home/clayton/grive/pics/3wB327C73A-CBE4-4E6F-85BE-37EFF9F68B2E.jpg'
p2558
I30
tp2559
g3
s(S'/home/clayton/grive/pics/3w4A42FC32-7901-26E1-A91B-33331AA34C92.jpg'
p2560
I41
tp2561
g20
s(S'/home/clayton/grive/pics/1wFF66FA36-78E6-6508-EDF0-3686176BF53D.jpg'
p2562
I18
tp2563
g3
s(S'/home/clayton/grive/pics/2m139a1aec-0c0b-440d-8a6c-7d5c8598259c.jpg'
p2564
I52
tp2565
g3
s(g2421
I4
tp2566
g43
s(g210
I77
tp2567
g20
s(S'/home/clayton/grive/pics/3w649F4C25-595D-5383-9B2D-F0041EC3CC63.jpg'
p2568
I22
tp2569
g3
s(S'/home/clayton/grive/pics/1Sad.jpg'
p2570
I57
tp2571
g20
s(S'/home/clayton/grive/pics/1m6ccb14e5-001d-499c-9d77-979759f7986b.jpg'
p2572
I18
tp2573
g20
s(g1029
I5
tp2574
g15
s(S'/home/clayton/grive/pics/2wF51ABC70-E908-AA82-8C29-D8B59FE8C62F.jpg'
p2575
I49
tp2576
g20
s(S'/home/clayton/grive/pics/0w547FEF42-FCBE-B966-D617-2888E39F4498.jpg'
p2577
I42
tp2578
g40
s(g1907
I7
tp2579
g3
s(S'/home/clayton/grive/pics/1-Sad.JPG'
p2580
I110
tp2581
g3
s(S'/home/clayton/grive/pics/5w275D2B77-AD50-E6CD-0121-D80138F626AC.jpg'
p2582
I15
tp2583
g43
s(g2073
I4
tp2584
g20
s(S'/home/clayton/grive/pics/6w5465E952-2333-F4F0-922E-D82211FE562D.jpg'
p2585
I11
tp2586
g10
s(S'/home/clayton/grive/pics/4wD5BE1562-F05B-1AA8-6290-37EE9C424B0E.jpg'
p2587
I17
tp2588
g3
s(S'/home/clayton/grive/pics/6KuoNeutral.jpg'
p2589
I118
tp2590
g10
s(S'/home/clayton/grive/pics/6w5F94C6B9-8556-11D3-8267-EFFDD1F1CD4B.jpg'
p2591
I23
tp2592
g10
s(g1431
I23
tp2593
g3
s(g2489
I4
tp2594
g3
s(g1720
I8
tp2595
g15
s(S'/home/clayton/grive/pics/3w77EDF533-C254-FD89-6404-4660A2F03302.jpg'
p2596
I12
tp2597
g20
s(S'/home/clayton/grive/pics/2w01343164-B10C-A805-EF2F-2D0A02E780D0.jpg'
p2598
I106
tp2599
g20
s(g2065
I16
tp2600
g3
s(g888
I7
tp2601
g3
s(S'/home/clayton/grive/pics/4w44B9D53B-EC71-47ED-AF85-EFEBF9C330AB.jpg'
p2602
I9
tp2603
g20
s(S'/home/clayton/grive/pics/1w2B02DD01-5BAB-ABA0-2EAF-3833D439A739.jpg'
p2604
I117
tp2605
g20
s(S'/home/clayton/grive/pics/2w3EC88953-2C9A-08EE-D3A5-465D5B7072D4.jpg'
p2606
I80
tp2607
g20
s(S'/home/clayton/grive/pics/5w9FB993B7-8646-7117-CD23-27C2F4C7EC67.jpg'
p2608
I117
tp2609
g10
s(g838
I63
tp2610
g20
s(g304
I10
tp2611
g3
s(g1195
I10
tp2612
g3
s(S'/home/clayton/grive/pics/2w70574034-301E-9568-EB56-389E0E002C5E.jpg'
p2613
I56
tp2614
g20
s(S'/home/clayton/grive/pics/4wB3B65A5B-6FD6-FB6B-DC2C-3797ABC3D83E.jpg'
p2615
I41
tp2616
g20
s(S'/home/clayton/grive/pics/1w7B52AA0B-3547-4AAC-D109-389D5596BF39.jpg'
p2617
I20
tp2618
g3
s(S'/home/clayton/grive/pics/1mcd66cc8e-1866-429d-af90-c2c756395882.jpg'
p2619
I38
tp2620
g20
s(S'/home/clayton/grive/pics/5w3F606B5D-77FB-F545-EEF4-36CCC8791888.jpg'
p2621
I15
tp2622
g43
s(g420
I6
tp2623
g3
s(S'/home/clayton/grive/pics/5w7E85E5B5-F196-987E-51DD-2EC43C62E76D.jpg'
p2624
I72
tp2625
g10
s(S'/home/clayton/grive/pics/4m4ed4b5c3-8594-4921-981d-970fc18d5fea.jpg'
p2626
I26
tp2627
g20
s(S'/home/clayton/grive/pics/6m9340b0af-fe78-4190-bcf7-13abbdf650b9.jpg'
p2628
I15
tp2629
g43
s(S'/home/clayton/grive/pics/1wCDB694D9-BD6D-9794-0202-EFEF6E711F61.jpg'
p2630
I33
tp2631
g20
s(g258
I7
tp2632
g3
s(g336
I4
tp2633
g3
s(S'/home/clayton/grive/pics/3w0D1FB1C2-D30A-E25F-2EBB-27E9151B697F.jpg'
p2634
I20
tp2635
g3
s(S'/home/clayton/grive/pics/1w11C902A3-3D0A-1956-0538-6B9806AA4F9F.jpg'
p2636
I64
tp2637
g20
s(S'/home/clayton/grive/pics/4w345D99A7-58C3-9A8D-4DBE-F0039637562A.jpg'
p2638
I15
tp2639
g3
s(S'/home/clayton/grive/pics/6w17B211E6-BF03-6BE8-3E13-EFF255F37851.jpg'
p2640
I20
tp2641
g10
s(S'/home/clayton/grive/pics/6w9D75EFDC-3AE6-E0D7-C7F4-28316CCF01BA.jpg'
p2642
I109
tp2643
g10
s(S'/home/clayton/grive/pics/2wF9371CDA-417F-992A-A6BC-DD6373EF9014.jpg'
p2644
I20
tp2645
g20
s(S'/home/clayton/grive/pics/1KuoGlassesSad.jpg'
p2646
I60
tp2647
g20
s(S'/home/clayton/grive/pics/3m3489e795-35d9-4bc6-83c2-0b80c5b780ea.jpg'
p2648
I13
tp2649
g20
s(S'/home/clayton/grive/pics/1m9660a96e-a888-40cd-b380-7d3761693c17.jpg'
p2650
I61
tp2651
g3
s(S'/home/clayton/grive/pics/4w038FF51B-B514-1E4A-1F79-37ACE961D312.jpg'
p2652
I39
tp2653
g3
s(S'/home/clayton/grive/pics/4wBE6C87EF-3D62-189A-34DB-33F0A359A14F.jpg'
p2654
I23
tp2655
g20
s(S'/home/clayton/grive/pics/0w6B887E6C-D9CE-E590-E3F0-6B34BF5BA23A.jpg'
p2656
I18
tp2657
g40
s(g643
I8
tp2658
g43
s(S'/home/clayton/grive/pics/2w3AC58273-1249-F4C2-3A1C-289D10094EB9.jpg'
p2659
I102
tp2660
g20
s(S'/home/clayton/grive/pics/3w221CD601-3CC2-CE4F-C761-F0073C97F0C5.jpg'
p2661
I10
tp2662
g3
s(S'/home/clayton/grive/pics/0w275D2B77-AD50-E6CD-0121-D80138F626AC.jpg'
p2663
I54
tp2664
g40
s(S'/home/clayton/grive/pics/6wEED45041-BE05-1F78-5044-2EF641914EDD.jpg'
p2665
I69
tp2666
g10
s(S'/home/clayton/grive/pics/4wB6218480-F680-6013-04E0-38A57AE3C9A5.jpg'
p2667
I58
tp2668
g20
s(S'/home/clayton/grive/pics/3w5F3E20F0-CA15-AB7C-C873-3329D70151F2.jpg'
p2669
I28
tp2670
g3
s(g1187
I20
tp2671
g3
s(S'/home/clayton/grive/pics/0w0D06F3B2-6808-7A67-1A70-EFE381C4F509.jpg'
p2672
I26
tp2673
g40
s(S'/home/clayton/grive/pics/3wA8290F86-C077-9F89-F9F7-464D6C6DEA5F.jpg'
p2674
I43
tp2675
g20
s(S'/home/clayton/grive/pics/1w7F2BE16D-8A7C-F883-8CFE-EFF8C9D10E88.jpg'
p2676
I23
tp2677
g20
s(S'/home/clayton/grive/pics/2wD4EB92C9-4F2D-BEA4-25DD-EFD882F1442E.jpg'
p2678
I29
tp2679
g20
s(S'/home/clayton/grive/pics/2wEE5FC257-9937-1847-8A4C-31E98B5E3AC3.jpg'
p2680
I5
tp2681
g3
s(S'/home/clayton/grive/pics/3w66F66B26-FBE8-A425-CDA6-D0273FBE14F2.jpg'
p2682
I50
tp2683
g3
s(g1713
I30
tp2684
g3
s(S'/home/clayton/grive/pics/4w7EA25B92-1336-94C0-FB2D-EFDA52371B47.jpg'
p2685
I10
tp2686
g20
s(g870
I8
tp2687
g3
s(g262
I4
tp2688
g43
s(g2370
I30
tp2689
g20
s(S'/home/clayton/grive/pics/5wF51ABC70-E908-AA82-8C29-D8B59FE8C62F.jpg'
p2690
I56
tp2691
g10
s(S'/home/clayton/grive/pics/5w7EA25B92-1336-94C0-FB2D-EFDA52371B47.jpg'
p2692
I8
tp2693
g10
s(S'/home/clayton/grive/pics/6wE953282F-1713-2679-406D-285C8932B012.jpg'
p2694
I23
tp2695
g10
s(S'/home/clayton/grive/pics/2wAF00C89F-447F-4CD2-7885-EFFB17DF9144.jpg'
p2696
I43
tp2697
g20
s(g1743
I11
tp2698
g3
s(S'/home/clayton/grive/pics/2w455E62E6-5EAF-9986-F10E-383E9405062F.jpg'
p2699
I73
tp2700
g20
s(S'/home/clayton/grive/pics/2wCADCAECA-D3E7-342A-07FA-4652ED88FBA9.jpg'
p2701
I5
tp2702
g3
s(S'/home/clayton/grive/pics/0wF38C5939-5878-3826-255B-37EF8300E8D1.jpg'
p2703
I27
tp2704
g40
s(g2680
I26
tp2705
g20
s(S'/home/clayton/grive/pics/2w7F2BE16D-8A7C-F883-8CFE-EFF8C9D10E88.jpg'
p2706
I5
tp2707
g3
s(g364
I8
tp2708
g43
s(S'/home/clayton/grive/pics/0KuoHappy2.jpg'
p2709
I112
tp2710
g40
s(S'/home/clayton/grive/pics/3wC2ADD546-AB36-C43C-E84D-EFF00579620B.jpg'
p2711
I4
tp2712
g3
s(S'/home/clayton/grive/pics/1wF81457BB-C846-A3E9-4C02-DD6128BED15B.jpg'
p2713
I91
tp2714
g3
s(S'/home/clayton/grive/pics/3w1DA4F3B0-46AF-07D5-6E56-2A8D17618C41.jpg'
p2715
I42
tp2716
g3
s(S'/home/clayton/grive/pics/5m81793c88-5a77-4c1a-96b9-19113f792758.jpg'
p2717
I57
tp2718
g10
s(S'/home/clayton/grive/pics/5w221CD601-3CC2-CE4F-C761-F0073C97F0C5.jpg'
p2719
I13
tp2720
g43
s(g754
I35
tp2721
g3
s(S'/home/clayton/grive/pics/1wE1F57AF5-064C-9BD6-AE25-F007E6803651.jpg'
p2722
I55
tp2723
g3
s(g35
I5
tp2724
g37
s(S'/home/clayton/grive/pics/1w6A3CAB4F-95AC-25CB-4CD4-2D0EA445F376.jpg'
p2725
I54
tp2726
g20
s(S'/home/clayton/grive/pics/5m53633fb0-91e3-4336-8db7-0f2ed20929f7.jpg'
p2727
I27
tp2728
g10
s(S'/home/clayton/grive/pics/2wB3B65A5B-6FD6-FB6B-DC2C-3797ABC3D83E.jpg'
p2729
I58
tp2730
g3
s(S'/home/clayton/grive/pics/5w23C4FE8C-F60F-F7A0-209F-EFEDBF964235.jpg'
p2731
I11
tp2732
g43
s(g104
I25
tp2733
g43
s(S'/home/clayton/grive/pics/6wB3B65A5B-6FD6-FB6B-DC2C-3797ABC3D83E.jpg'
p2734
I35
tp2735
g10
s(S'/home/clayton/grive/pics/6wE91A57C8-8766-64BA-4E1F-33C5F731BCE4.jpg'
p2736
I44
tp2737
g10
s(g58
I7
tp2738
g43
s(S'/home/clayton/grive/pics/5m158a7b3d-0ea7-4403-ba3e-16b56aaa4db0.jpg'
p2739
I50
tp2740
g43
s(g2648
I16
tp2741
g3
s(S'/home/clayton/grive/pics/1w4ACD6E21-0751-DEA6-DB60-2F0500DBF231.jpg'
p2742
I75
tp2743
g20
s(S'/home/clayton/grive/pics/0m58c6be84-7243-4efb-b579-ce026defc3d2.jpg'
p2744
I25
tp2745
g40
s(S'/home/clayton/grive/pics/5m38b89e01-3e85-484d-b908-782035034769.jpg'
p2746
I23
tp2747
g10
s(S'/home/clayton/grive/pics/0happy1.JPG'
p2748
I90
tp2749
g40
s(S'/home/clayton/grive/pics/6wBE3974B4-A678-56B4-9610-286BC7FB53FC.jpg'
p2750
I80
tp2751
g10
s(g1273
I6
tp2752
g15
s(S'/home/clayton/grive/pics/4m040789e6-8b61-484e-b935-203eeeaf5a7f.jpg'
p2753
I74
tp2754
g20
s(S'/home/clayton/grive/pics/6wC89E1EA6-6B03-0107-19C6-312038C89CA1.jpg'
p2755
I83
tp2756
g10
s(S'/home/clayton/grive/pics/0wCB4A8AF8-BFDA-62AB-F96C-F00E4F7BFBE2.jpg'
p2757
I24
tp2758
g40
s(g1342
I8
tp2759
g20
s(g2229
I26
tp2760
g3
s(S'/home/clayton/grive/pics/2m3a33b8ba-bfdc-4061-a7b3-4c7fcc6839b7.jpg'
p2761
I96
tp2762
g20
s(g848
I19
tp2763
g3
s(S'/home/clayton/grive/pics/0w86213EB0-EFE5-91A5-6308-4CE43B9C4ABB.jpg'
p2764
I36
tp2765
g40
s(S'/home/clayton/grive/pics/4w1F9D7616-B031-13BA-2CF1-332BB1E15DC2.jpg'
p2766
I39
tp2767
g20
s(S'/home/clayton/grive/pics/5w9A37A263-9801-0A1A-312E-3334DD7F32AC.jpg'
p2768
I57
tp2769
g10
s(S'/home/clayton/grive/pics/4wB327C73A-CBE4-4E6F-85BE-37EFF9F68B2E.jpg'
p2770
I11
tp2771
g3
s(S'/home/clayton/grive/pics/3wEE5FC257-9937-1847-8A4C-31E98B5E3AC3.jpg'
p2772
I32
tp2773
g3
s(S'/home/clayton/grive/pics/1w98D0D5C2-5A24-77C4-893C-389C780B22BF.jpg'
p2774
I29
tp2775
g20
s(S'/home/clayton/grive/pics/6w345D99A7-58C3-9A8D-4DBE-F0039637562A.jpg'
p2776
I19
tp2777
g10
s(S'/home/clayton/grive/pics/6w86213EB0-EFE5-91A5-6308-4CE43B9C4ABB.jpg'
p2778
I48
tp2779
g10
s(S'/home/clayton/grive/pics/5w6C9F7832-CE9D-15A0-5DA4-6B8CFF5E8490.jpg'
p2780
I80
tp2781
g10
s(S'/home/clayton/grive/pics/0w6A3CAB4F-95AC-25CB-4CD4-2D0EA445F376.jpg'
p2782
I71
tp2783
g40
s(g1395
I16
tp2784
g3
s(S'/home/clayton/grive/pics/6w4A42FC32-7901-26E1-A91B-33331AA34C92.jpg'
p2785
I37
tp2786
g10
s(S'/home/clayton/grive/pics/1mfeef873d-a3d3-409a-b559-85c7ecff3bba.jpg'
p2787
I31
tp2788
g3
s(g168
I17
tp2789
g20
s(S'/home/clayton/grive/pics/1wFA3A2A73-D799-1F82-B7C9-6B922E50F6D3.jpg'
p2790
I64
tp2791
g3
s(S'/home/clayton/grive/pics/4w9DC9791F-43FF-A0F2-136E-27278922DE8B.jpg'
p2792
I14
tp2793
g3
s(S'/home/clayton/grive/pics/4m5b216672-8484-4348-b9ab-3f0437fe53dc.jpg'
p2794
I7
tp2795
g20
s(S'/home/clayton/grive/pics/0Happy.jpg'
p2796
I60
tp2797
g40
s(S'/home/clayton/grive/pics/4maa24e3dd-73b7-43bb-9668-26cf6b146f58.jpg'
p2798
I40
tp2799
g20
s(S'/home/clayton/grive/pics/3wE0F39B0C-94A5-8BD4-61A2-EFE587012FA0.jpg'
p2800
I5
tp2801
g3
s(g518
I4
tp2802
g43
s(S'/home/clayton/grive/pics/4w6D8B00F1-237C-5070-C5C5-2725674902D4.jpg'
p2803
I82
tp2804
g20
s(S'/home/clayton/grive/pics/2wE0F39B0C-94A5-8BD4-61A2-EFE587012FA0.jpg'
p2805
I12
tp2806
g20
s(S'/home/clayton/grive/pics/6w2EF2AD95-51F3-FC29-E168-F00CBA1039A6.jpg'
p2807
I16
tp2808
g43
s(S'/home/clayton/grive/pics/5mee953784-3873-4738-a45f-15bf2d546bdf.jpg'
p2809
I12
tp2810
g10
s(S'/home/clayton/grive/pics/5wF9371CDA-417F-992A-A6BC-DD6373EF9014.jpg'
p2811
I61
tp2812
g10
s(g2212
I36
tp2813
g43
s(g1081
I4
tp2814
g3
s(S'/home/clayton/grive/pics/0w8EC27280-1A0E-1E4D-29EA-EFF6FEF7C705.jpg'
p2815
I30
tp2816
g40
s(S'/home/clayton/grive/pics/2w11C902A3-3D0A-1956-0538-6B9806AA4F9F.jpg'
p2817
I55
tp2818
g20
s(S'/home/clayton/grive/pics/0happy9.JPG'
p2819
I14
tp2820
g40
s(S'/home/clayton/grive/pics/3w45F00E26-EEF8-ADBC-B511-379A0FB86DFF.jpg'
p2821
I19
tp2822
g20
s(S'/home/clayton/grive/pics/5w66F66B26-FBE8-A425-CDA6-D0273FBE14F2.jpg'
p2823
I36
tp2824
g10
s(S'/home/clayton/grive/pics/0w9CF2D657-F38A-A867-1844-64AF3A43DEAA.jpg'
p2825
I22
tp2826
g40
s(g394
I6
tp2827
g37
s(S'/home/clayton/grive/pics/0happy10.JPG'
p2828
I88
tp2829
g40
s(S'/home/clayton/grive/pics/1mbfafedbe-f2cf-4c12-b287-c50e7850c5eb.jpg'
p2830
I85
tp2831
g20
s(S'/home/clayton/grive/pics/0mee953784-3873-4738-a45f-15bf2d546bdf.jpg'
p2832
I5
tp2833
g40
s(S'/home/clayton/grive/pics/5w514E3E36-1CFE-F72D-C4B3-EFEBDD4798A6.jpg'
p2834
I19
tp2835
g43
s(S'/home/clayton/grive/pics/3w5F94C6B9-8556-11D3-8267-EFFDD1F1CD4B.jpg'
p2836
I51
tp2837
g20
s(S'/home/clayton/grive/pics/3wF81457BB-C846-A3E9-4C02-DD6128BED15B.jpg'
p2838
I68
tp2839
g20
s(S'/home/clayton/grive/pics/1Sad.jpg (Case Conflict 1)'
p2840
I60
tp2841
g20
s(S'/home/clayton/grive/pics/0w9DC9791F-43FF-A0F2-136E-27278922DE8B.jpg'
p2842
I26
tp2843
g40
s(g1275
I56
tp2844
g20
s(g6
I10
tp2845
g3
s(S'/home/clayton/grive/pics/2w5465E952-2333-F4F0-922E-D82211FE562D.jpg'
p2846
I18
tp2847
g20
s(S'/home/clayton/grive/pics/4w7F7338BC-E565-8DED-FB80-46627677A6C7.jpg'
p2848
I72
tp2849
g3
s(S'/home/clayton/grive/pics/1w75A71932-7631-6493-AA4D-CD72B83F1138.jpg'
p2850
I64
tp2851
g20
s(S'/home/clayton/grive/pics/4w79D4D2F8-3794-9B73-B7D1-EFEF32720063.jpg'
p2852
I28
tp2853
g3
s(S'/home/clayton/grive/pics/2w77C09460-F810-F1E2-D2AC-EFE8805E512A.jpg'
p2854
I4
tp2855
g3
s(S'/home/clayton/grive/pics/4w6B887E6C-D9CE-E590-E3F0-6B34BF5BA23A.jpg'
p2856
I20
tp2857
g3
s(S'/home/clayton/grive/pics/2wF81457BB-C846-A3E9-4C02-DD6128BED15B.jpg'
p2858
I113
tp2859
g3
s(S'/home/clayton/grive/pics/4w3F606B5D-77FB-F545-EEF4-36CCC8791888.jpg'
p2860
I24
tp2861
g3
s(S'/home/clayton/grive/pics/2wCC78F689-E22B-23A4-2B55-3336F8A9B35C.jpg'
p2862
I55
tp2863
g20
s(S'/home/clayton/grive/pics/4wEED45041-BE05-1F78-5044-2EF641914EDD.jpg'
p2864
I78
tp2865
g3
s(S'/home/clayton/grive/pics/4w8CE97341-98AC-5D5E-73AB-46736817D056.jpg'
p2866
I7
tp2867
g3
s(g1923
I20
tp2868
g20
s(S'/home/clayton/grive/pics/5m6ccb14e5-001d-499c-9d77-979759f7986b.jpg'
p2869
I39
tp2870
g10
s(S'/home/clayton/grive/pics/5w9DC9791F-43FF-A0F2-136E-27278922DE8B.jpg'
p2871
I25
tp2872
g43
s(S'/home/clayton/grive/pics/1w9E129634-2C33-C86B-30F7-6B6F8AB2AF22.jpg'
p2873
I40
tp2874
g20
s(S'/home/clayton/grive/pics/2w453B0D9A-7B7C-9A9F-3D97-F00362CCA49C.jpg'
p2875
I24
tp2876
g20
s(S'/home/clayton/grive/pics/2w8772ED2F-20D8-F4F8-64C1-EFFBA3790753.jpg'
p2877
I13
tp2878
g20
s(S'/home/clayton/grive/pics/3mcd66cc8e-1866-429d-af90-c2c756395882.jpg'
p2879
I6
tp2880
g3
s(S'/home/clayton/grive/pics/4w0A63D31C-0B59-BFF2-4F27-46B385316AD7.jpg'
p2881
I31
tp2882
g20
s(S'/home/clayton/grive/pics/6w233E62AD-7E9F-FF61-F5E5-EFFC288A76F9.jpg'
p2883
I49
tp2884
g10
s(S'/home/clayton/grive/pics/5wB3B65A5B-6FD6-FB6B-DC2C-3797ABC3D83E.jpg'
p2885
I60
tp2886
g43
s(g2058
I53
tp2887
g20
s(S'/home/clayton/grive/pics/5w8A998EFF-7A50-74D3-B69B-EFE0E7C90AA0.jpg'
p2888
I33
tp2889
g43
s(S'/home/clayton/grive/pics/2w79B28E67-96B7-EB0D-9A75-EFFEDB8F577D.jpg'
p2890
I45
tp2891
g20
s(S'/home/clayton/grive/pics/5w6D37274F-6971-2063-C29B-4671208BF5AE.jpg'
p2892
I7
tp2893
g43
s(S'/home/clayton/grive/pics/0happy3.JPG'
p2894
I36
tp2895
g40
s(S'/home/clayton/grive/pics/4w79B28E67-96B7-EB0D-9A75-EFFEDB8F577D.jpg'
p2896
I52
tp2897
g20
s(S'/home/clayton/grive/pics/3w4ACD6E21-0751-DEA6-DB60-2F0500DBF231.jpg'
p2898
I88
tp2899
g20
s(S'/home/clayton/grive/pics/4w2C6C7917-E34A-87BF-D366-2849EADFBD8B.jpg'
p2900
I26
tp2901
g20
s(S'/home/clayton/grive/pics/0DSCN0305.JPG'
p2902
I82
tp2903
g40
s(S'/home/clayton/grive/pics/5md99d5900-5461-41eb-adb1-8681a6885dc6.jpg'
p2904
I35
tp2905
g10
s(g178
I30
tp2906
g15
s(S'/home/clayton/grive/pics/0w1522DE41-3A6C-DEA0-CB4C-46E4E637BE61.jpg'
p2907
I34
tp2908
g40
s(g888
I10
tp2909
g3
s(S'/home/clayton/grive/pics/4w455E62E6-5EAF-9986-F10E-383E9405062F.jpg'
p2910
I59
tp2911
g3
s(S'/home/clayton/grive/pics/0wE0F39B0C-94A5-8BD4-61A2-EFE587012FA0.jpg'
p2912
I8
tp2913
g37
s(S'/home/clayton/grive/pics/0w12EC627A-1192-EC96-EEC9-489DEAE24E0B.jpg'
p2914
I48
tp2915
g40
s(S'/home/clayton/grive/pics/0w221CD601-3CC2-CE4F-C761-F0073C97F0C5.jpg'
p2916
I10
tp2917
g15
s(S'/home/clayton/grive/pics/6m709ed245-1794-48b2-99f4-73cae971abbf.jpg'
p2918
I5
tp2919
g43
s(S'/home/clayton/grive/pics/6w11C902A3-3D0A-1956-0538-6B9806AA4F9F.jpg'
p2920
I60
tp2921
g10
s(S'/home/clayton/grive/pics/0happy2.JPG'
p2922
I72
tp2923
g40
s(S'/home/clayton/grive/pics/1wB327C73A-CBE4-4E6F-85BE-37EFF9F68B2E.jpg'
p2924
I38
tp2925
g3
s(S'/home/clayton/grive/pics/2w6C9F7832-CE9D-15A0-5DA4-6B8CFF5E8490.jpg'
p2926
I66
tp2927
g3
s(S'/home/clayton/grive/pics/6DSCN0303.JPG'
p2928
I82
tp2929
g10
s(S'/home/clayton/grive/pics/3wD7662DB4-ED2D-0E94-3A81-F002716EC18A.jpg'
p2930
I11
tp2931
g20
s(S'/home/clayton/grive/pics/4w57166D0D-8403-104C-6BEA-2F07DBC2E389.jpg'
p2932
I14
tp2933
g20
s(S'/home/clayton/grive/pics/1w5F3E20F0-CA15-AB7C-C873-3329D70151F2.jpg'
p2934
I37
tp2935
g3
s(S'/home/clayton/grive/pics/4wD9E9B0A8-7D98-A0F3-9A06-37ECA03E6425.jpg'
p2936
I55
tp2937
g3
s(g2436
I97
tp2938
g40
s(g310
I5
tp2939
g3
s(S'/home/clayton/grive/pics/4w5465E952-2333-F4F0-922E-D82211FE562D.jpg'
p2940
I19
tp2941
g3
s(g1975
I8
tp2942
g43
s(S'/home/clayton/grive/pics/4w422A3E39-00CD-54DC-F42A-332478449BD6.jpg'
p2943
I70
tp2944
g20
s(S'/home/clayton/grive/pics/6m81793c88-5a77-4c1a-96b9-19113f792758.jpg'
p2945
I58
tp2946
g10
s(S'/home/clayton/grive/pics/2w422A3E39-00CD-54DC-F42A-332478449BD6.jpg'
p2947
I89
tp2948
g20
s(S'/home/clayton/grive/pics/6m57519cd1-d254-41e5-9418-09b11ad66a50.jpg'
p2949
I26
tp2950
g10
s(S'/home/clayton/grive/pics/2w04AB60B8-053D-0086-A395-4698C6ECDA34.jpg'
p2951
I60
tp2952
g3
s(g2916
I16
tp2953
g37
s(g489
I7
tp2954
g3
s(g2527
I5
tp2955
g43
s(g1062
I5
tp2956
g43
s(S'/home/clayton/grive/pics/6w8A998EFF-7A50-74D3-B69B-EFE0E7C90AA0.jpg'
p2957
I26
tp2958
g10
s(g2772
I17
tp2959
g3
s(S'/home/clayton/grive/pics/0w23C4FE8C-F60F-F7A0-209F-EFEDBF964235.jpg'
p2960
I20
tp2961
g40
s(g1027
I45
tp2962
g3
s(S'/home/clayton/grive/pics/5w1DA4F3B0-46AF-07D5-6E56-2A8D17618C41.jpg'
p2963
I69
tp2964
g10
s(S'/home/clayton/grive/pics/2w2B02DD01-5BAB-ABA0-2EAF-3833D439A739.jpg'
p2965
I133
tp2966
g20
s(S'/home/clayton/grive/pics/6w70574034-301E-9568-EB56-389E0E002C5E.jpg'
p2967
I51
tp2968
g10
s(S'/home/clayton/grive/pics/3w5D592E12-AEF9-B530-374E-3322B125D1A1.jpg'
p2969
I93
tp2970
g3
s(g1072
I7
tp2971
g37
s(S'/home/clayton/grive/pics/0m354dbab3-cc44-4fa5-a76b-1832158454cd.jpg'
p2972
I5
tp2973
g40
s(g1677
I24
tp2974
g43
s(g1622
I12
tp2975
g20
s(S'/home/clayton/grive/pics/6w1522DE41-3A6C-DEA0-CB4C-46E4E637BE61.jpg'
p2976
I39
tp2977
g43
s(S'/home/clayton/grive/pics/0wAEFC7C09-CD73-3B8E-A369-7AFA0E31AF3D.jpg'
p2978
I16
tp2979
g40
s(S'/home/clayton/grive/pics/2w39D34F71-9398-68F2-4F8C-F0102C7A0F3C.jpg'
p2980
I8
tp2981
g20
s(S'/home/clayton/grive/pics/5wF38C5939-5878-3826-255B-37EF8300E8D1.jpg'
p2982
I49
tp2983
g10
s(g2770
I51
tp2984
g20
s(S'/home/clayton/grive/pics/0wB7455899-8A91-0D14-67FB-3326BB8944DD.jpg'
p2985
I84
tp2986
g40
s(S'/home/clayton/grive/pics/2w8EC27280-1A0E-1E4D-29EA-EFF6FEF7C705.jpg'
p2987
I30
tp2988
g20
s(g248
I4
tp2989
g43
s(S'/home/clayton/grive/pics/1w5D592E12-AEF9-B530-374E-3322B125D1A1.jpg'
p2990
I95
tp2991
g3
s(g2351
I49
tp2992
g3
s(g1167
I15
tp2993
g3
s(S'/home/clayton/grive/pics/3wAE00083F-0B9D-4EED-63B7-2757C366CB50.jpg'
p2994
I65
tp2995
g3
s(S'/home/clayton/grive/pics/6w514E3E36-1CFE-F72D-C4B3-EFEBDD4798A6.jpg'
p2996
I10
tp2997
g10
s(g779
I8
tp2998
g3
s(S'/home/clayton/grive/pics/0wF60A9437-78B3-BDE2-BCD1-EFFEB41D538F.jpg'
p2999
I25
tp3000
g40
s(S'/home/clayton/grive/pics/0wE579115D-288C-F313-6988-EFDB2EB5D4BF.jpg'
p3001
I18
tp3002
g40
s(S'/home/clayton/grive/pics/6w221CD601-3CC2-CE4F-C761-F0073C97F0C5.jpg'
p3003
I11
tp3004
g43
s(S'/home/clayton/grive/pics/1m4b57e50c-264c-4921-b4ca-8db06d561bcd.jpg'
p3005
I61
tp3006
g3
s(S'/home/clayton/grive/pics/5m9660a96e-a888-40cd-b380-7d3761693c17.jpg'
p3007
I97
tp3008
g43
s(S'/home/clayton/grive/pics/6m6ccb14e5-001d-499c-9d77-979759f7986b.jpg'
p3009
I22
tp3010
g10
s(g767
I31
tp3011
g20
s(g2672
I6
tp3012
g15
s(S'/home/clayton/grive/pics/6wC2ADD546-AB36-C43C-E84D-EFF00579620B.jpg'
p3013
I24
tp3014
g43
s(S'/home/clayton/grive/pics/6wD61ACB92-52ED-6679-0D80-38A0B91ACF94.jpg'
p3015
I61
tp3016
g10
s(S'/home/clayton/grive/pics/2w66F66B26-FBE8-A425-CDA6-D0273FBE14F2.jpg'
p3017
I13
tp3018
g20
s(S'/home/clayton/grive/pics/4w2EF2AD95-51F3-FC29-E168-F00CBA1039A6.jpg'
p3019
I14
tp3020
g20
s(S'/home/clayton/grive/pics/5w04AB60B8-053D-0086-A395-4698C6ECDA34.jpg'
p3021
I58
tp3022
g10
s(S'/home/clayton/grive/pics/4wA8290F86-C077-9F89-F9F7-464D6C6DEA5F.jpg'
p3023
I46
tp3024
g20
s(S'/home/clayton/grive/pics/6KuoGlassesNeutral.jpg'
p3025
I77
tp3026
g10
s(g671
I4
tp3027
g37
s(g1350
I44
tp3028
g20
s(g508
I9
tp3029
g37
s(S'/home/clayton/grive/pics/4m53633fb0-91e3-4336-8db7-0f2ed20929f7.jpg'
p3030
I11
tp3031
g20
s(S'/home/clayton/grive/pics/1wBE6C87EF-3D62-189A-34DB-33F0A359A14F.jpg'
p3032
I19
tp3033
g3
s(S'/home/clayton/grive/pics/0wF81457BB-C846-A3E9-4C02-DD6128BED15B.jpg'
p3034
I97
tp3035
g40
s(S'/home/clayton/grive/pics/6w8EC27280-1A0E-1E4D-29EA-EFF6FEF7C705.jpg'
p3036
I38
tp3037
g10
s(S'/home/clayton/grive/pics/6w9CF2D657-F38A-A867-1844-64AF3A43DEAA.jpg'
p3038
I33
tp3039
g10
s(S'/home/clayton/grive/pics/5w10F317F3-9F1E-F59C-B335-38A8ADEE47AF.jpg'
p3040
I51
tp3041
g10
s(g1120
I7
tp3042
g3
s(S'/home/clayton/grive/pics/4Snapshot_20130218_2.JPG'
p3043
I56
tp3044
g20
s(g2682
I7
tp3045
g3
s(S'/home/clayton/grive/pics/2w221CD601-3CC2-CE4F-C761-F0073C97F0C5.jpg'
p3046
I12
tp3047
g3
s(S'/home/clayton/grive/pics/0w8C431FA1-7A06-58B5-4FDB-EFF2BCDEFC0C.jpg'
p3048
I12
tp3049
g37
s(g1895
I4
tp3050
g43
s(S'/home/clayton/grive/pics/1w4123FC40-659C-BBF1-A29E-29652EC92828.jpg'
p3051
I60
tp3052
g3
s(S'/home/clayton/grive/pics/4wF51ABC70-E908-AA82-8C29-D8B59FE8C62F.jpg'
p3053
I44
tp3054
g3
s(S'/home/clayton/grive/pics/2wBE3974B4-A678-56B4-9610-286BC7FB53FC.jpg'
p3055
I89
tp3056
g20
s(S'/home/clayton/grive/pics/1m3489e795-35d9-4bc6-83c2-0b80c5b780ea.jpg'
p3057
I28
tp3058
g3
s(g2628
I14
tp3059
g10
s(S'/home/clayton/grive/pics/3w70574034-301E-9568-EB56-389E0E002C5E.jpg'
p3060
I50
tp3061
g3
s(S'/home/clayton/grive/pics/6wCDB694D9-BD6D-9794-0202-EFEF6E711F61.jpg'
p3062
I31
tp3063
g10
s(S'/home/clayton/grive/pics/5wBE3974B4-A678-56B4-9610-286BC7FB53FC.jpg'
p3064
I82
tp3065
g10
s(S'/home/clayton/grive/pics/2wC6AB8E45-0D08-5231-7C41-EFF50AB9F865.jpg'
p3066
I33
tp3067
g20
s(g2918
I63
tp3068
g10
s(S'/home/clayton/grive/pics/4m89be575f-50b5-4d23-b6d7-940a46e9c030.jpg'
p3069
I44
tp3070
g20
s(S'/home/clayton/grive/pics/6wCB4A8AF8-BFDA-62AB-F96C-F00E4F7BFBE2.jpg'
p3071
I10
tp3072
g43
s(S'/home/clayton/grive/pics/2w837D0871-935B-7E8E-A689-F00B320588E7.jpg'
p3073
I9
tp3074
g3
s(S'/home/clayton/grive/pics/6maa24e3dd-73b7-43bb-9668-26cf6b146f58.jpg'
p3075
I47
tp3076
g10
s(S'/home/clayton/grive/pics/6wAE00083F-0B9D-4EED-63B7-2757C366CB50.jpg'
p3077
I64
tp3078
g10
s(S'/home/clayton/grive/pics/3wE0CA5A8E-D4F8-F93F-8845-CD71832C5BEC.jpg'
p3079
I48
tp3080
g20
s(S'/home/clayton/grive/pics/1wB7455899-8A91-0D14-67FB-3326BB8944DD.jpg'
p3081
I73
tp3082
g3
s(S'/home/clayton/grive/pics/2mbb625c3c-721b-4e37-9aa1-68684b210046.jpg'
p3083
I31
tp3084
g20
s(S'/home/clayton/grive/pics/0w345D99A7-58C3-9A8D-4DBE-F0039637562A.jpg'
p3085
I22
tp3086
g40
s(S'/home/clayton/grive/pics/1w5D981B62-3BF3-3379-219B-EFF97EC7E5A0.jpg'
p3087
I65
tp3088
g3
s(g2706
I27
tp3089
g20
s(S'/home/clayton/grive/pics/5w2EF2AD95-51F3-FC29-E168-F00CBA1039A6.jpg'
p3090
I18
tp3091
g43
s(S'/home/clayton/grive/pics/1w1DA4F3B0-46AF-07D5-6E56-2A8D17618C41.jpg'
p3092
I51
tp3093
g20
s(S'/home/clayton/grive/pics/4w62D19778-1AA6-13C2-004F-389AF747333D.jpg'
p3094
I34
tp3095
g20
s(S'/home/clayton/grive/pics/1m158a7b3d-0ea7-4403-ba3e-16b56aaa4db0.jpg'
p3096
I7
tp3097
g20
s(g2135
I45
tp3098
g10
s(S'/home/clayton/grive/pics/3w545D8371-906B-59FB-3297-3D9D8D822C99.jpg'
p3099
I7
tp3100
g3
s(S'/home/clayton/grive/pics/0w2B02DD01-5BAB-ABA0-2EAF-3833D439A739.jpg'
p3101
I138
tp3102
g40
s(S'/home/clayton/grive/pics/6m158a7b3d-0ea7-4403-ba3e-16b56aaa4db0.jpg'
p3103
I54
tp3104
g10
s.