(dp0
(S'/home/clayton/grive/pics/3wC8A7AD15-B749-2EF7-395E-3567AFF409A3.jpg'
p1
I45
tp2
S'n'
p3
s(S'/home/clayton/grive/pics/3w6583AC61-429D-C61E-715E-EFF713238241.jpg'
p4
I37
tp5
g3
s(S'/home/clayton/grive/pics/4w4123FC40-659C-BBF1-A29E-29652EC92828.jpg'
p6
I76
tp7
g3
s(S'/home/clayton/grive/pics/6m139a1aec-0c0b-440d-8a6c-7d5c8598259c.jpg'
p8
I34
tp9
S'y'
p10
s(S'/home/clayton/grive/pics/1mdb7d65e0-544b-4fd9-afc4-62fe2f96b2e1.jpg'
p11
I22
tp12
g3
s(S'/home/clayton/grive/pics/0DSCN0309.JPG'
p13
I6
tp14
S's'
p15
s(S'/home/clayton/grive/pics/3w2C9F8C42-E900-B747-C962-465A32A9CCE7.jpg'
p16
I5
tp17
g3
s(S'/home/clayton/grive/pics/4wC8A7AD15-B749-2EF7-395E-3567AFF409A3.jpg'
p18
I44
tp19
S'y'
p20
s(S'/home/clayton/grive/pics/3w2CDDD638-E92B-8EBA-60E3-F00A5BD784E3.jpg'
p21
I26
tp22
g20
s(S'/home/clayton/grive/pics/6w455E62E6-5EAF-9986-F10E-383E9405062F.jpg'
p23
I59
tp24
g10
s(S'/home/clayton/grive/pics/2w7EA25B92-1336-94C0-FB2D-EFDA52371B47.jpg'
p25
I16
tp26
g20
s(S'/home/clayton/grive/pics/2w70574034-301E-9568-EB56-389E0E002C5E.jpg'
p27
I56
tp28
g20
s(S'/home/clayton/grive/pics/3wA9A6A8C9-21F5-F703-10C9-EFE8A9410583.jpg'
p29
I4
tp30
g3
s(S'/home/clayton/grive/pics/1wA8290F86-C077-9F89-F9F7-464D6C6DEA5F.jpg'
p31
I35
tp32
g20
s(S'/home/clayton/grive/pics/4w5D981B62-3BF3-3379-219B-EFF97EC7E5A0.jpg'
p33
I54
tp34
g3
s(S'/home/clayton/grive/pics/0wDF2DC2D6-F1E3-1B71-20E2-467A671A3D60.jpg'
p35
I4
tp36
S'n'
p37
s(S'/home/clayton/grive/pics/0wA78D46C1-F503-3E91-F99D-6B2FA22B3D14.jpg'
p38
I71
tp39
S'y'
p40
s(S'/home/clayton/grive/pics/5wD6ABCA51-AA30-AB83-36E3-3D933B925793.jpg'
p41
I4
tp42
S'n'
p43
s(S'/home/clayton/grive/pics/1wD4EB92C9-4F2D-BEA4-25DD-EFD882F1442E.jpg'
p44
I21
tp45
g20
s(S'/home/clayton/grive/pics/4w12EC627A-1192-EC96-EEC9-489DEAE24E0B.jpg'
p46
I49
tp47
g20
s(S'/home/clayton/grive/pics/6w6A3CAB4F-95AC-25CB-4CD4-2D0EA445F376.jpg'
p48
I64
tp49
g10
s(S'/home/clayton/grive/pics/0w90056D7B-4D04-567E-6142-F00A0A0CACCC.jpg'
p50
I51
tp51
g40
s(S'/home/clayton/grive/pics/1w79D4D2F8-3794-9B73-B7D1-EFEF32720063.jpg'
p52
I12
tp53
g3
s(S'/home/clayton/grive/pics/3wDF2DC2D6-F1E3-1B71-20E2-467A671A3D60.jpg'
p54
I28
tp55
g3
s(S'/home/clayton/grive/pics/4w90056D7B-4D04-567E-6142-F00A0A0CACCC.jpg'
p56
I28
tp57
g3
s(S'/home/clayton/grive/pics/6m4ed4b5c3-8594-4921-981d-970fc18d5fea.jpg'
p58
I4
tp59
g43
s(S'/home/clayton/grive/pics/5m040789e6-8b61-484e-b935-203eeeaf5a7f.jpg'
p60
I72
tp61
g20
s(S'/home/clayton/grive/pics/4wEE5FC257-9937-1847-8A4C-31E98B5E3AC3.jpg'
p62
I47
tp63
g3
s(S'/home/clayton/grive/pics/6wF9371CDA-417F-992A-A6BC-DD6373EF9014.jpg'
p64
I57
tp65
g10
s(S'/home/clayton/grive/pics/6w77EDF533-C254-FD89-6404-4660A2F03302.jpg'
p66
I42
tp67
g10
s(S'/home/clayton/grive/pics/0wB75D3F87-A36C-1CFC-5730-28E28C577A75.jpg'
p68
I74
tp69
g40
s(S'/home/clayton/grive/pics/4w9CF2D657-F38A-A867-1844-64AF3A43DEAA.jpg'
p70
I54
tp71
g20
s(S'/home/clayton/grive/pics/3wE7D19A4A-E34F-1A45-F7A2-EFF5B26C785E.jpg'
p72
I4
tp73
g3
s(S'/home/clayton/grive/pics/1m3a33b8ba-bfdc-4061-a7b3-4c7fcc6839b7.jpg'
p74
I84
tp75
g20
s(S'/home/clayton/grive/pics/3wB3B65A5B-6FD6-FB6B-DC2C-3797ABC3D83E.jpg'
p76
I43
tp77
g3
s(S'/home/clayton/grive/pics/6mdb7d65e0-544b-4fd9-afc4-62fe2f96b2e1.jpg'
p78
I17
tp79
g10
s(S'/home/clayton/grive/pics/6w3439D79B-2F14-0A7C-A485-3D9751A5715E.jpg'
p80
I27
tp81
g10
s(S'/home/clayton/grive/pics/3mee953784-3873-4738-a45f-15bf2d546bdf.jpg'
p82
I11
tp83
g3
s(S'/home/clayton/grive/pics/1Snapshot_20130218_5.JPG'
p84
I53
tp85
g20
s(S'/home/clayton/grive/pics/4m0792947c-37db-4047-bef9-7a582d6f6fca.jpg'
p86
I19
tp87
g20
s(S'/home/clayton/grive/pics/3w62D19778-1AA6-13C2-004F-389AF747333D.jpg'
p88
I17
tp89
g20
s(S'/home/clayton/grive/pics/3w7B52AA0B-3547-4AAC-D109-389D5596BF39.jpg'
p90
I31
tp91
g20
s(S'/home/clayton/grive/pics/4w6C9F7832-CE9D-15A0-5DA4-6B8CFF5E8490.jpg'
p92
I67
tp93
g20
s(S'/home/clayton/grive/pics/4w8EC27280-1A0E-1E4D-29EA-EFF6FEF7C705.jpg'
p94
I23
tp95
g3
s(S'/home/clayton/grive/pics/3Surprised.jpg (Case Conflict 2)'
p96
I37
tp97
g20
s(S'/home/clayton/grive/pics/1w86213EB0-EFE5-91A5-6308-4CE43B9C4ABB.jpg'
p98
I47
tp99
g20
s(S'/home/clayton/grive/pics/1m354dbab3-cc44-4fa5-a76b-1832158454cd.jpg'
p100
I14
tp101
g20
s(S'/home/clayton/grive/pics/5m3a33b8ba-bfdc-4061-a7b3-4c7fcc6839b7.jpg'
p102
I64
tp103
g10
s(S'/home/clayton/grive/pics/5wE6FF3C82-8BAF-EFF6-6F4B-F007379019E6.jpg'
p104
I8
tp105
g10
s(S'/home/clayton/grive/pics/0w2CDDD638-E92B-8EBA-60E3-F00A5BD784E3.jpg'
p106
I36
tp107
g40
s(S'/home/clayton/grive/pics/5w869F00B2-7F5B-6906-0CB1-EFF2FF299FD4.jpg'
p108
I5
tp109
g10
s(S'/home/clayton/grive/pics/1w2C6C7917-E34A-87BF-D366-2849EADFBD8B.jpg'
p110
I35
tp111
g3
s(S'/home/clayton/grive/pics/4md99d5900-5461-41eb-adb1-8681a6885dc6.jpg'
p112
I38
tp113
g20
s(S'/home/clayton/grive/pics/4mfdc9ff7d-8480-4e52-940b-33d65b5f09d9.jpg'
p114
I58
tp115
g3
s(S'/home/clayton/grive/pics/1wD5BE1562-F05B-1AA8-6290-37EE9C424B0E.jpg'
p116
I24
tp117
g3
s(S'/home/clayton/grive/pics/5wE953282F-1713-2679-406D-285C8932B012.jpg'
p118
I18
tp119
g43
s(S'/home/clayton/grive/pics/2w5F94C6B9-8556-11D3-8267-EFFDD1F1CD4B.jpg'
p120
I56
tp121
g3
s(S'/home/clayton/grive/pics/1wC6AB8E45-0D08-5231-7C41-EFF50AB9F865.jpg'
p122
I40
tp123
g20
s(S'/home/clayton/grive/pics/4w157643A0-E4FE-5F90-C9B1-465764731874.jpg'
p124
I29
tp125
g20
s(S'/home/clayton/grive/pics/6m38b89e01-3e85-484d-b908-782035034769.jpg'
p126
I39
tp127
g10
s(S'/home/clayton/grive/pics/6wD7662DB4-ED2D-0E94-3A81-F002716EC18A.jpg'
p128
I45
tp129
g10
s(S'/home/clayton/grive/pics/2wCFBE9FE8-526E-B206-585D-7A9FA92FD844.jpg'
p130
I74
tp131
g20
s(S'/home/clayton/grive/pics/3w547FEF42-FCBE-B966-D617-2888E39F4498.jpg'
p132
I34
tp133
g3
s(S'/home/clayton/grive/pics/2wD18772FE-63EF-7FDC-EF9A-F00545998FBB.jpg'
p134
I11
tp135
g3
s(S'/home/clayton/grive/pics/3m38b89e01-3e85-484d-b908-782035034769.jpg'
p136
I14
tp137
g3
s(S'/home/clayton/grive/pics/4w2CDDD638-E92B-8EBA-60E3-F00A5BD784E3.jpg'
p138
I16
tp139
g20
s(S'/home/clayton/grive/pics/0wAC2868E4-B636-2A84-4932-D85F939963F1.jpg'
p140
I20
tp141
g40
s(S'/home/clayton/grive/pics/2Angry.jpg (Case Conflict 2)'
p142
I62
tp143
g20
s(S'/home/clayton/grive/pics/0w1DA4F3B0-46AF-07D5-6E56-2A8D17618C41.jpg'
p144
I34
tp145
g40
s(S'/home/clayton/grive/pics/1wCDB694D9-BD6D-9794-0202-EFEF6E711F61.jpg'
p146
I33
tp147
g20
s(S'/home/clayton/grive/pics/0wA17C2882-CBD3-D872-556E-45F7E2047628.jpg'
p148
I92
tp149
g40
s(S'/home/clayton/grive/pics/2w545D8371-906B-59FB-3297-3D9D8D822C99.jpg'
p150
I46
tp151
g20
s(S'/home/clayton/grive/pics/5wDF2DC2D6-F1E3-1B71-20E2-467A671A3D60.jpg'
p152
I29
tp153
g10
s(S'/home/clayton/grive/pics/3w8CE97341-98AC-5D5E-73AB-46736817D056.jpg'
p154
I14
tp155
g3
s(S'/home/clayton/grive/pics/3wEA81AD9F-C919-7319-BDCE-333C59C6579E.jpg'
p156
I29
tp157
g3
s(S'/home/clayton/grive/pics/0wF7EB9296-7FE8-1C37-2486-4CDB6B286E59.jpg'
p158
I101
tp159
g40
s(S'/home/clayton/grive/pics/4wAC2868E4-B636-2A84-4932-D85F939963F1.jpg'
p160
I33
tp161
g20
s(S'/home/clayton/grive/pics/6w44B9D53B-EC71-47ED-AF85-EFEBF9C330AB.jpg'
p162
I7
tp163
g10
s(S'/home/clayton/grive/pics/0w6D8B00F1-237C-5070-C5C5-2725674902D4.jpg'
p164
I68
tp165
g40
s(S'/home/clayton/grive/pics/6w5D981B62-3BF3-3379-219B-EFF97EC7E5A0.jpg'
p166
I55
tp167
g10
s(S'/home/clayton/grive/pics/5w4123FC40-659C-BBF1-A29E-29652EC92828.jpg'
p168
I55
tp169
g10
s(S'/home/clayton/grive/pics/3w79D4D2F8-3794-9B73-B7D1-EFEF32720063.jpg'
p170
I6
tp171
g3
s(S'/home/clayton/grive/pics/2w17B211E6-BF03-6BE8-3E13-EFF255F37851.jpg'
p172
I12
tp173
g20
s(S'/home/clayton/grive/pics/3wF60A9437-78B3-BDE2-BCD1-EFFEB41D538F.jpg'
p174
I41
tp175
g20
s(S'/home/clayton/grive/pics/4wFF66FA36-78E6-6508-EDF0-3686176BF53D.jpg'
p176
I11
tp177
g20
s(S'/home/clayton/grive/pics/4w77EDF533-C254-FD89-6404-4660A2F03302.jpg'
p178
I15
tp179
g3
s(S'/home/clayton/grive/pics/0w17B211E6-BF03-6BE8-3E13-EFF255F37851.jpg'
p180
I11
tp181
g37
s(S'/home/clayton/grive/pics/5wE7D19A4A-E34F-1A45-F7A2-EFF5B26C785E.jpg'
p182
I10
tp183
g10
s(S'/home/clayton/grive/pics/4wE1F57AF5-064C-9BD6-AE25-F007E6803651.jpg'
p184
I54
tp185
g3
s(S'/home/clayton/grive/pics/5w4ACD6E21-0751-DEA6-DB60-2F0500DBF231.jpg'
p186
I83
tp187
g10
s(S'/home/clayton/grive/pics/2w656B02A8-518C-90F3-7234-38211A0CD399.jpg'
p188
I6
tp189
g3
s(S'/home/clayton/grive/pics/3m81793c88-5a77-4c1a-96b9-19113f792758.jpg'
p190
I72
tp191
g3
s(S'/home/clayton/grive/pics/1wE91A57C8-8766-64BA-4E1F-33C5F731BCE4.jpg'
p192
I28
tp193
g20
s(S'/home/clayton/grive/pics/4w7E85E5B5-F196-987E-51DD-2EC43C62E76D.jpg'
p194
I59
tp195
g20
s(S'/home/clayton/grive/pics/0w39D34F71-9398-68F2-4F8C-F0102C7A0F3C.jpg'
p196
I16
tp197
g40
s(S'/home/clayton/grive/pics/1wAC2868E4-B636-2A84-4932-D85F939963F1.jpg'
p198
I41
tp199
g20
s(S'/home/clayton/grive/pics/3w9FB993B7-8646-7117-CD23-27C2F4C7EC67.jpg'
p200
I105
tp201
g20
s(S'/home/clayton/grive/pics/6m89be575f-50b5-4d23-b6d7-940a46e9c030.jpg'
p202
I55
tp203
g10
s(S'/home/clayton/grive/pics/5md6e113df-509f-49d9-b0c7-905e86cc5df3.jpg'
p204
I21
tp205
g43
s(S'/home/clayton/grive/pics/4wC18279D9-47D0-4718-36BA-EFECC87D675D.jpg'
p206
I13
tp207
g20
s(S'/home/clayton/grive/pics/5wA78D46C1-F503-3E91-F99D-6B2FA22B3D14.jpg'
p208
I77
tp209
g10
s(S'/home/clayton/grive/pics/3w345D99A7-58C3-9A8D-4DBE-F0039637562A.jpg'
p210
I18
tp211
g3
s(S'/home/clayton/grive/pics/1wE7D19A4A-E34F-1A45-F7A2-EFF5B26C785E.jpg'
p212
I22
tp213
g20
s(S'/home/clayton/grive/pics/4w1522DE41-3A6C-DEA0-CB4C-46E4E637BE61.jpg'
p214
I41
tp215
g3
s(S'/home/clayton/grive/pics/5w79B28E67-96B7-EB0D-9A75-EFFEDB8F577D.jpg'
p216
I48
tp217
g10
s(S'/home/clayton/grive/pics/5m6ce740af-da51-4c19-92ce-7b9d9adba5fe.jpg'
p218
I35
tp219
g10
s(S'/home/clayton/grive/pics/6w3D74C8C9-3DC1-0E0C-4327-4CE1A9A76C25.jpg'
p220
I87
tp221
g10
s(S'/home/clayton/grive/pics/1w9CF2D657-F38A-A867-1844-64AF3A43DEAA.jpg'
p222
I24
tp223
g20
s(S'/home/clayton/grive/pics/4m709ed245-1794-48b2-99f4-73cae971abbf.jpg'
p224
I55
tp225
g3
s(S'/home/clayton/grive/pics/6neutral1.JPG'
p226
I122
tp227
g10
s(S'/home/clayton/grive/pics/5w3D74C8C9-3DC1-0E0C-4327-4CE1A9A76C25.jpg'
p228
I79
tp229
g43
s(S'/home/clayton/grive/pics/0w04AB60B8-053D-0086-A395-4698C6ECDA34.jpg'
p230
I39
tp231
g40
s(S'/home/clayton/grive/pics/2wC8A7AD15-B749-2EF7-395E-3567AFF409A3.jpg'
p232
I4
tp233
g3
s(S'/home/clayton/grive/pics/3m3f589b66-7d9c-47c1-96ae-a7749e5a0293.jpg'
p234
I4
tp235
g3
s(S'/home/clayton/grive/pics/3m139a1aec-0c0b-440d-8a6c-7d5c8598259c.jpg'
p236
I24
tp237
g20
s(S'/home/clayton/grive/pics/3m4b57e50c-264c-4921-b4ca-8db06d561bcd.jpg'
p238
I59
tp239
g20
s(S'/home/clayton/grive/pics/0m139a1aec-0c0b-440d-8a6c-7d5c8598259c.jpg'
p240
I34
tp241
g40
s(S'/home/clayton/grive/pics/4w4ACD6E21-0751-DEA6-DB60-2F0500DBF231.jpg'
p242
I111
tp243
g20
s(S'/home/clayton/grive/pics/6w3EC88953-2C9A-08EE-D3A5-465D5B7072D4.jpg'
p244
I85
tp245
g10
s(S'/home/clayton/grive/pics/5mbfafedbe-f2cf-4c12-b287-c50e7850c5eb.jpg'
p246
I22
tp247
g10
s(S'/home/clayton/grive/pics/5w8C431FA1-7A06-58B5-4FDB-EFF2BCDEFC0C.jpg'
p248
I16
tp249
g43
s(S'/home/clayton/grive/pics/2w0C837C12-99DE-6798-DCC0-6B372D9B14DF.jpg'
p250
I68
tp251
g20
s(S'/home/clayton/grive/pics/2w2C6C7917-E34A-87BF-D366-2849EADFBD8B.jpg'
p252
I22
tp253
g20
s(S'/home/clayton/grive/pics/4w99B8ED23-08A7-D462-5293-489B07663B77.jpg'
p254
I52
tp255
g20
s(S'/home/clayton/grive/pics/6w2C6C7917-E34A-87BF-D366-2849EADFBD8B.jpg'
p256
I30
tp257
g10
s(S'/home/clayton/grive/pics/3w656B02A8-518C-90F3-7234-38211A0CD399.jpg'
p258
I46
tp259
g3
s(S'/home/clayton/grive/pics/3mfeef873d-a3d3-409a-b559-85c7ecff3bba.jpg'
p260
I22
tp261
g20
s(S'/home/clayton/grive/pics/5m8e9ff3d6-a4ff-4675-848b-314010102ee8.jpg'
p262
I68
tp263
g43
s(S'/home/clayton/grive/pics/5w0D06F3B2-6808-7A67-1A70-EFE381C4F509.jpg'
p264
I4
tp265
g43
s(S'/home/clayton/grive/pics/2w0A63D31C-0B59-BFF2-4F27-46B385316AD7.jpg'
p266
I31
tp267
g20
s(S'/home/clayton/grive/pics/1wB75D3F87-A36C-1CFC-5730-28E28C577A75.jpg'
p268
I23
tp269
g3
s(S'/home/clayton/grive/pics/0KuoHappy.jpg'
p270
I99
tp271
g40
s(S'/home/clayton/grive/pics/5wA8290F86-C077-9F89-F9F7-464D6C6DEA5F.jpg'
p272
I29
tp273
g10
s(S'/home/clayton/grive/pics/3w57166D0D-8403-104C-6BEA-2F07DBC2E389.jpg'
p274
I34
tp275
g3
s(S'/home/clayton/grive/pics/4m9340b0af-fe78-4190-bcf7-13abbdf650b9.jpg'
p276
I21
tp277
g3
s(S'/home/clayton/grive/pics/3w9E129634-2C33-C86B-30F7-6B6F8AB2AF22.jpg'
p278
I5
tp279
g3
s(S'/home/clayton/grive/pics/1wA186136D-64B7-7288-372F-3843E2F6EAC4.jpg'
p280
I58
tp281
g20
s(S'/home/clayton/grive/pics/0w3AC58273-1249-F4C2-3A1C-289D10094EB9.jpg'
p282
I18
tp283
g15
s(S'/home/clayton/grive/pics/5w2CDDD638-E92B-8EBA-60E3-F00A5BD784E3.jpg'
p284
I15
tp285
g43
s(S'/home/clayton/grive/pics/6w869F00B2-7F5B-6906-0CB1-EFF2FF299FD4.jpg'
p286
I45
tp287
g10
s(S'/home/clayton/grive/pics/3w17B211E6-BF03-6BE8-3E13-EFF255F37851.jpg'
p288
I9
tp289
g3
s(S'/home/clayton/grive/pics/1w345D99A7-58C3-9A8D-4DBE-F0039637562A.jpg'
p290
I23
tp291
g3
s(S'/home/clayton/grive/pics/4wAEFC7C09-CD73-3B8E-A369-7AFA0E31AF3D.jpg'
p292
I45
tp293
g3
s(S'/home/clayton/grive/pics/3w2FF168A3-54B0-C7D9-47C9-37FA318D713D.jpg'
p294
I4
tp295
g20
s(S'/home/clayton/grive/pics/5wE1F57AF5-064C-9BD6-AE25-F007E6803651.jpg'
p296
I54
tp297
g43
s(S'/home/clayton/grive/pics/6wDF2DC2D6-F1E3-1B71-20E2-467A671A3D60.jpg'
p298
I4
tp299
g43
s(S'/home/clayton/grive/pics/0w869F00B2-7F5B-6906-0CB1-EFF2FF299FD4.jpg'
p300
I47
tp301
g40
s(S'/home/clayton/grive/pics/0w9142C5B8-00C3-B41B-B5F7-7B04092215BC.jpg'
p302
I20
tp303
g40
s(S'/home/clayton/grive/pics/2w8C431FA1-7A06-58B5-4FDB-EFF2BCDEFC0C.jpg'
p304
I25
tp305
g3
s(S'/home/clayton/grive/pics/2wFF66FA36-78E6-6508-EDF0-3686176BF53D.jpg'
p306
I20
tp307
g20
s(S'/home/clayton/grive/pics/1w3D74C8C9-3DC1-0E0C-4327-4CE1A9A76C25.jpg'
p308
I85
tp309
g3
s(S'/home/clayton/grive/pics/1wC8A7AD15-B749-2EF7-395E-3567AFF409A3.jpg'
p310
I13
tp311
g3
s(S'/home/clayton/grive/pics/3w0CC8EC66-FAA1-705C-0776-4AE9EA516A65.jpg'
p312
I4
tp313
g3
s(S'/home/clayton/grive/pics/4wF9371CDA-417F-992A-A6BC-DD6373EF9014.jpg'
p314
I55
tp315
g20
s(S'/home/clayton/grive/pics/3w5D592E12-AEF9-B530-374E-3322B125D1A1.jpg'
p316
I93
tp317
g3
s(S'/home/clayton/grive/pics/6mfdc9ff7d-8480-4e52-940b-33d65b5f09d9.jpg'
p318
I48
tp319
g10
s(S'/home/clayton/grive/pics/2w4123FC40-659C-BBF1-A29E-29652EC92828.jpg'
p320
I18
tp321
g3
s(S'/home/clayton/grive/pics/1w503AB7EB-1816-0B00-1966-EFEA502B0E95.jpg'
p322
I5
tp323
g20
s(S'/home/clayton/grive/pics/4m139a1aec-0c0b-440d-8a6c-7d5c8598259c.jpg'
p324
I35
tp325
g3
s(S'/home/clayton/grive/pics/4mbfafedbe-f2cf-4c12-b287-c50e7850c5eb.jpg'
p326
I54
tp327
g20
s(S'/home/clayton/grive/pics/1w9A37A263-9801-0A1A-312E-3334DD7F32AC.jpg'
p328
I40
tp329
g20
s(S'/home/clayton/grive/pics/4wEA81AD9F-C919-7319-BDCE-333C59C6579E.jpg'
p330
I24
tp331
g20
s(S'/home/clayton/grive/pics/1wA17C2882-CBD3-D872-556E-45F7E2047628.jpg'
p332
I9
tp333
g3
s(S'/home/clayton/grive/pics/0w422A3E39-00CD-54DC-F42A-332478449BD6.jpg'
p334
I102
tp335
g40
s(S'/home/clayton/grive/pics/4wCADCAECA-D3E7-342A-07FA-4652ED88FBA9.jpg'
p336
I26
tp337
g20
s(S'/home/clayton/grive/pics/2w1522DE41-3A6C-DEA0-CB4C-46E4E637BE61.jpg'
p338
I30
tp339
g3
s(S'/home/clayton/grive/pics/3w1522DE41-3A6C-DEA0-CB4C-46E4E637BE61.jpg'
p340
I21
tp341
g20
s(S'/home/clayton/grive/pics/2w88F7430E-6DC5-7C09-D0EC-EFF12BB629CC.jpg'
p342
I25
tp343
g20
s(S'/home/clayton/grive/pics/6w7F2BE16D-8A7C-F883-8CFE-EFF8C9D10E88.jpg'
p344
I26
tp345
g10
s(S'/home/clayton/grive/pics/0m5b216672-8484-4348-b9ab-3f0437fe53dc.jpg'
p346
I127
tp347
g40
s(S'/home/clayton/grive/pics/5w157643A0-E4FE-5F90-C9B1-465764731874.jpg'
p348
I17
tp349
g10
s(S'/home/clayton/grive/pics/3w809F0A15-03D4-873B-62D0-6B3146FEE7CF.jpg'
p350
I8
tp351
g3
s(S'/home/clayton/grive/pics/4w75B0A7BB-3879-FF92-CC05-37B01FC821E8.jpg'
p352
I31
tp353
g20
s(S'/home/clayton/grive/pics/3wC18279D9-47D0-4718-36BA-EFECC87D675D.jpg'
p354
I11
tp355
g20
s(S'/home/clayton/grive/pics/3maa24e3dd-73b7-43bb-9668-26cf6b146f58.jpg'
p356
I29
tp357
g20
s(S'/home/clayton/grive/pics/6w0D06F3B2-6808-7A67-1A70-EFE381C4F509.jpg'
p358
I6
tp359
g43
s(S'/home/clayton/grive/pics/0w7F2BE16D-8A7C-F883-8CFE-EFF8C9D10E88.jpg'
p360
I12
tp361
g40
s(S'/home/clayton/grive/pics/0wBE6C87EF-3D62-189A-34DB-33F0A359A14F.jpg'
p362
I19
tp363
g37
s(S'/home/clayton/grive/pics/4w70574034-301E-9568-EB56-389E0E002C5E.jpg'
p364
I36
tp365
g3
s(S'/home/clayton/grive/pics/5w3AC58273-1249-F4C2-3A1C-289D10094EB9.jpg'
p366
I110
tp367
g10
s(S'/home/clayton/grive/pics/3w42122DD0-1D98-3417-ED3C-3CD7325AEF4E.jpg'
p368
I35
tp369
g20
s(S'/home/clayton/grive/pics/2w9A37A263-9801-0A1A-312E-3334DD7F32AC.jpg'
p370
I36
tp371
g20
s(S'/home/clayton/grive/pics/3wE6FF3C82-8BAF-EFF6-6F4B-F007379019E6.jpg'
p372
I8
tp373
g3
s(S'/home/clayton/grive/pics/0wF6EF8C51-B792-9FCF-687D-3333BA797012.jpg'
p374
I54
tp375
g40
s(S'/home/clayton/grive/pics/3wD9E9B0A8-7D98-A0F3-9A06-37ECA03E6425.jpg'
p376
I6
tp377
g3
s(S'/home/clayton/grive/pics/6Neutral.jpg'
p378
I78
tp379
g10
s(S'/home/clayton/grive/pics/0wCADCAECA-D3E7-342A-07FA-4652ED88FBA9.jpg'
p380
I4
tp381
g40
s(S'/home/clayton/grive/pics/2w6A3CAB4F-95AC-25CB-4CD4-2D0EA445F376.jpg'
p382
I47
tp383
g20
s(S'/home/clayton/grive/pics/3wC89E1EA6-6B03-0107-19C6-312038C89CA1.jpg'
p384
I52
tp385
g3
s(S'/home/clayton/grive/pics/6m040789e6-8b61-484e-b935-203eeeaf5a7f.jpg'
p386
I86
tp387
g10
s(S'/home/clayton/grive/pics/4m4b57e50c-264c-4921-b4ca-8db06d561bcd.jpg'
p388
I65
tp389
g3
s(S'/home/clayton/grive/pics/4w17B211E6-BF03-6BE8-3E13-EFF255F37851.jpg'
p390
I7
tp391
g3
s(S'/home/clayton/grive/pics/6wD5BE1562-F05B-1AA8-6290-37EE9C424B0E.jpg'
p392
I44
tp393
g10
s(S'/home/clayton/grive/pics/0wD7662DB4-ED2D-0E94-3A81-F002716EC18A.jpg'
p394
I34
tp395
g40
s(S'/home/clayton/grive/pics/0wFA3A2A73-D799-1F82-B7C9-6B922E50F6D3.jpg'
p396
I79
tp397
g40
s(S'/home/clayton/grive/pics/2w233E62AD-7E9F-FF61-F5E5-EFFC288A76F9.jpg'
p398
I33
tp399
g3
s(S'/home/clayton/grive/pics/6w6583AC61-429D-C61E-715E-EFF713238241.jpg'
p400
I26
tp401
g43
s(S'/home/clayton/grive/pics/1w514E3E36-1CFE-F72D-C4B3-EFEBDD4798A6.jpg'
p402
I22
tp403
g20
s(S'/home/clayton/grive/pics/6w4ACD6E21-0751-DEA6-DB60-2F0500DBF231.jpg'
p404
I118
tp405
g10
s(S'/home/clayton/grive/pics/1Sad.jpg (Case Conflict 2)'
p406
I56
tp407
g3
s(S'/home/clayton/grive/pics/3wF6EF8C51-B792-9FCF-687D-3333BA797012.jpg'
p408
I33
tp409
g20
s(S'/home/clayton/grive/pics/1w2FF168A3-54B0-C7D9-47C9-37FA318D713D.jpg'
p410
I7
tp411
g3
s(S'/home/clayton/grive/pics/1w88F7430E-6DC5-7C09-D0EC-EFF12BB629CC.jpg'
p412
I7
tp413
g20
s(S'/home/clayton/grive/pics/2-Angry.JPG'
p414
I122
tp415
g20
s(S'/home/clayton/grive/pics/6wCC78F689-E22B-23A4-2B55-3336F8A9B35C.jpg'
p416
I31
tp417
g10
s(S'/home/clayton/grive/pics/4wF9A08F82-E468-659D-6E2A-4649DD6662AF.jpg'
p418
I6
tp419
g3
s(S'/home/clayton/grive/pics/5w837D0871-935B-7E8E-A689-F00B320588E7.jpg'
p420
I16
tp421
g43
s(S'/home/clayton/grive/pics/3m4ed4b5c3-8594-4921-981d-970fc18d5fea.jpg'
p422
I4
tp423
g3
s(S'/home/clayton/grive/pics/2md6e113df-509f-49d9-b0c7-905e86cc5df3.jpg'
p424
I31
tp425
g20
s(S'/home/clayton/grive/pics/5w42122DD0-1D98-3417-ED3C-3CD7325AEF4E.jpg'
p426
I46
tp427
g10
s(g298
I32
tp428
g10
s(S'/home/clayton/grive/pics/4w10F317F3-9F1E-F59C-B335-38A8ADEE47AF.jpg'
p429
I38
tp430
g20
s(S'/home/clayton/grive/pics/2w98D0D5C2-5A24-77C4-893C-389C780B22BF.jpg'
p431
I39
tp432
g20
s(S'/home/clayton/grive/pics/2m3489e795-35d9-4bc6-83c2-0b80c5b780ea.jpg'
p433
I31
tp434
g20
s(S'/home/clayton/grive/pics/3w2C6C7917-E34A-87BF-D366-2849EADFBD8B.jpg'
p435
I11
tp436
g3
s(S'/home/clayton/grive/pics/4w30492B57-425C-19D5-B21A-38A9A06B20F8.jpg'
p437
I4
tp438
g3
s(S'/home/clayton/grive/pics/0w6C9F7832-CE9D-15A0-5DA4-6B8CFF5E8490.jpg'
p439
I64
tp440
g40
s(S'/home/clayton/grive/pics/4wA17C2882-CBD3-D872-556E-45F7E2047628.jpg'
p441
I83
tp442
g20
s(S'/home/clayton/grive/pics/3w10F317F3-9F1E-F59C-B335-38A8ADEE47AF.jpg'
p443
I66
tp444
g20
s(S'/home/clayton/grive/pics/2wD174FE9B-6632-6EBB-E135-9EFF44352093.jpg'
p445
I117
tp446
g20
s(S'/home/clayton/grive/pics/3wD2C8420A-CA69-4783-1899-278856A49F4B.jpg'
p447
I20
tp448
g3
s(S'/home/clayton/grive/pics/3w9CF2D657-F38A-A867-1844-64AF3A43DEAA.jpg'
p449
I26
tp450
g20
s(S'/home/clayton/grive/pics/0wFF66FA36-78E6-6508-EDF0-3686176BF53D.jpg'
p451
I15
tp452
g40
s(S'/home/clayton/grive/pics/2w1F9D7616-B031-13BA-2CF1-332BB1E15DC2.jpg'
p453
I102
tp454
g20
s(S'/home/clayton/grive/pics/3w9A37A263-9801-0A1A-312E-3334DD7F32AC.jpg'
p455
I66
tp456
g20
s(S'/home/clayton/grive/pics/4w3D74C8C9-3DC1-0E0C-4327-4CE1A9A76C25.jpg'
p457
I73
tp458
g20
s(S'/home/clayton/grive/pics/2w42122DD0-1D98-3417-ED3C-3CD7325AEF4E.jpg'
p459
I11
tp460
g3
s(S'/home/clayton/grive/pics/2wEFC295BD-AB8D-C93F-1AEF-332E960B6391.jpg'
p461
I29
tp462
g20
s(S'/home/clayton/grive/pics/2Angry.jpg'
p463
I58
tp464
g20
s(S'/home/clayton/grive/pics/0w837D0871-935B-7E8E-A689-F00B320588E7.jpg'
p465
I20
tp466
g40
s(S'/home/clayton/grive/pics/0happy8.JPG'
p467
I15
tp468
g40
s(S'/home/clayton/grive/pics/2wD9E9B0A8-7D98-A0F3-9A06-37ECA03E6425.jpg'
p469
I27
tp470
g3
s(S'/home/clayton/grive/pics/0wD2C8420A-CA69-4783-1899-278856A49F4B.jpg'
p471
I28
tp472
g40
s(S'/home/clayton/grive/pics/1w7EA25B92-1336-94C0-FB2D-EFDA52371B47.jpg'
p473
I9
tp474
g20
s(S'/home/clayton/grive/pics/3w30492B57-425C-19D5-B21A-38A9A06B20F8.jpg'
p475
I35
tp476
g20
s(S'/home/clayton/grive/pics/6m354dbab3-cc44-4fa5-a76b-1832158454cd.jpg'
p477
I9
tp478
g10
s(S'/home/clayton/grive/pics/3w869F00B2-7F5B-6906-0CB1-EFF2FF299FD4.jpg'
p479
I33
tp480
g3
s(S'/home/clayton/grive/pics/4w6583AC61-429D-C61E-715E-EFF713238241.jpg'
p481
I6
tp482
g3
s(S'/home/clayton/grive/pics/3w24FD90A0-B0EF-2E69-7527-48907DFAB4FA.jpg'
p483
I35
tp484
g3
s(S'/home/clayton/grive/pics/2w04AB60B8-053D-0086-A395-4698C6ECDA34.jpg'
p485
I60
tp486
g3
s(S'/home/clayton/grive/pics/1m18d993d2-3c00-433c-8be0-d106d508d053.jpg'
p487
I34
tp488
g20
s(S'/home/clayton/grive/pics/3wF9A08F82-E468-659D-6E2A-4649DD6662AF.jpg'
p489
I28
tp490
g20
s(S'/home/clayton/grive/pics/4w869F00B2-7F5B-6906-0CB1-EFF2FF299FD4.jpg'
p491
I49
tp492
g20
s(S'/home/clayton/grive/pics/0m6ce740af-da51-4c19-92ce-7b9d9adba5fe.jpg'
p493
I24
tp494
g40
s(g35
I27
tp495
g40
s(S'/home/clayton/grive/pics/5w6D8B00F1-237C-5070-C5C5-2725674902D4.jpg'
p496
I85
tp497
g10
s(S'/home/clayton/grive/pics/5w2C9F8C42-E900-B747-C962-465A32A9CCE7.jpg'
p498
I42
tp499
g43
s(S'/home/clayton/grive/pics/4w1DA4F3B0-46AF-07D5-6E56-2A8D17618C41.jpg'
p500
I54
tp501
g20
s(S'/home/clayton/grive/pics/5me82712a5-8b59-464a-b0fd-d3578d4e83b3.jpg'
p502
I8
tp503
g43
s(S'/home/clayton/grive/pics/0mcd66cc8e-1866-429d-af90-c2c756395882.jpg'
p504
I41
tp505
g40
s(S'/home/clayton/grive/pics/0m3489e795-35d9-4bc6-83c2-0b80c5b780ea.jpg'
p506
I30
tp507
g40
s(S'/home/clayton/grive/pics/3w0AAA0AC9-6F8F-E71E-133D-46E81C08DACC.jpg'
p508
I42
tp509
g3
s(S'/home/clayton/grive/pics/0wEE5FC257-9937-1847-8A4C-31E98B5E3AC3.jpg'
p510
I68
tp511
g40
s(S'/home/clayton/grive/pics/2w6D8B00F1-237C-5070-C5C5-2725674902D4.jpg'
p512
I67
tp513
g20
s(S'/home/clayton/grive/pics/2w86213EB0-EFE5-91A5-6308-4CE43B9C4ABB.jpg'
p514
I45
tp515
g20
s(S'/home/clayton/grive/pics/3wCC78F689-E22B-23A4-2B55-3336F8A9B35C.jpg'
p516
I31
tp517
g3
s(S'/home/clayton/grive/pics/6m3489e795-35d9-4bc6-83c2-0b80c5b780ea.jpg'
p518
I24
tp519
g10
s(S'/home/clayton/grive/pics/0w77EDF533-C254-FD89-6404-4660A2F03302.jpg'
p520
I44
tp521
g40
s(S'/home/clayton/grive/pics/6mee953784-3873-4738-a45f-15bf2d546bdf.jpg'
p522
I8
tp523
g43
s(S'/home/clayton/grive/pics/0w233E62AD-7E9F-FF61-F5E5-EFFC288A76F9.jpg'
p524
I40
tp525
g37
s(S'/home/clayton/grive/pics/0w75A71932-7631-6493-AA4D-CD72B83F1138.jpg'
p526
I78
tp527
g40
s(S'/home/clayton/grive/pics/3w7EA25B92-1336-94C0-FB2D-EFDA52371B47.jpg'
p528
I4
tp529
g20
s(S'/home/clayton/grive/pics/5wFA3A2A73-D799-1F82-B7C9-6B922E50F6D3.jpg'
p530
I54
tp531
g43
s(S'/home/clayton/grive/pics/6wE6FF3C82-8BAF-EFF6-6F4B-F007379019E6.jpg'
p532
I7
tp533
g43
s(S'/home/clayton/grive/pics/4ma066d0c9-b62d-47e2-aba9-89f5120f6750.jpg'
p534
I38
tp535
g3
s(S'/home/clayton/grive/pics/1w77C09460-F810-F1E2-D2AC-EFE8805E512A.jpg'
p536
I4
tp537
g3
s(S'/home/clayton/grive/pics/6w39D34F71-9398-68F2-4F8C-F0102C7A0F3C.jpg'
p538
I39
tp539
g10
s(S'/home/clayton/grive/pics/0wF51ABC70-E908-AA82-8C29-D8B59FE8C62F.jpg'
p540
I55
tp541
g40
s(S'/home/clayton/grive/pics/0w649F4C25-595D-5383-9B2D-F0041EC3CC63.jpg'
p542
I34
tp543
g40
s(S'/home/clayton/grive/pics/3w6C9F7832-CE9D-15A0-5DA4-6B8CFF5E8490.jpg'
p544
I41
tp545
g20
s(S'/home/clayton/grive/pics/0w4ACD6E21-0751-DEA6-DB60-2F0500DBF231.jpg'
p546
I110
tp547
g40
s(S'/home/clayton/grive/pics/6w99B8ED23-08A7-D462-5293-489B07663B77.jpg'
p548
I53
tp549
g10
s(S'/home/clayton/grive/pics/5w01343164-B10C-A805-EF2F-2D0A02E780D0.jpg'
p550
I87
tp551
g43
s(S'/home/clayton/grive/pics/5w75B0A7BB-3879-FF92-CC05-37B01FC821E8.jpg'
p552
I45
tp553
g10
s(S'/home/clayton/grive/pics/6wD174FE9B-6632-6EBB-E135-9EFF44352093.jpg'
p554
I105
tp555
g10
s(S'/home/clayton/grive/pics/2m709ed245-1794-48b2-99f4-73cae971abbf.jpg'
p556
I6
tp557
g3
s(S'/home/clayton/grive/pics/3w233E62AD-7E9F-FF61-F5E5-EFFC288A76F9.jpg'
p558
I43
tp559
g3
s(g108
I4
tp560
g10
s(S'/home/clayton/grive/pics/0wC6AB8E45-0D08-5231-7C41-EFF50AB9F865.jpg'
p561
I43
tp562
g40
s(S'/home/clayton/grive/pics/6mc2d2626e-bc27-4876-975b-5ee13733ad4e.jpg'
p563
I17
tp564
g10
s(S'/home/clayton/grive/pics/0w57166D0D-8403-104C-6BEA-2F07DBC2E389.jpg'
p565
I23
tp566
g40
s(S'/home/clayton/grive/pics/6w2FF168A3-54B0-C7D9-47C9-37FA318D713D.jpg'
p567
I9
tp568
g43
s(S'/home/clayton/grive/pics/3m6ccb14e5-001d-499c-9d77-979759f7986b.jpg'
p569
I11
tp570
g3
s(S'/home/clayton/grive/pics/3wF7EB9296-7FE8-1C37-2486-4CDB6B286E59.jpg'
p571
I82
tp572
g20
s(S'/home/clayton/grive/pics/0w24FD90A0-B0EF-2E69-7527-48907DFAB4FA.jpg'
p573
I10
tp574
g15
s(S'/home/clayton/grive/pics/2m4ed4b5c3-8594-4921-981d-970fc18d5fea.jpg'
p575
I48
tp576
g20
s(S'/home/clayton/grive/pics/6mcd66cc8e-1866-429d-af90-c2c756395882.jpg'
p577
I44
tp578
g10
s(S'/home/clayton/grive/pics/2wD61ACB92-52ED-6679-0D80-38A0B91ACF94.jpg'
p579
I65
tp580
g20
s(g18
I9
tp581
g3
s(S'/home/clayton/grive/pics/5w3EC88953-2C9A-08EE-D3A5-465D5B7072D4.jpg'
p582
I97
tp583
g10
s(S'/home/clayton/grive/pics/5mfdc9ff7d-8480-4e52-940b-33d65b5f09d9.jpg'
p584
I66
tp585
g10
s(S'/home/clayton/grive/pics/5wEA81AD9F-C919-7319-BDCE-333C59C6579E.jpg'
p586
I28
tp587
g43
s(S'/home/clayton/grive/pics/0wEA81AD9F-C919-7319-BDCE-333C59C6579E.jpg'
p588
I38
tp589
g40
s(S'/home/clayton/grive/pics/0w3EC88953-2C9A-08EE-D3A5-465D5B7072D4.jpg'
p590
I97
tp591
g40
s(S'/home/clayton/grive/pics/1wE0CA5A8E-D4F8-F93F-8845-CD71832C5BEC.jpg'
p592
I85
tp593
g3
s(S'/home/clayton/grive/pics/1w70574034-301E-9568-EB56-389E0E002C5E.jpg'
p594
I57
tp595
g20
s(S'/home/clayton/grive/pics/3m9340b0af-fe78-4190-bcf7-13abbdf650b9.jpg'
p596
I7
tp597
g3
s(S'/home/clayton/grive/pics/2w62D19778-1AA6-13C2-004F-389AF747333D.jpg'
p598
I46
tp599
g20
s(g300
I13
tp600
g37
s(S'/home/clayton/grive/pics/2w7B52AA0B-3547-4AAC-D109-389D5596BF39.jpg'
p601
I11
tp602
g20
s(S'/home/clayton/grive/pics/6w1DA4F3B0-46AF-07D5-6E56-2A8D17618C41.jpg'
p603
I65
tp604
g10
s(S'/home/clayton/grive/pics/6w809F0A15-03D4-873B-62D0-6B3146FEE7CF.jpg'
p605
I63
tp606
g10
s(S'/home/clayton/grive/pics/5wB7907848-2DA7-2CBC-9171-46E1D7C304D7.jpg'
p607
I34
tp608
g10
s(S'/home/clayton/grive/pics/6w5D592E12-AEF9-B530-374E-3322B125D1A1.jpg'
p609
I83
tp610
g10
s(S'/home/clayton/grive/pics/5wD18772FE-63EF-7FDC-EF9A-F00545998FBB.jpg'
p611
I4
tp612
g43
s(S'/home/clayton/grive/pics/0wE1F57AF5-064C-9BD6-AE25-F007E6803651.jpg'
p613
I63
tp614
g40
s(S'/home/clayton/grive/pics/3m53633fb0-91e3-4336-8db7-0f2ed20929f7.jpg'
p615
I35
tp616
g3
s(S'/home/clayton/grive/pics/1w75B0A7BB-3879-FF92-CC05-37B01FC821E8.jpg'
p617
I38
tp618
g3
s(S'/home/clayton/grive/pics/0happy6.JPG'
p619
I116
tp620
g40
s(S'/home/clayton/grive/pics/6w157643A0-E4FE-5F90-C9B1-465764731874.jpg'
p621
I30
tp622
g10
s(S'/home/clayton/grive/pics/3w2B02DD01-5BAB-ABA0-2EAF-3833D439A739.jpg'
p623
I128
tp624
g20
s(S'/home/clayton/grive/pics/2w10F317F3-9F1E-F59C-B335-38A8ADEE47AF.jpg'
p625
I50
tp626
g20
s(S'/home/clayton/grive/pics/3DSCN0308.JPG'
p627
I69
tp628
g20
s(S'/home/clayton/grive/pics/1me82712a5-8b59-464a-b0fd-d3578d4e83b3.jpg'
p629
I10
tp630
g20
s(S'/home/clayton/grive/pics/3w4123FC40-659C-BBF1-A29E-29652EC92828.jpg'
p631
I31
tp632
g3
s(S'/home/clayton/grive/pics/1DSCN0306.JPG'
p633
I85
tp634
g3
s(S'/home/clayton/grive/pics/4wD174FE9B-6632-6EBB-E135-9EFF44352093.jpg'
p635
I89
tp636
g20
s(S'/home/clayton/grive/pics/2m040789e6-8b61-484e-b935-203eeeaf5a7f.jpg'
p637
I55
tp638
g3
s(S'/home/clayton/grive/pics/2m6b79eaeb-1360-4503-88c4-d37bedee7440.jpg'
p639
I37
tp640
g20
s(S'/home/clayton/grive/pics/6w57166D0D-8403-104C-6BEA-2F07DBC2E389.jpg'
p641
I35
tp642
g10
s(S'/home/clayton/grive/pics/3m354dbab3-cc44-4fa5-a76b-1832158454cd.jpg'
p643
I7
tp644
g3
s(S'/home/clayton/grive/pics/1w3439D79B-2F14-0A7C-A485-3D9751A5715E.jpg'
p645
I28
tp646
g20
s(S'/home/clayton/grive/pics/6wC8A7AD15-B749-2EF7-395E-3567AFF409A3.jpg'
p647
I35
tp648
g10
s(S'/home/clayton/grive/pics/0wE0CA5A8E-D4F8-F93F-8845-CD71832C5BEC.jpg'
p649
I84
tp650
g40
s(S'/home/clayton/grive/pics/3wE91A57C8-8766-64BA-4E1F-33C5F731BCE4.jpg'
p651
I34
tp652
g20
s(S'/home/clayton/grive/pics/2wD5BE1562-F05B-1AA8-6290-37EE9C424B0E.jpg'
p653
I42
tp654
g20
s(S'/home/clayton/grive/pics/0w2C9F8C42-E900-B747-C962-465A32A9CCE7.jpg'
p655
I49
tp656
g40
s(S'/home/clayton/grive/pics/0mbfafedbe-f2cf-4c12-b287-c50e7850c5eb.jpg'
p657
I89
tp658
g40
s(S'/home/clayton/grive/pics/1w6583AC61-429D-C61E-715E-EFF713238241.jpg'
p659
I23
tp660
g20
s(S'/home/clayton/grive/pics/4w0CC8EC66-FAA1-705C-0776-4AE9EA516A65.jpg'
p661
I70
tp662
g20
s(g232
I5
tp663
g3
s(S'/home/clayton/grive/pics/2m9660a96e-a888-40cd-b380-7d3761693c17.jpg'
p664
I84
tp665
g3
s(S'/home/clayton/grive/pics/1wA78D46C1-F503-3E91-F99D-6B2FA22B3D14.jpg'
p666
I51
tp667
g20
s(S'/home/clayton/grive/pics/3wE558DDB7-482D-F4EF-052D-EFE9601C0416.jpg'
p668
I13
tp669
g3
s(S'/home/clayton/grive/pics/4wC6AB8E45-0D08-5231-7C41-EFF50AB9F865.jpg'
p670
I56
tp671
g3
s(S'/home/clayton/grive/pics/1w2EF2AD95-51F3-FC29-E168-F00CBA1039A6.jpg'
p672
I13
tp673
g20
s(S'/home/clayton/grive/pics/0w453B0D9A-7B7C-9A9F-3D97-F00362CCA49C.jpg'
p674
I43
tp675
g40
s(S'/home/clayton/grive/pics/5wAEFC7C09-CD73-3B8E-A369-7AFA0E31AF3D.jpg'
p676
I37
tp677
g10
s(S'/home/clayton/grive/pics/0md99d5900-5461-41eb-adb1-8681a6885dc6.jpg'
p678
I62
tp679
g40
s(S'/home/clayton/grive/pics/4w4A42FC32-7901-26E1-A91B-33331AA34C92.jpg'
p680
I65
tp681
g20
s(S'/home/clayton/grive/pics/3Surprised.jpg'
p682
I44
tp683
g20
s(S'/home/clayton/grive/pics/6w9FB993B7-8646-7117-CD23-27C2F4C7EC67.jpg'
p684
I100
tp685
g10
s(S'/home/clayton/grive/pics/5w7B52AA0B-3547-4AAC-D109-389D5596BF39.jpg'
p686
I21
tp687
g10
s(S'/home/clayton/grive/pics/6mbb625c3c-721b-4e37-9aa1-68684b210046.jpg'
p688
I13
tp689
g43
s(S'/home/clayton/grive/pics/0w42122DD0-1D98-3417-ED3C-3CD7325AEF4E.jpg'
p690
I17
tp691
g15
s(S'/home/clayton/grive/pics/6w0CC8EC66-FAA1-705C-0776-4AE9EA516A65.jpg'
p692
I58
tp693
g10
s(S'/home/clayton/grive/pics/5w77EDF533-C254-FD89-6404-4660A2F03302.jpg'
p694
I27
tp695
g43
s(S'/home/clayton/grive/pics/1w453B0D9A-7B7C-9A9F-3D97-F00362CCA49C.jpg'
p696
I34
tp697
g20
s(S'/home/clayton/grive/pics/0w886BDA22-A149-C817-238D-EFF0E2A9992C.jpg'
p698
I6
tp699
g37
s(S'/home/clayton/grive/pics/6w62D19778-1AA6-13C2-004F-389AF747333D.jpg'
p700
I31
tp701
g10
s(S'/home/clayton/grive/pics/4scared_david_bates.jpg'
p702
I4
tp703
g3
s(g284
I5
tp704
g43
s(g140
I70
tp705
g40
s(S'/home/clayton/grive/pics/1w869F00B2-7F5B-6906-0CB1-EFF2FF299FD4.jpg'
p706
I38
tp707
g3
s(S'/home/clayton/grive/pics/3w9D75EFDC-3AE6-E0D7-C7F4-28316CCF01BA.jpg'
p708
I74
tp709
g3
s(S'/home/clayton/grive/pics/5w3439D79B-2F14-0A7C-A485-3D9751A5715E.jpg'
p710
I26
tp711
g43
s(S'/home/clayton/grive/pics/3w5D981B62-3BF3-3379-219B-EFF97EC7E5A0.jpg'
p712
I68
tp713
g3
s(S'/home/clayton/grive/pics/6w837D0871-935B-7E8E-A689-F00B320588E7.jpg'
p714
I36
tp715
g10
s(S'/home/clayton/grive/pics/0m9660a96e-a888-40cd-b380-7d3761693c17.jpg'
p716
I76
tp717
g40
s(S'/home/clayton/grive/pics/1w0CC8EC66-FAA1-705C-0776-4AE9EA516A65.jpg'
p718
I59
tp719
g20
s(g358
I26
tp720
g10
s(S'/home/clayton/grive/pics/5w98D0D5C2-5A24-77C4-893C-389C780B22BF.jpg'
p721
I30
tp722
g10
s(S'/home/clayton/grive/pics/1w2CDDD638-E92B-8EBA-60E3-F00A5BD784E3.jpg'
p723
I29
tp724
g3
s(S'/home/clayton/grive/pics/0w9FB993B7-8646-7117-CD23-27C2F4C7EC67.jpg'
p725
I103
tp726
g40
s(S'/home/clayton/grive/pics/4wD18772FE-63EF-7FDC-EF9A-F00545998FBB.jpg'
p727
I4
tp728
g3
s(S'/home/clayton/grive/pics/1w3F606B5D-77FB-F545-EEF4-36CCC8791888.jpg'
p729
I19
tp730
g3
s(S'/home/clayton/grive/pics/1w17B211E6-BF03-6BE8-3E13-EFF255F37851.jpg'
p731
I45
tp732
g3
s(S'/home/clayton/grive/pics/0w75B0A7BB-3879-FF92-CC05-37B01FC821E8.jpg'
p733
I62
tp734
g40
s(S'/home/clayton/grive/pics/5wC8A7AD15-B749-2EF7-395E-3567AFF409A3.jpg'
p735
I5
tp736
g43
s(S'/home/clayton/grive/pics/4w23C4FE8C-F60F-F7A0-209F-EFEDBF964235.jpg'
p737
I27
tp738
g20
s(g294
I5
tp739
g3
s(S'/home/clayton/grive/pics/2m53633fb0-91e3-4336-8db7-0f2ed20929f7.jpg'
p740
I52
tp741
g20
s(S'/home/clayton/grive/pics/2wE558DDB7-482D-F4EF-052D-EFE9601C0416.jpg'
p742
I4
tp743
g3
s(S'/home/clayton/grive/pics/2ma066d0c9-b62d-47e2-aba9-89f5120f6750.jpg'
p744
I34
tp745
g20
s(S'/home/clayton/grive/pics/0w99B8ED23-08A7-D462-5293-489B07663B77.jpg'
p746
I65
tp747
g40
s(g362
I6
tp748
g40
s(S'/home/clayton/grive/pics/6w9DC9791F-43FF-A0F2-136E-27278922DE8B.jpg'
p749
I17
tp750
g10
s(S'/home/clayton/grive/pics/2wC89E1EA6-6B03-0107-19C6-312038C89CA1.jpg'
p751
I67
tp752
g20
s(S'/home/clayton/grive/pics/1w809F0A15-03D4-873B-62D0-6B3146FEE7CF.jpg'
p753
I50
tp754
g20
s(g647
I7
tp755
g43
s(S'/home/clayton/grive/pics/2w79D4D2F8-3794-9B73-B7D1-EFEF32720063.jpg'
p756
I4
tp757
g3
s(g678
I5
tp758
g15
s(S'/home/clayton/grive/pics/4m8e9ff3d6-a4ff-4675-848b-314010102ee8.jpg'
p759
I46
tp760
g3
s(S'/home/clayton/grive/pics/6w90056D7B-4D04-567E-6142-F00A0A0CACCC.jpg'
p761
I30
tp762
g10
s(S'/home/clayton/grive/pics/3md6e113df-509f-49d9-b0c7-905e86cc5df3.jpg'
p763
I37
tp764
g3
s(S'/home/clayton/grive/pics/3w455E62E6-5EAF-9986-F10E-383E9405062F.jpg'
p765
I53
tp766
g20
s(S'/home/clayton/grive/pics/0KuoGlassesHappy.jpg'
p767
I72
tp768
g40
s(S'/home/clayton/grive/pics/3ma066d0c9-b62d-47e2-aba9-89f5120f6750.jpg'
p769
I4
tp770
g3
s(S'/home/clayton/grive/pics/4wE579115D-288C-F313-6988-EFDB2EB5D4BF.jpg'
p771
I9
tp772
g20
s(S'/home/clayton/grive/pics/3wAEFC7C09-CD73-3B8E-A369-7AFA0E31AF3D.jpg'
p773
I32
tp774
g20
s(S'/home/clayton/grive/pics/6wE7D19A4A-E34F-1A45-F7A2-EFF5B26C785E.jpg'
p775
I7
tp776
g43
s(S'/home/clayton/grive/pics/0w0CC8EC66-FAA1-705C-0776-4AE9EA516A65.jpg'
p777
I59
tp778
g40
s(S'/home/clayton/grive/pics/3wA17C2882-CBD3-D872-556E-45F7E2047628.jpg'
p779
I86
tp780
g3
s(S'/home/clayton/grive/pics/4m6ccb14e5-001d-499c-9d77-979759f7986b.jpg'
p781
I14
tp782
g3
s(S'/home/clayton/grive/pics/3w11C902A3-3D0A-1956-0538-6B9806AA4F9F.jpg'
p783
I37
tp784
g20
s(S'/home/clayton/grive/pics/4w545D8371-906B-59FB-3297-3D9D8D822C99.jpg'
p785
I25
tp786
g3
s(S'/home/clayton/grive/pics/6w3AC58273-1249-F4C2-3A1C-289D10094EB9.jpg'
p787
I107
tp788
g10
s(S'/home/clayton/grive/pics/0wEE5485BA-9F02-B81F-7B8A-D865E20BE312.jpg'
p789
I40
tp790
g40
s(S'/home/clayton/grive/pics/6w12EC627A-1192-EC96-EEC9-489DEAE24E0B.jpg'
p791
I49
tp792
g10
s(S'/home/clayton/grive/pics/6w0C837C12-99DE-6798-DCC0-6B372D9B14DF.jpg'
p793
I58
tp794
g10
s(S'/home/clayton/grive/pics/6wC18279D9-47D0-4718-36BA-EFECC87D675D.jpg'
p795
I21
tp796
g43
s(S'/home/clayton/grive/pics/0w7E85E5B5-F196-987E-51DD-2EC43C62E76D.jpg'
p797
I73
tp798
g40
s(g398
I43
tp799
g3
s(g433
I10
tp800
g3
s(S'/home/clayton/grive/pics/6Neutral.jpg (Case Conflict 1)'
p801
I55
tp802
g10
s(S'/home/clayton/grive/pics/0w656B02A8-518C-90F3-7234-38211A0CD399.jpg'
p803
I39
tp804
g40
s(S'/home/clayton/grive/pics/2KuoGlassesAngry.jpg'
p805
I77
tp806
g20
s(S'/home/clayton/grive/pics/6w66F66B26-FBE8-A425-CDA6-D0273FBE14F2.jpg'
p807
I49
tp808
g10
s(S'/home/clayton/grive/pics/3w2EF2AD95-51F3-FC29-E168-F00CBA1039A6.jpg'
p809
I13
tp810
g3
s(S'/home/clayton/grive/pics/6wA17C2882-CBD3-D872-556E-45F7E2047628.jpg'
p811
I7
tp812
g43
s(S'/home/clayton/grive/pics/0wB6218480-F680-6013-04E0-38A57AE3C9A5.jpg'
p813
I81
tp814
g40
s(S'/home/clayton/grive/pics/4wE953282F-1713-2679-406D-285C8932B012.jpg'
p815
I11
tp816
g3
s(S'/home/clayton/grive/pics/5w62D19778-1AA6-13C2-004F-389AF747333D.jpg'
p817
I33
tp818
g10
s(S'/home/clayton/grive/pics/5w0D1FB1C2-D30A-E25F-2EBB-27E9151B697F.jpg'
p819
I23
tp820
g43
s(S'/home/clayton/grive/pics/5wE0F39B0C-94A5-8BD4-61A2-EFE587012FA0.jpg'
p821
I13
tp822
g43
s(S'/home/clayton/grive/pics/1wD2C8420A-CA69-4783-1899-278856A49F4B.jpg'
p823
I29
tp824
g20
s(S'/home/clayton/grive/pics/6w01343164-B10C-A805-EF2F-2D0A02E780D0.jpg'
p825
I92
tp826
g10
s(S'/home/clayton/grive/pics/6m9660a96e-a888-40cd-b380-7d3761693c17.jpg'
p827
I87
tp828
g10
s(S'/home/clayton/grive/pics/4wD445B589-5883-3783-A84A-29622D8DBC8C.jpg'
p829
I72
tp830
g20
s(S'/home/clayton/grive/pics/6wE579115D-288C-F313-6988-EFDB2EB5D4BF.jpg'
p831
I20
tp832
g43
s(S'/home/clayton/grive/pics/1m6ce740af-da51-4c19-92ce-7b9d9adba5fe.jpg'
p833
I17
tp834
g3
s(S'/home/clayton/grive/pics/4w39D34F71-9398-68F2-4F8C-F0102C7A0F3C.jpg'
p835
I13
tp836
g20
s(S'/home/clayton/grive/pics/3wB7907848-2DA7-2CBC-9171-46E1D7C304D7.jpg'
p837
I21
tp838
g20
s(S'/home/clayton/grive/pics/1wF9A08F82-E468-659D-6E2A-4649DD6662AF.jpg'
p839
I37
tp840
g3
s(S'/home/clayton/grive/pics/2wEE5485BA-9F02-B81F-7B8A-D865E20BE312.jpg'
p841
I73
tp842
g20
s(S'/home/clayton/grive/pics/6wE0CA5A8E-D4F8-F93F-8845-CD71832C5BEC.jpg'
p843
I92
tp844
g10
s(S'/home/clayton/grive/pics/5wBE6C87EF-3D62-189A-34DB-33F0A359A14F.jpg'
p845
I15
tp846
g43
s(S'/home/clayton/grive/pics/3wA186136D-64B7-7288-372F-3843E2F6EAC4.jpg'
p847
I41
tp848
g20
s(S'/home/clayton/grive/pics/2maa24e3dd-73b7-43bb-9668-26cf6b146f58.jpg'
p849
I60
tp850
g20
s(S'/home/clayton/grive/pics/4w8772ED2F-20D8-F4F8-64C1-EFFBA3790753.jpg'
p851
I66
tp852
g3
s(S'/home/clayton/grive/pics/2wE1F57AF5-064C-9BD6-AE25-F007E6803651.jpg'
p853
I63
tp854
g3
s(S'/home/clayton/grive/pics/5wE0CA5A8E-D4F8-F93F-8845-CD71832C5BEC.jpg'
p855
I83
tp856
g10
s(S'/home/clayton/grive/pics/2m81793c88-5a77-4c1a-96b9-19113f792758.jpg'
p857
I42
tp858
g20
s(S'/home/clayton/grive/pics/5m9340b0af-fe78-4190-bcf7-13abbdf650b9.jpg'
p859
I6
tp860
g43
s(S'/home/clayton/grive/pics/1w04AB60B8-053D-0086-A395-4698C6ECDA34.jpg'
p861
I54
tp862
g3
s(S'/home/clayton/grive/pics/4mbb625c3c-721b-4e37-9aa1-68684b210046.jpg'
p863
I32
tp864
g20
s(S'/home/clayton/grive/pics/5wCFBE9FE8-526E-B206-585D-7A9FA92FD844.jpg'
p865
I71
tp866
g10
s(S'/home/clayton/grive/pics/5m5b216672-8484-4348-b9ab-3f0437fe53dc.jpg'
p867
I25
tp868
g10
s(S'/home/clayton/grive/pics/5w503AB7EB-1816-0B00-1966-EFEA502B0E95.jpg'
p869
I5
tp870
g43
s(S'/home/clayton/grive/pics/6w45F00E26-EEF8-ADBC-B511-379A0FB86DFF.jpg'
p871
I9
tp872
g10
s(S'/home/clayton/grive/pics/1wD6ABCA51-AA30-AB83-36E3-3D933B925793.jpg'
p873
I4
tp874
g20
s(S'/home/clayton/grive/pics/5wAC2868E4-B636-2A84-4932-D85F939963F1.jpg'
p875
I52
tp876
g10
s(S'/home/clayton/grive/pics/0wB327C73A-CBE4-4E6F-85BE-37EFF9F68B2E.jpg'
p877
I24
tp878
g40
s(S'/home/clayton/grive/pics/2wB6B835B5-9521-A5DD-61B1-F009B95FB653.jpg'
p879
I32
tp880
g20
s(S'/home/clayton/grive/pics/2w75A71932-7631-6493-AA4D-CD72B83F1138.jpg'
p881
I97
tp882
g20
s(g112
I7
tp883
g3
s(S'/home/clayton/grive/pics/5wF81457BB-C846-A3E9-4C02-DD6128BED15B.jpg'
p884
I135
tp885
g10
s(S'/home/clayton/grive/pics/6wF7EB9296-7FE8-1C37-2486-4CDB6B286E59.jpg'
p886
I74
tp887
g10
s(S'/home/clayton/grive/pics/2w9CF2D657-F38A-A867-1844-64AF3A43DEAA.jpg'
p888
I29
tp889
g20
s(g633
I5
tp890
g3
s(S'/home/clayton/grive/pics/3wE953282F-1713-2679-406D-285C8932B012.jpg'
p891
I21
tp892
g3
s(S'/home/clayton/grive/pics/2mee953784-3873-4738-a45f-15bf2d546bdf.jpg'
p893
I16
tp894
g20
s(S'/home/clayton/grive/pics/3wA78D46C1-F503-3E91-F99D-6B2FA22B3D14.jpg'
p895
I11
tp896
g3
s(g278
I42
tp897
g20
s(S'/home/clayton/grive/pics/4wFA3A2A73-D799-1F82-B7C9-6B922E50F6D3.jpg'
p898
I53
tp899
g3
s(S'/home/clayton/grive/pics/1md4bfe2ba-2af3-4f65-822b-b1f180ce52a1.jpg'
p900
I14
tp901
g20
s(S'/home/clayton/grive/pics/2w157643A0-E4FE-5F90-C9B1-465764731874.jpg'
p902
I7
tp903
g20
s(S'/home/clayton/grive/pics/3w90056D7B-4D04-567E-6142-F00A0A0CACCC.jpg'
p904
I31
tp905
g20
s(S'/home/clayton/grive/pics/4w233E62AD-7E9F-FF61-F5E5-EFFC288A76F9.jpg'
p906
I44
tp907
g3
s(S'/home/clayton/grive/pics/5w9A37A263-9801-0A1A-312E-3334DD7F32AC.jpg'
p908
I57
tp909
g10
s(S'/home/clayton/grive/pics/3w88F7430E-6DC5-7C09-D0EC-EFF12BB629CC.jpg'
p910
I9
tp911
g20
s(S'/home/clayton/grive/pics/2wF60A9437-78B3-BDE2-BCD1-EFFEB41D538F.jpg'
p912
I52
tp913
g20
s(S'/home/clayton/grive/pics/0w4123FC40-659C-BBF1-A29E-29652EC92828.jpg'
p914
I15
tp915
g15
s(S'/home/clayton/grive/pics/3w44B9D53B-EC71-47ED-AF85-EFEBF9C330AB.jpg'
p916
I5
tp917
g20
s(S'/home/clayton/grive/pics/3m8e9ff3d6-a4ff-4675-848b-314010102ee8.jpg'
p918
I48
tp919
g3
s(S'/home/clayton/grive/pics/1wB7907848-2DA7-2CBC-9171-46E1D7C304D7.jpg'
p920
I30
tp921
g3
s(S'/home/clayton/grive/pics/6wD2C8420A-CA69-4783-1899-278856A49F4B.jpg'
p922
I31
tp923
g10
s(g312
I64
tp924
g20
s(S'/home/clayton/grive/pics/5wD7662DB4-ED2D-0E94-3A81-F002716EC18A.jpg'
p925
I30
tp926
g10
s(S'/home/clayton/grive/pics/4w2B02DD01-5BAB-ABA0-2EAF-3833D439A739.jpg'
p927
I121
tp928
g20
s(S'/home/clayton/grive/pics/3w3F606B5D-77FB-F545-EEF4-36CCC8791888.jpg'
p929
I35
tp930
g3
s(S'/home/clayton/grive/pics/3w8039E961-EE34-7805-4B54-D80D2BE38F57.jpg'
p931
I41
tp932
g20
s(S'/home/clayton/grive/pics/3wCFBE9FE8-526E-B206-585D-7A9FA92FD844.jpg'
p933
I57
tp934
g20
s(g577
I19
tp935
g43
s(S'/home/clayton/grive/pics/4mfeef873d-a3d3-409a-b559-85c7ecff3bba.jpg'
p936
I26
tp937
g3
s(g376
I43
tp938
g20
s(S'/home/clayton/grive/pics/3m158a7b3d-0ea7-4403-ba3e-16b56aaa4db0.jpg'
p939
I51
tp940
g20
s(S'/home/clayton/grive/pics/0wF9371CDA-417F-992A-A6BC-DD6373EF9014.jpg'
p941
I25
tp942
g37
s(S'/home/clayton/grive/pics/0w809F0A15-03D4-873B-62D0-6B3146FEE7CF.jpg'
p943
I67
tp944
g40
s(S'/home/clayton/grive/pics/3wAC2868E4-B636-2A84-4932-D85F939963F1.jpg'
p945
I46
tp946
g20
s(S'/home/clayton/grive/pics/6m58c6be84-7243-4efb-b579-ce026defc3d2.jpg'
p947
I37
tp948
g10
s(S'/home/clayton/grive/pics/6wF60A9437-78B3-BDE2-BCD1-EFFEB41D538F.jpg'
p949
I49
tp950
g10
s(S'/home/clayton/grive/pics/1wC0CB773B-9791-D38C-9E93-EFFCB6A4A241.jpg'
p951
I6
tp952
g3
s(S'/home/clayton/grive/pics/1wD9E9B0A8-7D98-A0F3-9A06-37ECA03E6425.jpg'
p953
I52
tp954
g3
s(S'/home/clayton/grive/pics/4w88F7430E-6DC5-7C09-D0EC-EFF12BB629CC.jpg'
p955
I6
tp956
g20
s(S'/home/clayton/grive/pics/3wE579115D-288C-F313-6988-EFDB2EB5D4BF.jpg'
p957
I13
tp958
g3
s(S'/home/clayton/grive/pics/6w7E85E5B5-F196-987E-51DD-2EC43C62E76D.jpg'
p959
I73
tp960
g10
s(S'/home/clayton/grive/pics/0wCDB694D9-BD6D-9794-0202-EFEF6E711F61.jpg'
p961
I36
tp962
g40
s(S'/home/clayton/grive/pics/2wD445B589-5883-3783-A84A-29622D8DBC8C.jpg'
p963
I78
tp964
g20
s(S'/home/clayton/grive/pics/6wD9E9B0A8-7D98-A0F3-9A06-37ECA03E6425.jpg'
p965
I45
tp966
g10
s(S'/home/clayton/grive/pics/6w6B887E6C-D9CE-E590-E3F0-6B34BF5BA23A.jpg'
p967
I28
tp968
g10
s(S'/home/clayton/grive/pics/3wC0CB773B-9791-D38C-9E93-EFFCB6A4A241.jpg'
p969
I34
tp970
g3
s(S'/home/clayton/grive/pics/5wEED45041-BE05-1F78-5044-2EF641914EDD.jpg'
p971
I86
tp972
g10
s(S'/home/clayton/grive/pics/4scared54.jpg'
p973
I48
tp974
g3
s(S'/home/clayton/grive/pics/1wAF00C89F-447F-4CD2-7885-EFFB17DF9144.jpg'
p975
I46
tp976
g3
s(S'/home/clayton/grive/pics/0w038FF51B-B514-1E4A-1F79-37ACE961D312.jpg'
p977
I50
tp978
g40
s(S'/home/clayton/grive/pics/5mc2d2626e-bc27-4876-975b-5ee13733ad4e.jpg'
p979
I22
tp980
g43
s(g777
I4
tp981
g15
s(S'/home/clayton/grive/pics/6w9142C5B8-00C3-B41B-B5F7-7B04092215BC.jpg'
p982
I12
tp983
g10
s(S'/home/clayton/grive/pics/3w3D74C8C9-3DC1-0E0C-4327-4CE1A9A76C25.jpg'
p984
I102
tp985
g20
s(S'/home/clayton/grive/pics/0wF9A08F82-E468-659D-6E2A-4649DD6662AF.jpg'
p986
I30
tp987
g40
s(S'/home/clayton/grive/pics/6m4b57e50c-264c-4921-b4ca-8db06d561bcd.jpg'
p988
I5
tp989
g43
s(S'/home/clayton/grive/pics/2wF6EF8C51-B792-9FCF-687D-3333BA797012.jpg'
p990
I26
tp991
g20
s(S'/home/clayton/grive/pics/3m6ce740af-da51-4c19-92ce-7b9d9adba5fe.jpg'
p992
I26
tp993
g20
s(S'/home/clayton/grive/pics/1w4A42FC32-7901-26E1-A91B-33331AA34C92.jpg'
p994
I13
tp995
g20
s(g945
I14
tp996
g20
s(S'/home/clayton/grive/pics/0wB6B835B5-9521-A5DD-61B1-F009B95FB653.jpg'
p997
I26
tp998
g40
s(S'/home/clayton/grive/pics/1wC89E1EA6-6B03-0107-19C6-312038C89CA1.jpg'
p999
I67
tp1000
g20
s(S'/home/clayton/grive/pics/3w12EC627A-1192-EC96-EEC9-489DEAE24E0B.jpg'
p1001
I59
tp1002
g20
s(S'/home/clayton/grive/pics/0wD4EB92C9-4F2D-BEA4-25DD-EFD882F1442E.jpg'
p1003
I14
tp1004
g40
s(S'/home/clayton/grive/pics/0w2FF168A3-54B0-C7D9-47C9-37FA318D713D.jpg'
p1005
I17
tp1006
g40
s(S'/home/clayton/grive/pics/2mfdc9ff7d-8480-4e52-940b-33d65b5f09d9.jpg'
p1007
I25
tp1008
g20
s(S'/home/clayton/grive/pics/3w79B28E67-96B7-EB0D-9A75-EFFEDB8F577D.jpg'
p1009
I36
tp1010
g3
s(S'/home/clayton/grive/pics/1wDF2DC2D6-F1E3-1B71-20E2-467A671A3D60.jpg'
p1011
I26
tp1012
g20
s(S'/home/clayton/grive/pics/0m89be575f-50b5-4d23-b6d7-940a46e9c030.jpg'
p1013
I42
tp1014
g40
s(S'/home/clayton/grive/pics/3w837D0871-935B-7E8E-A689-F00B320588E7.jpg'
p1015
I20
tp1016
g3
s(S'/home/clayton/grive/pics/1wCFA8B97D-34BA-E8E4-129F-F00C349D4184.jpg'
p1017
I30
tp1018
g20
s(S'/home/clayton/grive/pics/1w837D0871-935B-7E8E-A689-F00B320588E7.jpg'
p1019
I8
tp1020
g3
s(S'/home/clayton/grive/pics/3w04AB60B8-053D-0086-A395-4698C6ECDA34.jpg'
p1021
I32
tp1022
g20
s(S'/home/clayton/grive/pics/0wAF00C89F-447F-4CD2-7885-EFFB17DF9144.jpg'
p1023
I28
tp1024
g40
s(g532
I8
tp1025
g43
s(S'/home/clayton/grive/pics/2w886BDA22-A149-C817-238D-EFF0E2A9992C.jpg'
p1026
I54
tp1027
g20
s(S'/home/clayton/grive/pics/6wC0CB773B-9791-D38C-9E93-EFFCB6A4A241.jpg'
p1028
I46
tp1029
g10
s(S'/home/clayton/grive/pics/2wC0CB773B-9791-D38C-9E93-EFFCB6A4A241.jpg'
p1030
I13
tp1031
g3
s(S'/home/clayton/grive/pics/0Happy.jpg (Case Conflict 2)'
p1032
I67
tp1033
g40
s(S'/home/clayton/grive/pics/5wF7EB9296-7FE8-1C37-2486-4CDB6B286E59.jpg'
p1034
I59
tp1035
g10
s(S'/home/clayton/grive/pics/3wD61ACB92-52ED-6679-0D80-38A0B91ACF94.jpg'
p1036
I41
tp1037
g20
s(S'/home/clayton/grive/pics/6w038FF51B-B514-1E4A-1F79-37ACE961D312.jpg'
p1038
I45
tp1039
g10
s(S'/home/clayton/grive/pics/3wD5BE1562-F05B-1AA8-6290-37EE9C424B0E.jpg'
p1040
I26
tp1041
g20
s(S'/home/clayton/grive/pics/4-Scared.JPG'
p1042
I8
tp1043
g3
s(S'/home/clayton/grive/pics/1wD61ACB92-52ED-6679-0D80-38A0B91ACF94.jpg'
p1044
I64
tp1045
g20
s(S'/home/clayton/grive/pics/2wE7D19A4A-E34F-1A45-F7A2-EFF5B26C785E.jpg'
p1046
I10
tp1047
g3
s(S'/home/clayton/grive/pics/5ma066d0c9-b62d-47e2-aba9-89f5120f6750.jpg'
p1048
I40
tp1049
g10
s(S'/home/clayton/grive/pics/0happy5.JPG'
p1050
I98
tp1051
g40
s(S'/home/clayton/grive/pics/4wEE5485BA-9F02-B81F-7B8A-D865E20BE312.jpg'
p1052
I38
tp1053
g20
s(S'/home/clayton/grive/pics/0w1F9D7616-B031-13BA-2CF1-332BB1E15DC2.jpg'
p1054
I94
tp1055
g40
s(S'/home/clayton/grive/pics/0m040789e6-8b61-484e-b935-203eeeaf5a7f.jpg'
p1056
I79
tp1057
g40
s(S'/home/clayton/grive/pics/6wEBD68548-E683-453C-76FA-387540224631.jpg'
p1058
I47
tp1059
g10
s(g188
I4
tp1060
g3
s(S'/home/clayton/grive/pics/3w157643A0-E4FE-5F90-C9B1-465764731874.jpg'
p1061
I10
tp1062
g20
s(S'/home/clayton/grive/pics/1wC8D3294A-B9A8-6A3A-8331-465651FB65F4.jpg'
p1063
I72
tp1064
g20
s(S'/home/clayton/grive/pics/6w649F4C25-595D-5383-9B2D-F0041EC3CC63.jpg'
p1065
I23
tp1066
g10
s(S'/home/clayton/grive/pics/1md6e113df-509f-49d9-b0c7-905e86cc5df3.jpg'
p1067
I46
tp1068
g3
s(S'/home/clayton/grive/pics/0wCC78F689-E22B-23A4-2B55-3336F8A9B35C.jpg'
p1069
I53
tp1070
g40
s(S'/home/clayton/grive/pics/0wEED45041-BE05-1F78-5044-2EF641914EDD.jpg'
p1071
I85
tp1072
g40
s(S'/home/clayton/grive/pics/6wCFBE9FE8-526E-B206-585D-7A9FA92FD844.jpg'
p1073
I59
tp1074
g10
s(S'/home/clayton/grive/pics/0wB6C4A128-3361-C2D2-A951-EFEBA8C4F0EA.jpg'
p1075
I17
tp1076
g37
s(S'/home/clayton/grive/pics/0wD6ABCA51-AA30-AB83-36E3-3D933B925793.jpg'
p1077
I9
tp1078
g37
s(S'/home/clayton/grive/pics/0w0C837C12-99DE-6798-DCC0-6B372D9B14DF.jpg'
p1079
I80
tp1080
g40
s(g643
I15
tp1081
g20
s(S'/home/clayton/grive/pics/0md6e113df-509f-49d9-b0c7-905e86cc5df3.jpg'
p1082
I4
tp1083
g15
s(S'/home/clayton/grive/pics/1wB6C4A128-3361-C2D2-A951-EFEBA8C4F0EA.jpg'
p1084
I44
tp1085
g3
s(S'/home/clayton/grive/pics/0wEBD68548-E683-453C-76FA-387540224631.jpg'
p1086
I33
tp1087
g40
s(g346
I5
tp1088
g15
s(S'/home/clayton/grive/pics/1wCADCAECA-D3E7-342A-07FA-4652ED88FBA9.jpg'
p1089
I14
tp1090
g3
s(S'/home/clayton/grive/pics/0wB7907848-2DA7-2CBC-9171-46E1D7C304D7.jpg'
p1091
I44
tp1092
g40
s(S'/home/clayton/grive/pics/6wF6EF8C51-B792-9FCF-687D-3333BA797012.jpg'
p1093
I30
tp1094
g10
s(S'/home/clayton/grive/pics/0m8e9ff3d6-a4ff-4675-848b-314010102ee8.jpg'
p1095
I47
tp1096
g40
s(g437
I38
tp1097
g20
s(S'/home/clayton/grive/pics/6wFA3A2A73-D799-1F82-B7C9-6B922E50F6D3.jpg'
p1098
I57
tp1099
g10
s(S'/home/clayton/grive/pics/4wCFBE9FE8-526E-B206-585D-7A9FA92FD844.jpg'
p1100
I60
tp1101
g20
s(S'/home/clayton/grive/pics/5w30492B57-425C-19D5-B21A-38A9A06B20F8.jpg'
p1102
I18
tp1103
g10
s(S'/home/clayton/grive/pics/5m139a1aec-0c0b-440d-8a6c-7d5c8598259c.jpg'
p1104
I48
tp1105
g10
s(S'/home/clayton/grive/pics/1w3ED8AF10-C2CD-9852-6CD0-4B1889141529.jpg'
p1106
I19
tp1107
g3
s(S'/home/clayton/grive/pics/6mbfafedbe-f2cf-4c12-b287-c50e7850c5eb.jpg'
p1108
I41
tp1109
g10
s(g4
I23
tp1110
g3
s(S'/home/clayton/grive/pics/1w0D1FB1C2-D30A-E25F-2EBB-27E9151B697F.jpg'
p1111
I15
tp1112
g3
s(S'/home/clayton/grive/pics/3w5465E952-2333-F4F0-922E-D82211FE562D.jpg'
p1113
I44
tp1114
g3
s(S'/home/clayton/grive/pics/1w24FD90A0-B0EF-2E69-7527-48907DFAB4FA.jpg'
p1115
I18
tp1116
g20
s(S'/home/clayton/grive/pics/3w7F7338BC-E565-8DED-FB80-46627677A6C7.jpg'
p1117
I66
tp1118
g3
s(S'/home/clayton/grive/pics/1w0A63D31C-0B59-BFF2-4F27-46B385316AD7.jpg'
p1119
I34
tp1120
g3
s(S'/home/clayton/grive/pics/2w57166D0D-8403-104C-6BEA-2F07DBC2E389.jpg'
p1121
I43
tp1122
g20
s(S'/home/clayton/grive/pics/4wDF2DC2D6-F1E3-1B71-20E2-467A671A3D60.jpg'
p1123
I5
tp1124
g3
s(S'/home/clayton/grive/pics/1w3AC58273-1249-F4C2-3A1C-289D10094EB9.jpg'
p1125
I109
tp1126
g20
s(S'/home/clayton/grive/pics/2w90056D7B-4D04-567E-6142-F00A0A0CACCC.jpg'
p1127
I33
tp1128
g20
s(S'/home/clayton/grive/pics/1m4b57e50c-264c-4921-b4ca-8db06d561bcd.jpg'
p1129
I61
tp1130
g3
s(S'/home/clayton/grive/pics/0wC8D3294A-B9A8-6A3A-8331-465651FB65F4.jpg'
p1131
I74
tp1132
g40
s(g1
I4
tp1133
g3
s(S'/home/clayton/grive/pics/0wD9E9B0A8-7D98-A0F3-9A06-37ECA03E6425.jpg'
p1134
I34
tp1135
g40
s(S'/home/clayton/grive/pics/2wCDB694D9-BD6D-9794-0202-EFEF6E711F61.jpg'
p1136
I44
tp1137
g20
s(S'/home/clayton/grive/pics/0m709ed245-1794-48b2-99f4-73cae971abbf.jpg'
p1138
I6
tp1139
g15
s(S'/home/clayton/grive/pics/0m81793c88-5a77-4c1a-96b9-19113f792758.jpg'
p1140
I6
tp1141
g15
s(S'/home/clayton/grive/pics/2wE0CA5A8E-D4F8-F93F-8845-CD71832C5BEC.jpg'
p1142
I97
tp1143
g20
s(S'/home/clayton/grive/pics/4m18d993d2-3c00-433c-8be0-d106d508d053.jpg'
p1144
I8
tp1145
g3
s(S'/home/clayton/grive/pics/3wEE5485BA-9F02-B81F-7B8A-D865E20BE312.jpg'
p1146
I25
tp1147
g3
s(S'/home/clayton/grive/pics/1w2C9F8C42-E900-B747-C962-465A32A9CCE7.jpg'
p1148
I4
tp1149
g3
s(S'/home/clayton/grive/pics/0w98D0D5C2-5A24-77C4-893C-389C780B22BF.jpg'
p1150
I53
tp1151
g40
s(S'/home/clayton/grive/pics/4wC8D3294A-B9A8-6A3A-8331-465651FB65F4.jpg'
p1152
I85
tp1153
g20
s(g678
I4
tp1154
g15
s(S'/home/clayton/grive/pics/2w24FD90A0-B0EF-2E69-7527-48907DFAB4FA.jpg'
p1155
I34
tp1156
g3
s(S'/home/clayton/grive/pics/3me82712a5-8b59-464a-b0fd-d3578d4e83b3.jpg'
p1157
I23
tp1158
g20
s(g914
I49
tp1159
g40
s(S'/home/clayton/grive/pics/4wEFC295BD-AB8D-C93F-1AEF-332E960B6391.jpg'
p1160
I27
tp1161
g3
s(S'/home/clayton/grive/pics/4w0C837C12-99DE-6798-DCC0-6B372D9B14DF.jpg'
p1162
I78
tp1163
g20
s(S'/home/clayton/grive/pics/2wB327C73A-CBE4-4E6F-85BE-37EFF9F68B2E.jpg'
p1164
I4
tp1165
g3
s(S'/home/clayton/grive/pics/1wE579115D-288C-F313-6988-EFDB2EB5D4BF.jpg'
p1166
I16
tp1167
g20
s(S'/home/clayton/grive/pics/4m3489e795-35d9-4bc6-83c2-0b80c5b780ea.jpg'
p1168
I10
tp1169
g20
s(S'/home/clayton/grive/pics/2wF7EB9296-7FE8-1C37-2486-4CDB6B286E59.jpg'
p1170
I64
tp1171
g20
s(g875
I64
tp1172
g10
s(S'/home/clayton/grive/pics/5wD174FE9B-6632-6EBB-E135-9EFF44352093.jpg'
p1173
I81
tp1174
g10
s(S'/home/clayton/grive/pics/2wD2C8420A-CA69-4783-1899-278856A49F4B.jpg'
p1175
I27
tp1176
g20
s(S'/home/clayton/grive/pics/3w7F2BE16D-8A7C-F883-8CFE-EFF8C9D10E88.jpg'
p1177
I18
tp1178
g20
s(S'/home/clayton/grive/pics/4wB75D3F87-A36C-1CFC-5730-28E28C577A75.jpg'
p1179
I68
tp1180
g3
s(S'/home/clayton/grive/pics/6wAEFC7C09-CD73-3B8E-A369-7AFA0E31AF3D.jpg'
p1181
I33
tp1182
g10
s(S'/home/clayton/grive/pics/4w5F94C6B9-8556-11D3-8267-EFFDD1F1CD4B.jpg'
p1183
I50
tp1184
g20
s(S'/home/clayton/grive/pics/0wCFBE9FE8-526E-B206-585D-7A9FA92FD844.jpg'
p1185
I74
tp1186
g40
s(S'/home/clayton/grive/pics/1wD18772FE-63EF-7FDC-EF9A-F00545998FBB.jpg'
p1187
I4
tp1188
g20
s(g735
I50
tp1189
g43
s(S'/home/clayton/grive/pics/6wB7907848-2DA7-2CBC-9171-46E1D7C304D7.jpg'
p1190
I37
tp1191
g10
s(S'/home/clayton/grive/pics/6mfeef873d-a3d3-409a-b559-85c7ecff3bba.jpg'
p1192
I15
tp1193
g10
s(S'/home/clayton/grive/pics/4m158a7b3d-0ea7-4403-ba3e-16b56aaa4db0.jpg'
p1194
I48
tp1195
g20
s(S'/home/clayton/grive/pics/4w8C431FA1-7A06-58B5-4FDB-EFF2BCDEFC0C.jpg'
p1196
I13
tp1197
g3
s(S'/home/clayton/grive/pics/3wE1F57AF5-064C-9BD6-AE25-F007E6803651.jpg'
p1198
I49
tp1199
g3
s(S'/home/clayton/grive/pics/4wD9E9B0A8-7D98-A0F3-9A06-37ECA03E6425.jpg'
p1200
I55
tp1201
g3
s(S'/home/clayton/grive/pics/6w79B28E67-96B7-EB0D-9A75-EFFEDB8F577D.jpg'
p1202
I41
tp1203
g10
s(S'/home/clayton/grive/pics/1w0AAA0AC9-6F8F-E71E-133D-46E81C08DACC.jpg'
p1204
I43
tp1205
g20
s(S'/home/clayton/grive/pics/4w75A71932-7631-6493-AA4D-CD72B83F1138.jpg'
p1206
I61
tp1207
g20
s(g627
I4
tp1208
g3
s(S'/home/clayton/grive/pics/2w2C9F8C42-E900-B747-C962-465A32A9CCE7.jpg'
p1209
I4
tp1210
g3
s(S'/home/clayton/grive/pics/2angry1.jpg'
p1211
I62
tp1212
g20
s(S'/home/clayton/grive/pics/1wF9371CDA-417F-992A-A6BC-DD6373EF9014.jpg'
p1213
I42
tp1214
g3
s(S'/home/clayton/grive/pics/4w3ED8AF10-C2CD-9852-6CD0-4B1889141529.jpg'
p1215
I11
tp1216
g3
s(S'/home/clayton/grive/pics/1wF60A9437-78B3-BDE2-BCD1-EFFEB41D538F.jpg'
p1217
I56
tp1218
g20
s(S'/home/clayton/grive/pics/4w2FF168A3-54B0-C7D9-47C9-37FA318D713D.jpg'
p1219
I7
tp1220
g3
s(S'/home/clayton/grive/pics/2w649F4C25-595D-5383-9B2D-F0041EC3CC63.jpg'
p1221
I12
tp1222
g20
s(S'/home/clayton/grive/pics/6w7F7338BC-E565-8DED-FB80-46627677A6C7.jpg'
p1223
I86
tp1224
g10
s(S'/home/clayton/grive/pics/3w8EC27280-1A0E-1E4D-29EA-EFF6FEF7C705.jpg'
p1225
I31
tp1226
g20
s(S'/home/clayton/grive/pics/0w7B52AA0B-3547-4AAC-D109-389D5596BF39.jpg'
p1227
I34
tp1228
g40
s(g418
I4
tp1229
g20
s(S'/home/clayton/grive/pics/6m3a33b8ba-bfdc-4061-a7b3-4c7fcc6839b7.jpg'
p1230
I75
tp1231
g10
s(S'/home/clayton/grive/pics/0m4b57e50c-264c-4921-b4ca-8db06d561bcd.jpg'
p1232
I53
tp1233
g40
s(g575
I12
tp1234
g3
s(S'/home/clayton/grive/pics/3w9DC9791F-43FF-A0F2-136E-27278922DE8B.jpg'
p1235
I16
tp1236
g3
s(S'/home/clayton/grive/pics/3wC8D3294A-B9A8-6A3A-8331-465651FB65F4.jpg'
p1237
I56
tp1238
g3
s(S'/home/clayton/grive/pics/1w9DC9791F-43FF-A0F2-136E-27278922DE8B.jpg'
p1239
I19
tp1240
g3
s(S'/home/clayton/grive/pics/1w455E62E6-5EAF-9986-F10E-383E9405062F.jpg'
p1241
I54
tp1242
g3
s(S'/home/clayton/grive/pics/0m38b89e01-3e85-484d-b908-782035034769.jpg'
p1243
I32
tp1244
g40
s(g1075
I38
tp1245
g40
s(S'/home/clayton/grive/pics/5wD61ACB92-52ED-6679-0D80-38A0B91ACF94.jpg'
p1246
I59
tp1247
g10
s(S'/home/clayton/grive/pics/0me82712a5-8b59-464a-b0fd-d3578d4e83b3.jpg'
p1248
I22
tp1249
g40
s(S'/home/clayton/grive/pics/5w547FEF42-FCBE-B966-D617-2888E39F4498.jpg'
p1250
I56
tp1251
g43
s(S'/home/clayton/grive/pics/0wC8A7AD15-B749-2EF7-395E-3567AFF409A3.jpg'
p1252
I46
tp1253
g40
s(S'/home/clayton/grive/pics/3wAF00C89F-447F-4CD2-7885-EFFB17DF9144.jpg'
p1254
I29
tp1255
g20
s(S'/home/clayton/grive/pics/3mbfafedbe-f2cf-4c12-b287-c50e7850c5eb.jpg'
p1256
I41
tp1257
g20
s(S'/home/clayton/grive/pics/6wA186136D-64B7-7288-372F-3843E2F6EAC4.jpg'
p1258
I58
tp1259
g10
s(S'/home/clayton/grive/pics/3wB75D3F87-A36C-1CFC-5730-28E28C577A75.jpg'
p1260
I45
tp1261
g3
s(S'/home/clayton/grive/pics/4wB6218480-F680-6013-04E0-38A57AE3C9A5.jpg'
p1262
I58
tp1263
g20
s(S'/home/clayton/grive/pics/1wEE5FC257-9937-1847-8A4C-31E98B5E3AC3.jpg'
p1264
I5
tp1265
g3
s(g789
I50
tp1266
g40
s(S'/home/clayton/grive/pics/4wB6C4A128-3361-C2D2-A951-EFEBA8C4F0EA.jpg'
p1267
I33
tp1268
g20
s(S'/home/clayton/grive/pics/5w77C09460-F810-F1E2-D2AC-EFE8805E512A.jpg'
p1269
I5
tp1270
g43
s(S'/home/clayton/grive/pics/3w75B0A7BB-3879-FF92-CC05-37B01FC821E8.jpg'
p1271
I54
tp1272
g3
s(S'/home/clayton/grive/pics/3w86213EB0-EFE5-91A5-6308-4CE43B9C4ABB.jpg'
p1273
I55
tp1274
g20
s(S'/home/clayton/grive/pics/0m3a33b8ba-bfdc-4061-a7b3-4c7fcc6839b7.jpg'
p1275
I17
tp1276
g40
s(S'/home/clayton/grive/pics/1KuoSad.jpg'
p1277
I92
tp1278
g20
s(S'/home/clayton/grive/pics/1w99B8ED23-08A7-D462-5293-489B07663B77.jpg'
p1279
I63
tp1280
g20
s(S'/home/clayton/grive/pics/6w75B0A7BB-3879-FF92-CC05-37B01FC821E8.jpg'
p1281
I50
tp1282
g10
s(g1123
I43
tp1283
g3
s(S'/home/clayton/grive/pics/4w42122DD0-1D98-3417-ED3C-3CD7325AEF4E.jpg'
p1284
I43
tp1285
g20
s(S'/home/clayton/grive/pics/4w77C09460-F810-F1E2-D2AC-EFE8805E512A.jpg'
p1286
I6
tp1287
g3
s(S'/home/clayton/grive/pics/5w514E3E36-1CFE-F72D-C4B3-EFEBDD4798A6.jpg'
p1288
I19
tp1289
g43
s(S'/home/clayton/grive/pics/4w01343164-B10C-A805-EF2F-2D0A02E780D0.jpg'
p1290
I84
tp1291
g3
s(S'/home/clayton/grive/pics/5m58c6be84-7243-4efb-b579-ce026defc3d2.jpg'
p1292
I45
tp1293
g10
s(S'/home/clayton/grive/pics/0maa24e3dd-73b7-43bb-9668-26cf6b146f58.jpg'
p1294
I49
tp1295
g40
s(S'/home/clayton/grive/pics/3wCFA8B97D-34BA-E8E4-129F-F00C349D4184.jpg'
p1296
I28
tp1297
g20
s(S'/home/clayton/grive/pics/2Angry.jpg (Case Conflict 1)'
p1298
I54
tp1299
g20
s(S'/home/clayton/grive/pics/2w9D75EFDC-3AE6-E0D7-C7F4-28316CCF01BA.jpg'
p1300
I92
tp1301
g20
s(S'/home/clayton/grive/pics/3KuoSurprised.jpg'
p1302
I95
tp1303
g20
s(S'/home/clayton/grive/pics/4w3AC58273-1249-F4C2-3A1C-289D10094EB9.jpg'
p1304
I110
tp1305
g20
s(S'/home/clayton/grive/pics/1w886BDA22-A149-C817-238D-EFF0E2A9992C.jpg'
p1306
I39
tp1307
g3
s(S'/home/clayton/grive/pics/3mc2d2626e-bc27-4876-975b-5ee13733ad4e.jpg'
p1308
I22
tp1309
g3
s(S'/home/clayton/grive/pics/2w2EF2AD95-51F3-FC29-E168-F00CBA1039A6.jpg'
p1310
I12
tp1311
g3
s(S'/home/clayton/grive/pics/0w4A42FC32-7901-26E1-A91B-33331AA34C92.jpg'
p1312
I43
tp1313
g40
s(S'/home/clayton/grive/pics/2wAE00083F-0B9D-4EED-63B7-2757C366CB50.jpg'
p1314
I73
tp1315
g3
s(g168
I23
tp1316
g43
s(S'/home/clayton/grive/pics/3w1F9D7616-B031-13BA-2CF1-332BB1E15DC2.jpg'
p1317
I42
tp1318
g3
s(S'/home/clayton/grive/pics/0wE7D19A4A-E34F-1A45-F7A2-EFF5B26C785E.jpg'
p1319
I31
tp1320
g40
s(S'/home/clayton/grive/pics/3w7E85E5B5-F196-987E-51DD-2EC43C62E76D.jpg'
p1321
I42
tp1322
g20
s(S'/home/clayton/grive/pics/2w9FB993B7-8646-7117-CD23-27C2F4C7EC67.jpg'
p1323
I131
tp1324
g20
s(S'/home/clayton/grive/pics/6ma066d0c9-b62d-47e2-aba9-89f5120f6750.jpg'
p1325
I43
tp1326
g10
s(S'/home/clayton/grive/pics/3w0A63D31C-0B59-BFF2-4F27-46B385316AD7.jpg'
p1327
I25
tp1328
g20
s(S'/home/clayton/grive/pics/5w455E62E6-5EAF-9986-F10E-383E9405062F.jpg'
p1329
I68
tp1330
g10
s(S'/home/clayton/grive/pics/2w3D74C8C9-3DC1-0E0C-4327-4CE1A9A76C25.jpg'
p1331
I73
tp1332
g3
s(S'/home/clayton/grive/pics/1mc2d2626e-bc27-4876-975b-5ee13733ad4e.jpg'
p1333
I22
tp1334
g20
s(S'/home/clayton/grive/pics/5w5465E952-2333-F4F0-922E-D82211FE562D.jpg'
p1335
I7
tp1336
g43
s(g988
I53
tp1337
g10
s(S'/home/clayton/grive/pics/5wD4EB92C9-4F2D-BEA4-25DD-EFD882F1442E.jpg'
p1338
I28
tp1339
g10
s(S'/home/clayton/grive/pics/3KuoGlassesSurprised.jpg'
p1340
I75
tp1341
g20
s(S'/home/clayton/grive/pics/1wAEFC7C09-CD73-3B8E-A369-7AFA0E31AF3D.jpg'
p1342
I28
tp1343
g3
s(S'/home/clayton/grive/pics/4m38b89e01-3e85-484d-b908-782035034769.jpg'
p1344
I7
tp1345
g3
s(S'/home/clayton/grive/pics/5wEE5485BA-9F02-B81F-7B8A-D865E20BE312.jpg'
p1346
I43
tp1347
g43
s(S'/home/clayton/grive/pics/2wCB4A8AF8-BFDA-62AB-F96C-F00E4F7BFBE2.jpg'
p1348
I17
tp1349
g3
s(S'/home/clayton/grive/pics/4w9D75EFDC-3AE6-E0D7-C7F4-28316CCF01BA.jpg'
p1350
I69
tp1351
g20
s(S'/home/clayton/grive/pics/1w42122DD0-1D98-3417-ED3C-3CD7325AEF4E.jpg'
p1352
I10
tp1353
g3
s(S'/home/clayton/grive/pics/1wB6B835B5-9521-A5DD-61B1-F009B95FB653.jpg'
p1354
I37
tp1355
g20
s(S'/home/clayton/grive/pics/5w345D99A7-58C3-9A8D-4DBE-F0039637562A.jpg'
p1356
I19
tp1357
g43
s(S'/home/clayton/grive/pics/4w5F3E20F0-CA15-AB7C-C873-3329D70151F2.jpg'
p1358
I58
tp1359
g20
s(S'/home/clayton/grive/pics/6wB7455899-8A91-0D14-67FB-3326BB8944DD.jpg'
p1360
I48
tp1361
g10
s(S'/home/clayton/grive/pics/1m38b89e01-3e85-484d-b908-782035034769.jpg'
p1362
I24
tp1363
g20
s(S'/home/clayton/grive/pics/0w6583AC61-429D-C61E-715E-EFF713238241.jpg'
p1364
I19
tp1365
g40
s(S'/home/clayton/grive/pics/3w038FF51B-B514-1E4A-1F79-37ACE961D312.jpg'
p1366
I50
tp1367
g20
s(S'/home/clayton/grive/pics/4w3EC88953-2C9A-08EE-D3A5-465D5B7072D4.jpg'
p1368
I76
tp1369
g3
s(S'/home/clayton/grive/pics/1w6D8B00F1-237C-5070-C5C5-2725674902D4.jpg'
p1370
I72
tp1371
g3
s(S'/home/clayton/grive/pics/1w6B887E6C-D9CE-E590-E3F0-6B34BF5BA23A.jpg'
p1372
I21
tp1373
g20
s(S'/home/clayton/grive/pics/3w503AB7EB-1816-0B00-1966-EFEA502B0E95.jpg'
p1374
I5
tp1375
g3
s(S'/home/clayton/grive/pics/0m53633fb0-91e3-4336-8db7-0f2ed20929f7.jpg'
p1376
I42
tp1377
g40
s(g82
I6
tp1378
g20
s(S'/home/clayton/grive/pics/0wE6FF3C82-8BAF-EFF6-6F4B-F007379019E6.jpg'
p1379
I13
tp1380
g40
s(S'/home/clayton/grive/pics/6w656B02A8-518C-90F3-7234-38211A0CD399.jpg'
p1381
I55
tp1382
g10
s(S'/home/clayton/grive/pics/2w5D981B62-3BF3-3379-219B-EFF97EC7E5A0.jpg'
p1383
I63
tp1384
g20
s(S'/home/clayton/grive/pics/2w7E85E5B5-F196-987E-51DD-2EC43C62E76D.jpg'
p1385
I63
tp1386
g20
s(S'/home/clayton/grive/pics/5wE91A57C8-8766-64BA-4E1F-33C5F731BCE4.jpg'
p1387
I26
tp1388
g10
s(S'/home/clayton/grive/pics/0wD445B589-5883-3783-A84A-29622D8DBC8C.jpg'
p1389
I85
tp1390
g40
s(S'/home/clayton/grive/pics/6w75A71932-7631-6493-AA4D-CD72B83F1138.jpg'
p1391
I93
tp1392
g10
s(S'/home/clayton/grive/pics/4w2C9F8C42-E900-B747-C962-465A32A9CCE7.jpg'
p1393
I50
tp1394
g20
s(S'/home/clayton/grive/pics/1wF7EB9296-7FE8-1C37-2486-4CDB6B286E59.jpg'
p1395
I50
tp1396
g20
s(S'/home/clayton/grive/pics/3w23C4FE8C-F60F-F7A0-209F-EFEDBF964235.jpg'
p1397
I19
tp1398
g3
s(S'/home/clayton/grive/pics/6md99d5900-5461-41eb-adb1-8681a6885dc6.jpg'
p1399
I43
tp1400
g10
s(S'/home/clayton/grive/pics/5w453B0D9A-7B7C-9A9F-3D97-F00362CCA49C.jpg'
p1401
I24
tp1402
g43
s(S'/home/clayton/grive/pics/0ma066d0c9-b62d-47e2-aba9-89f5120f6750.jpg'
p1403
I33
tp1404
g40
s(S'/home/clayton/grive/pics/6wEE5FC257-9937-1847-8A4C-31E98B5E3AC3.jpg'
p1405
I14
tp1406
g43
s(S'/home/clayton/grive/pics/1w8C431FA1-7A06-58B5-4FDB-EFF2BCDEFC0C.jpg'
p1407
I14
tp1408
g3
s(g1015
I14
tp1409
g3
s(S'/home/clayton/grive/pics/1wD445B589-5883-3783-A84A-29622D8DBC8C.jpg'
p1410
I69
tp1411
g20
s(S'/home/clayton/grive/pics/4w0D06F3B2-6808-7A67-1A70-EFE381C4F509.jpg'
p1412
I6
tp1413
g3
s(S'/home/clayton/grive/pics/2w0AAA0AC9-6F8F-E71E-133D-46E81C08DACC.jpg'
p1414
I50
tp1415
g20
s(S'/home/clayton/grive/pics/2wCFA8B97D-34BA-E8E4-129F-F00C349D4184.jpg'
p1416
I28
tp1417
g20
s(S'/home/clayton/grive/pics/3m3a33b8ba-bfdc-4061-a7b3-4c7fcc6839b7.jpg'
p1418
I75
tp1419
g20
s(S'/home/clayton/grive/pics/1m8e9ff3d6-a4ff-4675-848b-314010102ee8.jpg'
p1420
I10
tp1421
g3
s(S'/home/clayton/grive/pics/0wB3B65A5B-6FD6-FB6B-DC2C-3797ABC3D83E.jpg'
p1422
I45
tp1423
g40
s(S'/home/clayton/grive/pics/0wE558DDB7-482D-F4EF-052D-EFE9601C0416.jpg'
p1424
I5
tp1425
g40
s(S'/home/clayton/grive/pics/2wE579115D-288C-F313-6988-EFDB2EB5D4BF.jpg'
p1426
I25
tp1427
g3
s(g1267
I12
tp1428
g3
s(S'/home/clayton/grive/pics/3m58c6be84-7243-4efb-b579-ce026defc3d2.jpg'
p1429
I33
tp1430
g3
s(S'/home/clayton/grive/pics/4w3F13F903-5652-1111-F8C4-28193F107980.jpg'
p1431
I4
tp1432
g3
s(S'/home/clayton/grive/pics/3w886BDA22-A149-C817-238D-EFF0E2A9992C.jpg'
p1433
I33
tp1434
g20
s(S'/home/clayton/grive/pics/3m5b216672-8484-4348-b9ab-3f0437fe53dc.jpg'
p1435
I34
tp1436
g3
s(g698
I40
tp1437
g40
s(g502
I31
tp1438
g10
s(g479
I67
tp1439
g20
s(S'/home/clayton/grive/pics/5w8039E961-EE34-7805-4B54-D80D2BE38F57.jpg'
p1440
I11
tp1441
g10
s(S'/home/clayton/grive/pics/6w5F3E20F0-CA15-AB7C-C873-3329D70151F2.jpg'
p1442
I55
tp1443
g43
s(S'/home/clayton/grive/pics/0w5465E952-2333-F4F0-922E-D82211FE562D.jpg'
p1444
I15
tp1445
g40
s(g783
I13
tp1446
g3
s(S'/home/clayton/grive/pics/6w0AAA0AC9-6F8F-E71E-133D-46E81C08DACC.jpg'
p1447
I34
tp1448
g10
s(S'/home/clayton/grive/pics/2w3ED8AF10-C2CD-9852-6CD0-4B1889141529.jpg'
p1449
I6
tp1450
g3
s(S'/home/clayton/grive/pics/1w23C4FE8C-F60F-F7A0-209F-EFEDBF964235.jpg'
p1451
I12
tp1452
g3
s(S'/home/clayton/grive/pics/4m3a33b8ba-bfdc-4061-a7b3-4c7fcc6839b7.jpg'
p1453
I63
tp1454
g20
s(S'/home/clayton/grive/pics/3md4bfe2ba-2af3-4f65-822b-b1f180ce52a1.jpg'
p1455
I9
tp1456
g3
s(S'/home/clayton/grive/pics/2wF9A08F82-E468-659D-6E2A-4649DD6662AF.jpg'
p1457
I43
tp1458
g20
s(S'/home/clayton/grive/pics/6wEA81AD9F-C919-7319-BDCE-333C59C6579E.jpg'
p1459
I31
tp1460
g10
s(S'/home/clayton/grive/pics/1w5F94C6B9-8556-11D3-8267-EFFDD1F1CD4B.jpg'
p1461
I40
tp1462
g20
s(S'/home/clayton/grive/pics/0wEFC295BD-AB8D-C93F-1AEF-332E960B6391.jpg'
p1463
I36
tp1464
g40
s(S'/home/clayton/grive/pics/2w0CC8EC66-FAA1-705C-0776-4AE9EA516A65.jpg'
p1465
I8
tp1466
g3
s(S'/home/clayton/grive/pics/3m57519cd1-d254-41e5-9418-09b11ad66a50.jpg'
p1467
I29
tp1468
g20
s(S'/home/clayton/grive/pics/1w12EC627A-1192-EC96-EEC9-489DEAE24E0B.jpg'
p1469
I50
tp1470
g20
s(g310
I45
tp1471
g3
s(S'/home/clayton/grive/pics/6w88F7430E-6DC5-7C09-D0EC-EFF12BB629CC.jpg'
p1472
I10
tp1473
g10
s(g811
I86
tp1474
g10
s(S'/home/clayton/grive/pics/2wA186136D-64B7-7288-372F-3843E2F6EAC4.jpg'
p1475
I60
tp1476
g20
s(S'/home/clayton/grive/pics/6w275D2B77-AD50-E6CD-0121-D80138F626AC.jpg'
p1477
I26
tp1478
g10
s(S'/home/clayton/grive/pics/4wE91A57C8-8766-64BA-4E1F-33C5F731BCE4.jpg'
p1479
I39
tp1480
g20
s(S'/home/clayton/grive/pics/0wC18279D9-47D0-4718-36BA-EFECC87D675D.jpg'
p1481
I10
tp1482
g40
s(S'/home/clayton/grive/pics/0w0A63D31C-0B59-BFF2-4F27-46B385316AD7.jpg'
p1483
I25
tp1484
g40
s(S'/home/clayton/grive/pics/3wD18772FE-63EF-7FDC-EF9A-F00545998FBB.jpg'
p1485
I5
tp1486
g3
s(g154
I4
tp1487
g3
s(S'/home/clayton/grive/pics/5m0792947c-37db-4047-bef9-7a582d6f6fca.jpg'
p1488
I14
tp1489
g10
s(g276
I7
tp1490
g3
s(S'/home/clayton/grive/pics/5w90056D7B-4D04-567E-6142-F00A0A0CACCC.jpg'
p1491
I32
tp1492
g10
s(S'/home/clayton/grive/pics/5wFF66FA36-78E6-6508-EDF0-3686176BF53D.jpg'
p1493
I17
tp1494
g10
s(S'/home/clayton/grive/pics/5w809F0A15-03D4-873B-62D0-6B3146FEE7CF.jpg'
p1495
I70
tp1496
g10
s(S'/home/clayton/grive/pics/6w422A3E39-00CD-54DC-F42A-332478449BD6.jpg'
p1497
I5
tp1498
g43
s(S'/home/clayton/grive/pics/4wCC78F689-E22B-23A4-2B55-3336F8A9B35C.jpg'
p1499
I39
tp1500
g20
s(S'/home/clayton/grive/pics/6w9E129634-2C33-C86B-30F7-6B6F8AB2AF22.jpg'
p1501
I64
tp1502
g10
s(S'/home/clayton/grive/pics/2mc2d2626e-bc27-4876-975b-5ee13733ad4e.jpg'
p1503
I30
tp1504
g3
s(S'/home/clayton/grive/pics/3w99B8ED23-08A7-D462-5293-489B07663B77.jpg'
p1505
I60
tp1506
g20
s(S'/home/clayton/grive/pics/1mfdc9ff7d-8480-4e52-940b-33d65b5f09d9.jpg'
p1507
I47
tp1508
g3
s(S'/home/clayton/grive/pics/1wF51ABC70-E908-AA82-8C29-D8B59FE8C62F.jpg'
p1509
I48
tp1510
g20
s(S'/home/clayton/grive/pics/6wE1F57AF5-064C-9BD6-AE25-F007E6803651.jpg'
p1511
I42
tp1512
g10
s(S'/home/clayton/grive/pics/4w66F66B26-FBE8-A425-CDA6-D0273FBE14F2.jpg'
p1513
I51
tp1514
g3
s(S'/home/clayton/grive/pics/6wE0F39B0C-94A5-8BD4-61A2-EFE587012FA0.jpg'
p1515
I6
tp1516
g10
s(S'/home/clayton/grive/pics/0mfdc9ff7d-8480-4e52-940b-33d65b5f09d9.jpg'
p1517
I39
tp1518
g40
s(g350
I40
tp1519
g20
s(g1230
I10
tp1520
g43
s(S'/home/clayton/grive/pics/5wEE5FC257-9937-1847-8A4C-31E98B5E3AC3.jpg'
p1521
I21
tp1522
g43
s(S'/home/clayton/grive/pics/6wFF66FA36-78E6-6508-EDF0-3686176BF53D.jpg'
p1523
I17
tp1524
g10
s(S'/home/clayton/grive/pics/4m58c6be84-7243-4efb-b579-ce026defc3d2.jpg'
p1525
I23
tp1526
g20
s(S'/home/clayton/grive/pics/2wAC2868E4-B636-2A84-4932-D85F939963F1.jpg'
p1527
I85
tp1528
g20
s(S'/home/clayton/grive/pics/2m89be575f-50b5-4d23-b6d7-940a46e9c030.jpg'
p1529
I56
tp1530
g20
s(S'/home/clayton/grive/pics/2w8A998EFF-7A50-74D3-B69B-EFE0E7C90AA0.jpg'
p1531
I26
tp1532
g3
s(S'/home/clayton/grive/pics/3wBE6C87EF-3D62-189A-34DB-33F0A359A14F.jpg'
p1533
I17
tp1534
g20
s(S'/home/clayton/grive/pics/2wBE6C87EF-3D62-189A-34DB-33F0A359A14F.jpg'
p1535
I9
tp1536
g20
s(S'/home/clayton/grive/pics/4KuoScared.jpg'
p1537
I107
tp1538
g20
s(S'/home/clayton/grive/pics/5mdb7d65e0-544b-4fd9-afc4-62fe2f96b2e1.jpg'
p1539
I22
tp1540
g43
s(S'/home/clayton/grive/pics/6wB6B835B5-9521-A5DD-61B1-F009B95FB653.jpg'
p1541
I33
tp1542
g43
s(S'/home/clayton/grive/pics/4w9FB993B7-8646-7117-CD23-27C2F4C7EC67.jpg'
p1543
I122
tp1544
g20
s(S'/home/clayton/grive/pics/6wEFC295BD-AB8D-C93F-1AEF-332E960B6391.jpg'
p1545
I25
tp1546
g10
s(S'/home/clayton/grive/pics/1w9D75EFDC-3AE6-E0D7-C7F4-28316CCF01BA.jpg'
p1547
I78
tp1548
g20
s(S'/home/clayton/grive/pics/6wD445B589-5883-3783-A84A-29622D8DBC8C.jpg'
p1549
I75
tp1550
g10
s(S'/home/clayton/grive/pics/2w809F0A15-03D4-873B-62D0-6B3146FEE7CF.jpg'
p1551
I74
tp1552
g20
s(S'/home/clayton/grive/pics/4w5D592E12-AEF9-B530-374E-3322B125D1A1.jpg'
p1553
I75
tp1554
g20
s(S'/home/clayton/grive/pics/1m139a1aec-0c0b-440d-8a6c-7d5c8598259c.jpg'
p1555
I34
tp1556
g20
s(S'/home/clayton/grive/pics/3w39D34F71-9398-68F2-4F8C-F0102C7A0F3C.jpg'
p1557
I23
tp1558
g3
s(S'/home/clayton/grive/pics/5w88F7430E-6DC5-7C09-D0EC-EFF12BB629CC.jpg'
p1559
I39
tp1560
g10
s(S'/home/clayton/grive/pics/5w038FF51B-B514-1E4A-1F79-37ACE961D312.jpg'
p1561
I55
tp1562
g10
s(g567
I8
tp1563
g10
s(S'/home/clayton/grive/pics/3-Surprised.JPG'
p1564
I106
tp1565
g20
s(g13
I59
tp1566
g40
s(S'/home/clayton/grive/pics/6wAC2868E4-B636-2A84-4932-D85F939963F1.jpg'
p1567
I81
tp1568
g10
s(S'/home/clayton/grive/pics/0w455E62E6-5EAF-9986-F10E-383E9405062F.jpg'
p1569
I44
tp1570
g40
s(g1564
I5
tp1571
g3
s(S'/home/clayton/grive/pics/0w88F7430E-6DC5-7C09-D0EC-EFF12BB629CC.jpg'
p1572
I22
tp1573
g40
s(S'/home/clayton/grive/pics/2w4A42FC32-7901-26E1-A91B-33331AA34C92.jpg'
p1574
I26
tp1575
g20
s(S'/home/clayton/grive/pics/6w8039E961-EE34-7805-4B54-D80D2BE38F57.jpg'
p1576
I11
tp1577
g43
s(S'/home/clayton/grive/pics/5maa24e3dd-73b7-43bb-9668-26cf6b146f58.jpg'
p1578
I45
tp1579
g10
s(S'/home/clayton/grive/pics/1m9340b0af-fe78-4190-bcf7-13abbdf650b9.jpg'
p1580
I6
tp1581
g3
s(S'/home/clayton/grive/pics/1m4ed4b5c3-8594-4921-981d-970fc18d5fea.jpg'
p1582
I49
tp1583
g20
s(S'/home/clayton/grive/pics/3md99d5900-5461-41eb-adb1-8681a6885dc6.jpg'
p1584
I36
tp1585
g3
s(S'/home/clayton/grive/pics/4wF38C5939-5878-3826-255B-37EF8300E8D1.jpg'
p1586
I51
tp1587
g20
s(S'/home/clayton/grive/pics/0w9A37A263-9801-0A1A-312E-3334DD7F32AC.jpg'
p1588
I63
tp1589
g40
s(g895
I35
tp1590
g20
s(S'/home/clayton/grive/pics/1w422A3E39-00CD-54DC-F42A-332478449BD6.jpg'
p1591
I83
tp1592
g20
s(g596
I5
tp1593
g3
s(S'/home/clayton/grive/pics/6wC8D3294A-B9A8-6A3A-8331-465651FB65F4.jpg'
p1594
I70
tp1595
g10
s(g690
I42
tp1596
g40
s(g641
I10
tp1597
g43
s(S'/home/clayton/grive/pics/2w275D2B77-AD50-E6CD-0121-D80138F626AC.jpg'
p1598
I8
tp1599
g20
s(S'/home/clayton/grive/pics/0w5F3E20F0-CA15-AB7C-C873-3329D70151F2.jpg'
p1600
I38
tp1601
g40
s(S'/home/clayton/grive/pics/0happy11.JPG'
p1602
I35
tp1603
g40
s(S'/home/clayton/grive/pics/2w8772ED2F-20D8-F4F8-64C1-EFFBA3790753.jpg'
p1604
I13
tp1605
g20
s(S'/home/clayton/grive/pics/2w869F00B2-7F5B-6906-0CB1-EFF2FF299FD4.jpg'
p1606
I21
tp1607
g20
s(S'/home/clayton/grive/pics/1w57166D0D-8403-104C-6BEA-2F07DBC2E389.jpg'
p1608
I35
tp1609
g20
s(S'/home/clayton/grive/pics/3w01343164-B10C-A805-EF2F-2D0A02E780D0.jpg'
p1610
I55
tp1611
g20
s(g1
I11
tp1612
g3
s(g735
I7
tp1613
g43
s(S'/home/clayton/grive/pics/6wAF00C89F-447F-4CD2-7885-EFFB17DF9144.jpg'
p1614
I37
tp1615
g10
s(S'/home/clayton/grive/pics/1w30492B57-425C-19D5-B21A-38A9A06B20F8.jpg'
p1616
I11
tp1617
g20
s(S'/home/clayton/grive/pics/4w649F4C25-595D-5383-9B2D-F0041EC3CC63.jpg'
p1618
I17
tp1619
g3
s(S'/home/clayton/grive/pics/2mbfafedbe-f2cf-4c12-b287-c50e7850c5eb.jpg'
p1620
I35
tp1621
g20
s(S'/home/clayton/grive/pics/6w6C9F7832-CE9D-15A0-5DA4-6B8CFF5E8490.jpg'
p1622
I73
tp1623
g10
s(S'/home/clayton/grive/pics/4Snapshot_20130218_2.JPG'
p1624
I56
tp1625
g20
s(S'/home/clayton/grive/pics/5w17B211E6-BF03-6BE8-3E13-EFF255F37851.jpg'
p1626
I19
tp1627
g43
s(S'/home/clayton/grive/pics/4mee953784-3873-4738-a45f-15bf2d546bdf.jpg'
p1628
I16
tp1629
g3
s(S'/home/clayton/grive/pics/3m3489e795-35d9-4bc6-83c2-0b80c5b780ea.jpg'
p1630
I13
tp1631
g20
s(S'/home/clayton/grive/pics/4w9142C5B8-00C3-B41B-B5F7-7B04092215BC.jpg'
p1632
I13
tp1633
g3
s(S'/home/clayton/grive/pics/4w45F00E26-EEF8-ADBC-B511-379A0FB86DFF.jpg'
p1634
I13
tp1635
g20
s(g756
I6
tp1636
g3
s(S'/home/clayton/grive/pics/1wE953282F-1713-2679-406D-285C8932B012.jpg'
p1637
I11
tp1638
g3
s(S'/home/clayton/grive/pics/4wA78D46C1-F503-3E91-F99D-6B2FA22B3D14.jpg'
p1639
I62
tp1640
g20
s(S'/home/clayton/grive/pics/5wD5BE1562-F05B-1AA8-6290-37EE9C424B0E.jpg'
p1641
I53
tp1642
g10
s(S'/home/clayton/grive/pics/3m89be575f-50b5-4d23-b6d7-940a46e9c030.jpg'
p1643
I57
tp1644
g3
s(S'/home/clayton/grive/pics/1wAE00083F-0B9D-4EED-63B7-2757C366CB50.jpg'
p1645
I70
tp1646
g20
s(g664
I5
tp1647
g3
s(S'/home/clayton/grive/pics/0w2EF2AD95-51F3-FC29-E168-F00CBA1039A6.jpg'
p1648
I15
tp1649
g40
s(g1219
I8
tp1650
g3
s(S'/home/clayton/grive/pics/0w8039E961-EE34-7805-4B54-D80D2BE38F57.jpg'
p1651
I13
tp1652
g40
s(S'/home/clayton/grive/pics/6m6b79eaeb-1360-4503-88c4-d37bedee7440.jpg'
p1653
I31
tp1654
g10
s(S'/home/clayton/grive/pics/3wD445B589-5883-3783-A84A-29622D8DBC8C.jpg'
p1655
I74
tp1656
g3
s(S'/home/clayton/grive/pics/2Snapshot_20130218_4.JPG'
p1657
I64
tp1658
g3
s(S'/home/clayton/grive/pics/5w9142C5B8-00C3-B41B-B5F7-7B04092215BC.jpg'
p1659
I15
tp1660
g10
s(S'/home/clayton/grive/pics/6wB75D3F87-A36C-1CFC-5730-28E28C577A75.jpg'
p1661
I55
tp1662
g10
s(g795
I23
tp1663
g10
s(S'/home/clayton/grive/pics/3wB6C4A128-3361-C2D2-A951-EFEBA8C4F0EA.jpg'
p1664
I35
tp1665
g3
s(S'/home/clayton/grive/pics/6wF51ABC70-E908-AA82-8C29-D8B59FE8C62F.jpg'
p1666
I55
tp1667
g10
s(S'/home/clayton/grive/pics/2w77EDF533-C254-FD89-6404-4660A2F03302.jpg'
p1668
I9
tp1669
g3
s(S'/home/clayton/grive/pics/1wEBD68548-E683-453C-76FA-387540224631.jpg'
p1670
I5
tp1671
g3
s(S'/home/clayton/grive/pics/2w7F7338BC-E565-8DED-FB80-46627677A6C7.jpg'
p1672
I75
tp1673
g20
s(S'/home/clayton/grive/pics/0w9E129634-2C33-C86B-30F7-6B6F8AB2AF22.jpg'
p1674
I72
tp1675
g40
s(S'/home/clayton/grive/pics/1w649F4C25-595D-5383-9B2D-F0041EC3CC63.jpg'
p1676
I9
tp1677
g20
s(S'/home/clayton/grive/pics/1w7E85E5B5-F196-987E-51DD-2EC43C62E76D.jpg'
p1678
I61
tp1679
g20
s(S'/home/clayton/grive/pics/2w1DA4F3B0-46AF-07D5-6E56-2A8D17618C41.jpg'
p1680
I59
tp1681
g20
s(S'/home/clayton/grive/pics/5wCFA8B97D-34BA-E8E4-129F-F00C349D4184.jpg'
p1682
I39
tp1683
g10
s(g1567
I53
tp1684
g10
s(S'/home/clayton/grive/pics/1m6b79eaeb-1360-4503-88c4-d37bedee7440.jpg'
p1685
I24
tp1686
g20
s(S'/home/clayton/grive/pics/5wC0CB773B-9791-D38C-9E93-EFFCB6A4A241.jpg'
p1687
I59
tp1688
g10
s(S'/home/clayton/grive/pics/0mfeef873d-a3d3-409a-b559-85c7ecff3bba.jpg'
p1689
I39
tp1690
g40
s(S'/home/clayton/grive/pics/4w453B0D9A-7B7C-9A9F-3D97-F00362CCA49C.jpg'
p1691
I32
tp1692
g20
s(S'/home/clayton/grive/pics/4wA186136D-64B7-7288-372F-3843E2F6EAC4.jpg'
p1693
I60
tp1694
g20
s(S'/home/clayton/grive/pics/3m6b79eaeb-1360-4503-88c4-d37bedee7440.jpg'
p1695
I5
tp1696
g3
s(S'/home/clayton/grive/pics/3wD4EB92C9-4F2D-BEA4-25DD-EFD882F1442E.jpg'
p1697
I8
tp1698
g20
s(g706
I4
tp1699
g3
s(g62
I14
tp1700
g3
s(S'/home/clayton/grive/pics/3wEFC295BD-AB8D-C93F-1AEF-332E960B6391.jpg'
p1701
I23
tp1702
g3
s(S'/home/clayton/grive/pics/6wF38C5939-5878-3826-255B-37EF8300E8D1.jpg'
p1703
I47
tp1704
g10
s(S'/home/clayton/grive/pics/1md99d5900-5461-41eb-adb1-8681a6885dc6.jpg'
p1705
I60
tp1706
g20
s(S'/home/clayton/grive/pics/3Snapshot_20130218_3.JPG'
p1707
I42
tp1708
g20
s(S'/home/clayton/grive/pics/5w86213EB0-EFE5-91A5-6308-4CE43B9C4ABB.jpg'
p1709
I56
tp1710
g10
s(S'/home/clayton/grive/pics/5w0C837C12-99DE-6798-DCC0-6B372D9B14DF.jpg'
p1711
I70
tp1712
g43
s(S'/home/clayton/grive/pics/5wEFC295BD-AB8D-C93F-1AEF-332E960B6391.jpg'
p1713
I24
tp1714
g10
s(S'/home/clayton/grive/pics/2w30492B57-425C-19D5-B21A-38A9A06B20F8.jpg'
p1715
I29
tp1716
g20
s(S'/home/clayton/grive/pics/6w04AB60B8-053D-0086-A395-4698C6ECDA34.jpg'
p1717
I41
tp1718
g10
s(g338
I5
tp1719
g3
s(g481
I16
tp1720
g3
s(S'/home/clayton/grive/pics/3m040789e6-8b61-484e-b935-203eeeaf5a7f.jpg'
p1721
I81
tp1722
g20
s(S'/home/clayton/grive/pics/5wB7455899-8A91-0D14-67FB-3326BB8944DD.jpg'
p1723
I17
tp1724
g10
s(S'/home/clayton/grive/pics/0mbb625c3c-721b-4e37-9aa1-68684b210046.jpg'
p1725
I28
tp1726
g40
s(S'/home/clayton/grive/pics/2w5F3E20F0-CA15-AB7C-C873-3329D70151F2.jpg'
p1727
I36
tp1728
g20
s(S'/home/clayton/grive/pics/2wD7662DB4-ED2D-0E94-3A81-F002716EC18A.jpg'
p1729
I36
tp1730
g20
s(g418
I5
tp1731
g3
s(S'/home/clayton/grive/pics/0w66F66B26-FBE8-A425-CDA6-D0273FBE14F2.jpg'
p1732
I36
tp1733
g40
s(S'/home/clayton/grive/pics/2md4bfe2ba-2af3-4f65-822b-b1f180ce52a1.jpg'
p1734
I27
tp1735
g20
s(S'/home/clayton/grive/pics/6w77C09460-F810-F1E2-D2AC-EFE8805E512A.jpg'
p1736
I9
tp1737
g43
s(S'/home/clayton/grive/pics/1w275D2B77-AD50-E6CD-0121-D80138F626AC.jpg'
p1738
I8
tp1739
g3
s(S'/home/clayton/grive/pics/5m3489e795-35d9-4bc6-83c2-0b80c5b780ea.jpg'
p1740
I33
tp1741
g10
s(S'/home/clayton/grive/pics/2wAEFC7C09-CD73-3B8E-A369-7AFA0E31AF3D.jpg'
p1742
I45
tp1743
g20
s(S'/home/clayton/grive/pics/1wC18279D9-47D0-4718-36BA-EFECC87D675D.jpg'
p1744
I6
tp1745
g3
s(S'/home/clayton/grive/pics/0wC0CB773B-9791-D38C-9E93-EFFCB6A4A241.jpg'
p1746
I31
tp1747
g40
s(g459
I50
tp1748
g20
s(g1056
I5
tp1749
g15
s(S'/home/clayton/grive/pics/4wAE00083F-0B9D-4EED-63B7-2757C366CB50.jpg'
p1750
I66
tp1751
g3
s(S'/home/clayton/grive/pics/5w2FF168A3-54B0-C7D9-47C9-37FA318D713D.jpg'
p1752
I20
tp1753
g10
s(S'/home/clayton/grive/pics/6md4bfe2ba-2af3-4f65-822b-b1f180ce52a1.jpg'
p1754
I25
tp1755
g10
s(g1221
I4
tp1756
g3
s(S'/home/clayton/grive/pics/6w2CDDD638-E92B-8EBA-60E3-F00A5BD784E3.jpg'
p1757
I27
tp1758
g10
s(S'/home/clayton/grive/pics/6w2B02DD01-5BAB-ABA0-2EAF-3833D439A739.jpg'
p1759
I129
tp1760
g10
s(S'/home/clayton/grive/pics/5wB47288D7-FAC8-1445-5B16-EFE039E4D11B.jpg'
p1761
I5
tp1762
g43
s(S'/home/clayton/grive/pics/5w1522DE41-3A6C-DEA0-CB4C-46E4E637BE61.jpg'
p1763
I30
tp1764
g43
s(g1177
I4
tp1765
g3
s(S'/home/clayton/grive/pics/2w12EC627A-1192-EC96-EEC9-489DEAE24E0B.jpg'
p1766
I38
tp1767
g20
s(S'/home/clayton/grive/pics/6w8772ED2F-20D8-F4F8-64C1-EFFBA3790753.jpg'
p1768
I4
tp1769
g43
s(g819
I7
tp1770
g43
s(S'/home/clayton/grive/pics/6wBE6C87EF-3D62-189A-34DB-33F0A359A14F.jpg'
p1771
I10
tp1772
g10
s(S'/home/clayton/grive/pics/2wEBD68548-E683-453C-76FA-387540224631.jpg'
p1773
I4
tp1774
g3
s(S'/home/clayton/grive/pics/0wB7455899-8A91-0D14-67FB-3326BB8944DD.jpg'
p1775
I84
tp1776
g40
s(g232
I48
tp1777
g3
s(S'/home/clayton/grive/pics/4w2C6C7917-E34A-87BF-D366-2849EADFBD8B.jpg'
p1778
I26
tp1779
g20
s(g1412
I29
tp1780
g20
s(S'/home/clayton/grive/pics/2m6ce740af-da51-4c19-92ce-7b9d9adba5fe.jpg'
p1781
I22
tp1782
g20
s(S'/home/clayton/grive/pics/5w99B8ED23-08A7-D462-5293-489B07663B77.jpg'
p1783
I69
tp1784
g10
s(S'/home/clayton/grive/pics/6-Neutral.JPG'
p1785
I6
tp1786
g43
s(g1319
I25
tp1787
g37
s(S'/home/clayton/grive/pics/4w7B52AA0B-3547-4AAC-D109-389D5596BF39.jpg'
p1788
I6
tp1789
g3
s(S'/home/clayton/grive/pics/1wB3B65A5B-6FD6-FB6B-DC2C-3797ABC3D83E.jpg'
p1790
I41
tp1791
g3
s(S'/home/clayton/grive/pics/2mdb7d65e0-544b-4fd9-afc4-62fe2f96b2e1.jpg'
p1792
I30
tp1793
g20
s(S'/home/clayton/grive/pics/4w514E3E36-1CFE-F72D-C4B3-EFEBDD4798A6.jpg'
p1794
I5
tp1795
g3
s(S'/home/clayton/grive/pics/2w99B8ED23-08A7-D462-5293-489B07663B77.jpg'
p1796
I38
tp1797
g20
s(S'/home/clayton/grive/pics/5w39D34F71-9398-68F2-4F8C-F0102C7A0F3C.jpg'
p1798
I7
tp1799
g43
s(S'/home/clayton/grive/pics/0w5D981B62-3BF3-3379-219B-EFF97EC7E5A0.jpg'
p1800
I58
tp1801
g40
s(S'/home/clayton/grive/pics/6wCADCAECA-D3E7-342A-07FA-4652ED88FBA9.jpg'
p1802
I10
tp1803
g10
s(S'/home/clayton/grive/pics/1w90056D7B-4D04-567E-6142-F00A0A0CACCC.jpg'
p1804
I33
tp1805
g20
s(S'/home/clayton/grive/pics/0mdb7d65e0-544b-4fd9-afc4-62fe2f96b2e1.jpg'
p1806
I18
tp1807
g40
s(S'/home/clayton/grive/pics/5wF60A9437-78B3-BDE2-BCD1-EFFEB41D538F.jpg'
p1808
I42
tp1809
g10
s(S'/home/clayton/grive/pics/4wF7EB9296-7FE8-1C37-2486-4CDB6B286E59.jpg'
p1810
I94
tp1811
g20
s(S'/home/clayton/grive/pics/1wEA81AD9F-C919-7319-BDCE-333C59C6579E.jpg'
p1812
I28
tp1813
g20
s(S'/home/clayton/grive/pics/5w3ED8AF10-C2CD-9852-6CD0-4B1889141529.jpg'
p1814
I4
tp1815
g43
s(S'/home/clayton/grive/pics/0w7F7338BC-E565-8DED-FB80-46627677A6C7.jpg'
p1816
I72
tp1817
g40
s(S'/home/clayton/grive/pics/0happy7.JPG'
p1818
I131
tp1819
g40
s(S'/home/clayton/grive/pics/5w1F9D7616-B031-13BA-2CF1-332BB1E15DC2.jpg'
p1820
I66
tp1821
g10
s(S'/home/clayton/grive/pics/2wCADCAECA-D3E7-342A-07FA-4652ED88FBA9.jpg'
p1822
I5
tp1823
g3
s(S'/home/clayton/grive/pics/0md4bfe2ba-2af3-4f65-822b-b1f180ce52a1.jpg'
p1824
I17
tp1825
g40
s(S'/home/clayton/grive/pics/6w453B0D9A-7B7C-9A9F-3D97-F00362CCA49C.jpg'
p1826
I29
tp1827
g10
s(S'/home/clayton/grive/pics/2KuoAngry.jpg'
p1828
I127
tp1829
g20
s(S'/home/clayton/grive/pics/5w886BDA22-A149-C817-238D-EFF0E2A9992C.jpg'
p1830
I44
tp1831
g10
s(g787
I14
tp1832
g43
s(S'/home/clayton/grive/pics/6md6e113df-509f-49d9-b0c7-905e86cc5df3.jpg'
p1833
I27
tp1834
g10
s(S'/home/clayton/grive/pics/5wEBD68548-E683-453C-76FA-387540224631.jpg'
p1835
I4
tp1836
g43
s(S'/home/clayton/grive/pics/4mc2d2626e-bc27-4876-975b-5ee13733ad4e.jpg'
p1837
I20
tp1838
g20
s(S'/home/clayton/grive/pics/4w0AAA0AC9-6F8F-E71E-133D-46E81C08DACC.jpg'
p1839
I27
tp1840
g20
s(S'/home/clayton/grive/pics/5m6b79eaeb-1360-4503-88c4-d37bedee7440.jpg'
p1841
I29
tp1842
g10
s(g1785
I103
tp1843
g10
s(S'/home/clayton/grive/pics/5w79D4D2F8-3794-9B73-B7D1-EFEF32720063.jpg'
p1844
I10
tp1845
g10
s(S'/home/clayton/grive/pics/5w70574034-301E-9568-EB56-389E0E002C5E.jpg'
p1846
I45
tp1847
g43
s(S'/home/clayton/grive/pics/5w57166D0D-8403-104C-6BEA-2F07DBC2E389.jpg'
p1848
I41
tp1849
g43
s(S'/home/clayton/grive/pics/0w12EC627A-1192-EC96-EEC9-489DEAE24E0B.jpg'
p1850
I48
tp1851
g40
s(S'/home/clayton/grive/pics/4w656B02A8-518C-90F3-7234-38211A0CD399.jpg'
p1852
I40
tp1853
g3
s(g1164
I49
tp1854
g3
s(S'/home/clayton/grive/pics/4scared.jpg'
p1855
I64
tp1856
g20
s(S'/home/clayton/grive/pics/0mc2d2626e-bc27-4876-975b-5ee13733ad4e.jpg'
p1857
I18
tp1858
g40
s(S'/home/clayton/grive/pics/2w3F606B5D-77FB-F545-EEF4-36CCC8791888.jpg'
p1859
I6
tp1860
g3
s(S'/home/clayton/grive/pics/5w45F00E26-EEF8-ADBC-B511-379A0FB86DFF.jpg'
p1861
I13
tp1862
g10
s(S'/home/clayton/grive/pics/5wB327C73A-CBE4-4E6F-85BE-37EFF9F68B2E.jpg'
p1863
I17
tp1864
g10
s(S'/home/clayton/grive/pics/3w3EC88953-2C9A-08EE-D3A5-465D5B7072D4.jpg'
p1865
I59
tp1866
g3
s(S'/home/clayton/grive/pics/5w6A3CAB4F-95AC-25CB-4CD4-2D0EA445F376.jpg'
p1867
I48
tp1868
g10
s(S'/home/clayton/grive/pics/4KuoGlassesScared.jpg'
p1869
I90
tp1870
g20
s(S'/home/clayton/grive/pics/5wC18279D9-47D0-4718-36BA-EFECC87D675D.jpg'
p1871
I11
tp1872
g10
s(S'/home/clayton/grive/pics/2wA17C2882-CBD3-D872-556E-45F7E2047628.jpg'
p1873
I88
tp1874
g20
s(S'/home/clayton/grive/pics/3wFF66FA36-78E6-6508-EDF0-3686176BF53D.jpg'
p1875
I15
tp1876
g20
s(g884
I13
tp1877
g43
s(S'/home/clayton/grive/pics/2w4ACD6E21-0751-DEA6-DB60-2F0500DBF231.jpg'
p1878
I99
tp1879
g20
s(S'/home/clayton/grive/pics/5m354dbab3-cc44-4fa5-a76b-1832158454cd.jpg'
p1880
I15
tp1881
g10
s(S'/home/clayton/grive/pics/2wF38C5939-5878-3826-255B-37EF8300E8D1.jpg'
p1882
I45
tp1883
g20
s(S'/home/clayton/grive/pics/4wAF00C89F-447F-4CD2-7885-EFFB17DF9144.jpg'
p1884
I37
tp1885
g20
s(S'/home/clayton/grive/pics/5wCDB694D9-BD6D-9794-0202-EFEF6E711F61.jpg'
p1886
I36
tp1887
g10
s(S'/home/clayton/grive/pics/1wD7662DB4-ED2D-0E94-3A81-F002716EC18A.jpg'
p1888
I43
tp1889
g20
s(S'/home/clayton/grive/pics/4w8A998EFF-7A50-74D3-B69B-EFE0E7C90AA0.jpg'
p1890
I26
tp1891
g3
s(S'/home/clayton/grive/pics/1w0C837C12-99DE-6798-DCC0-6B372D9B14DF.jpg'
p1892
I75
tp1893
g20
s(S'/home/clayton/grive/pics/4wEBD68548-E683-453C-76FA-387540224631.jpg'
p1894
I31
tp1895
g20
s(S'/home/clayton/grive/pics/6wF81457BB-C846-A3E9-4C02-DD6128BED15B.jpg'
p1896
I8
tp1897
g43
s(S'/home/clayton/grive/pics/3w3AC58273-1249-F4C2-3A1C-289D10094EB9.jpg'
p1898
I88
tp1899
g20
s(S'/home/clayton/grive/pics/6m53633fb0-91e3-4336-8db7-0f2ed20929f7.jpg'
p1900
I36
tp1901
g10
s(g248
I5
tp1902
g43
s(S'/home/clayton/grive/pics/5wC6AB8E45-0D08-5231-7C41-EFF50AB9F865.jpg'
p1903
I24
tp1904
g10
s(g536
I7
tp1905
g3
s(g396
I6
tp1906
g37
s(S'/home/clayton/grive/pics/3wB6218480-F680-6013-04E0-38A57AE3C9A5.jpg'
p1907
I43
tp1908
g20
s(S'/home/clayton/grive/pics/0w9D75EFDC-3AE6-E0D7-C7F4-28316CCF01BA.jpg'
p1909
I114
tp1910
g40
s(S'/home/clayton/grive/pics/2md99d5900-5461-41eb-adb1-8681a6885dc6.jpg'
p1911
I46
tp1912
g3
s(S'/home/clayton/grive/pics/1w8039E961-EE34-7805-4B54-D80D2BE38F57.jpg'
p1913
I13
tp1914
g3
s(S'/home/clayton/grive/pics/2w6583AC61-429D-C61E-715E-EFF713238241.jpg'
p1915
I14
tp1916
g3
s(g282
I135
tp1917
g40
s(S'/home/clayton/grive/pics/6m6ce740af-da51-4c19-92ce-7b9d9adba5fe.jpg'
p1918
I18
tp1919
g10
s(S'/home/clayton/grive/pics/6w23C4FE8C-F60F-F7A0-209F-EFEDBF964235.jpg'
p1920
I32
tp1921
g10
s(g1894
I4
tp1922
g3
s(S'/home/clayton/grive/pics/0w3439D79B-2F14-0A7C-A485-3D9751A5715E.jpg'
p1923
I35
tp1924
g40
s(S'/home/clayton/grive/pics/2m354dbab3-cc44-4fa5-a76b-1832158454cd.jpg'
p1925
I4
tp1926
g3
s(S'/home/clayton/grive/pics/5w422A3E39-00CD-54DC-F42A-332478449BD6.jpg'
p1927
I87
tp1928
g10
s(S'/home/clayton/grive/pics/1m89be575f-50b5-4d23-b6d7-940a46e9c030.jpg'
p1929
I41
tp1930
g20
s(S'/home/clayton/grive/pics/2wB7455899-8A91-0D14-67FB-3326BB8944DD.jpg'
p1931
I72
tp1932
g20
s(S'/home/clayton/grive/pics/4wC0CB773B-9791-D38C-9E93-EFFCB6A4A241.jpg'
p1933
I38
tp1934
g3
s(S'/home/clayton/grive/pics/6wB6C4A128-3361-C2D2-A951-EFEBA8C4F0EA.jpg'
p1935
I24
tp1936
g10
s(g532
I13
tp1937
g10
s(S'/home/clayton/grive/pics/3w0C837C12-99DE-6798-DCC0-6B372D9B14DF.jpg'
p1938
I66
tp1939
g20
s(S'/home/clayton/grive/pics/1maa24e3dd-73b7-43bb-9668-26cf6b146f58.jpg'
p1940
I35
tp1941
g20
s(S'/home/clayton/grive/pics/0wAE00083F-0B9D-4EED-63B7-2757C366CB50.jpg'
p1942
I69
tp1943
g40
s(g1896
I123
tp1944
g10
s(S'/home/clayton/grive/pics/1w79B28E67-96B7-EB0D-9A75-EFFEDB8F577D.jpg'
p1945
I35
tp1946
g3
s(S'/home/clayton/grive/pics/6m5b216672-8484-4348-b9ab-3f0437fe53dc.jpg'
p1947
I24
tp1948
g10
s(S'/home/clayton/grive/pics/5w4A42FC32-7901-26E1-A91B-33331AA34C92.jpg'
p1949
I39
tp1950
g10
s(S'/home/clayton/grive/pics/6w3F13F903-5652-1111-F8C4-28193F107980.jpg'
p1951
I9
tp1952
g43
s(S'/home/clayton/grive/pics/3wEBD68548-E683-453C-76FA-387540224631.jpg'
p1953
I47
tp1954
g3
s(g320
I52
tp1955
g3
s(S'/home/clayton/grive/pics/5wAE00083F-0B9D-4EED-63B7-2757C366CB50.jpg'
p1956
I70
tp1957
g10
s(S'/home/clayton/grive/pics/2wDF2DC2D6-F1E3-1B71-20E2-467A671A3D60.jpg'
p1958
I12
tp1959
g3
s(S'/home/clayton/grive/pics/5wA186136D-64B7-7288-372F-3843E2F6EAC4.jpg'
p1960
I64
tp1961
g10
s(S'/home/clayton/grive/pics/2w9DC9791F-43FF-A0F2-136E-27278922DE8B.jpg'
p1962
I18
tp1963
g20
s(S'/home/clayton/grive/pics/5w75A71932-7631-6493-AA4D-CD72B83F1138.jpg'
p1964
I75
tp1965
g10
s(S'/home/clayton/grive/pics/1w545D8371-906B-59FB-3297-3D9D8D822C99.jpg'
p1966
I41
tp1967
g3
s(S'/home/clayton/grive/pics/1w62D19778-1AA6-13C2-004F-389AF747333D.jpg'
p1968
I25
tp1969
g20
s(S'/home/clayton/grive/pics/2m4b57e50c-264c-4921-b4ca-8db06d561bcd.jpg'
p1970
I54
tp1971
g20
s(g643
I4
tp1972
g3
s(S'/home/clayton/grive/pics/6neutral2.jpg'
p1973
I17
tp1974
g43
s(S'/home/clayton/grive/pics/0wE91A57C8-8766-64BA-4E1F-33C5F731BCE4.jpg'
p1975
I36
tp1976
g40
s(S'/home/clayton/grive/pics/5wD445B589-5883-3783-A84A-29622D8DBC8C.jpg'
p1977
I95
tp1978
g43
s(S'/home/clayton/grive/pics/2m6ccb14e5-001d-499c-9d77-979759f7986b.jpg'
p1979
I24
tp1980
g20
s(S'/home/clayton/grive/pics/4w0D1FB1C2-D30A-E25F-2EBB-27E9151B697F.jpg'
p1981
I23
tp1982
g3
s(S'/home/clayton/grive/pics/1w233E62AD-7E9F-FF61-F5E5-EFFC288A76F9.jpg'
p1983
I44
tp1984
g20
s(S'/home/clayton/grive/pics/4wD7662DB4-ED2D-0E94-3A81-F002716EC18A.jpg'
p1985
I27
tp1986
g20
s(S'/home/clayton/grive/pics/6w0D1FB1C2-D30A-E25F-2EBB-27E9151B697F.jpg'
p1987
I26
tp1988
g10
s(S'/home/clayton/grive/pics/2w345D99A7-58C3-9A8D-4DBE-F0039637562A.jpg'
p1989
I25
tp1990
g20
s(S'/home/clayton/grive/pics/5wF9A08F82-E468-659D-6E2A-4649DD6662AF.jpg'
p1991
I39
tp1992
g10
s(S'/home/clayton/grive/pics/3wF9371CDA-417F-992A-A6BC-DD6373EF9014.jpg'
p1993
I50
tp1994
g20
s(g1346
I54
tp1995
g10
s(S'/home/clayton/grive/pics/4wF60A9437-78B3-BDE2-BCD1-EFFEB41D538F.jpg'
p1996
I47
tp1997
g3
s(S'/home/clayton/grive/pics/4me82712a5-8b59-464a-b0fd-d3578d4e83b3.jpg'
p1998
I20
tp1999
g20
s(S'/home/clayton/grive/pics/5w5D592E12-AEF9-B530-374E-3322B125D1A1.jpg'
p2000
I94
tp2001
g43
s(S'/home/clayton/grive/pics/0w01343164-B10C-A805-EF2F-2D0A02E780D0.jpg'
p2002
I72
tp2003
g40
s(g1564
I8
tp2004
g3
s(S'/home/clayton/grive/pics/6w0A63D31C-0B59-BFF2-4F27-46B385316AD7.jpg'
p2005
I38
tp2006
g10
s(S'/home/clayton/grive/pics/4wB7455899-8A91-0D14-67FB-3326BB8944DD.jpg'
p2007
I37
tp2008
g3
s(S'/home/clayton/grive/pics/5wA17C2882-CBD3-D872-556E-45F7E2047628.jpg'
p2009
I74
tp2010
g10
s(S'/home/clayton/grive/pics/1wB6218480-F680-6013-04E0-38A57AE3C9A5.jpg'
p2011
I65
tp2012
g3
s(S'/home/clayton/grive/pics/5mcd66cc8e-1866-429d-af90-c2c756395882.jpg'
p2013
I32
tp2014
g43
s(g1190
I4
tp2015
g43
s(S'/home/clayton/grive/pics/6w7B52AA0B-3547-4AAC-D109-389D5596BF39.jpg'
p2016
I20
tp2017
g10
s(S'/home/clayton/grive/pics/1w8A998EFF-7A50-74D3-B69B-EFE0E7C90AA0.jpg'
p2018
I29
tp2019
g20
s(S'/home/clayton/grive/pics/4md4bfe2ba-2af3-4f65-822b-b1f180ce52a1.jpg'
p2020
I13
tp2021
g3
s(S'/home/clayton/grive/pics/2w23C4FE8C-F60F-F7A0-209F-EFEDBF964235.jpg'
p2022
I4
tp2023
g3
s(S'/home/clayton/grive/pics/4m81793c88-5a77-4c1a-96b9-19113f792758.jpg'
p2024
I64
tp2025
g20
s(S'/home/clayton/grive/pics/4wD4EB92C9-4F2D-BEA4-25DD-EFD882F1442E.jpg'
p2026
I8
tp2027
g20
s(S'/home/clayton/grive/pics/1wCC78F689-E22B-23A4-2B55-3336F8A9B35C.jpg'
p2028
I44
tp2029
g20
s(S'/home/clayton/grive/pics/6w545D8371-906B-59FB-3297-3D9D8D822C99.jpg'
p2030
I50
tp2031
g10
s(S'/home/clayton/grive/pics/1wCB4A8AF8-BFDA-62AB-F96C-F00E4F7BFBE2.jpg'
p2032
I18
tp2033
g3
s(S'/home/clayton/grive/pics/0m6ccb14e5-001d-499c-9d77-979759f7986b.jpg'
p2034
I19
tp2035
g40
s(S'/home/clayton/grive/pics/2me82712a5-8b59-464a-b0fd-d3578d4e83b3.jpg'
p2036
I15
tp2037
g20
s(g1052
I34
tp2038
g3
s(S'/home/clayton/grive/pics/6wEE5485BA-9F02-B81F-7B8A-D865E20BE312.jpg'
p2039
I73
tp2040
g10
s(S'/home/clayton/grive/pics/1wE0F39B0C-94A5-8BD4-61A2-EFE587012FA0.jpg'
p2041
I8
tp2042
g20
s(S'/home/clayton/grive/pics/1wEFC295BD-AB8D-C93F-1AEF-332E960B6391.jpg'
p2043
I25
tp2044
g20
s(S'/home/clayton/grive/pics/1m0792947c-37db-4047-bef9-7a582d6f6fca.jpg'
p2045
I5
tp2046
g3
s(S'/home/clayton/grive/pics/5wB6218480-F680-6013-04E0-38A57AE3C9A5.jpg'
p2047
I43
tp2048
g10
s(S'/home/clayton/grive/pics/4w422A3E39-00CD-54DC-F42A-332478449BD6.jpg'
p2049
I70
tp2050
g20
s(S'/home/clayton/grive/pics/1w547FEF42-FCBE-B966-D617-2888E39F4498.jpg'
p2051
I45
tp2052
g20
s(S'/home/clayton/grive/pics/2w2CDDD638-E92B-8EBA-60E3-F00A5BD784E3.jpg'
p2053
I23
tp2054
g20
s(S'/home/clayton/grive/pics/1wEE5485BA-9F02-B81F-7B8A-D865E20BE312.jpg'
p2055
I57
tp2056
g20
s(S'/home/clayton/grive/pics/5wB6C4A128-3361-C2D2-A951-EFEBA8C4F0EA.jpg'
p2057
I71
tp2058
g10
s(g847
I9
tp2059
g3
s(S'/home/clayton/grive/pics/2m0792947c-37db-4047-bef9-7a582d6f6fca.jpg'
p2060
I36
tp2061
g20
s(S'/home/clayton/grive/pics/3mbb625c3c-721b-4e37-9aa1-68684b210046.jpg'
p2062
I9
tp2063
g3
s(S'/home/clayton/grive/pics/1sad_david_bates.jpg'
p2064
I4
tp2065
g20
s(S'/home/clayton/grive/pics/6w8C431FA1-7A06-58B5-4FDB-EFF2BCDEFC0C.jpg'
p2066
I6
tp2067
g43
s(S'/home/clayton/grive/pics/1w45F00E26-EEF8-ADBC-B511-379A0FB86DFF.jpg'
p2068
I27
tp2069
g20
s(S'/home/clayton/grive/pics/2w2FF168A3-54B0-C7D9-47C9-37FA318D713D.jpg'
p2070
I11
tp2071
g20
s(S'/home/clayton/grive/pics/2w3F13F903-5652-1111-F8C4-28193F107980.jpg'
p2072
I5
tp2073
g3
s(S'/home/clayton/grive/pics/1w10F317F3-9F1E-F59C-B335-38A8ADEE47AF.jpg'
p2074
I55
tp2075
g20
s(S'/home/clayton/grive/pics/5w5F3E20F0-CA15-AB7C-C873-3329D70151F2.jpg'
p2076
I67
tp2077
g10
s(g198
I78
tp2078
g20
s(S'/home/clayton/grive/pics/2wA78D46C1-F503-3E91-F99D-6B2FA22B3D14.jpg'
p2079
I82
tp2080
g20
s(S'/home/clayton/grive/pics/4w275D2B77-AD50-E6CD-0121-D80138F626AC.jpg'
p2081
I47
tp2082
g3
s(S'/home/clayton/grive/pics/0whitney bday jenny seminary grad 140.JPG'
p2083
I7
tp2084
g37
s(S'/home/clayton/grive/pics/5w545D8371-906B-59FB-3297-3D9D8D822C99.jpg'
p2085
I24
tp2086
g43
s(g138
I8
tp2087
g3
s(S'/home/clayton/grive/pics/6wB6218480-F680-6013-04E0-38A57AE3C9A5.jpg'
p2088
I67
tp2089
g10
s(S'/home/clayton/grive/pics/3wD6ABCA51-AA30-AB83-36E3-3D933B925793.jpg'
p2090
I5
tp2091
g3
s(S'/home/clayton/grive/pics/1wD174FE9B-6632-6EBB-E135-9EFF44352093.jpg'
p2092
I87
tp2093
g20
s(S'/home/clayton/grive/pics/2w9E129634-2C33-C86B-30F7-6B6F8AB2AF22.jpg'
p2094
I81
tp2095
g20
s(S'/home/clayton/grive/pics/4w24FD90A0-B0EF-2E69-7527-48907DFAB4FA.jpg'
p2096
I33
tp2097
g20
s(S'/home/clayton/grive/pics/2wA8290F86-C077-9F89-F9F7-464D6C6DEA5F.jpg'
p2098
I56
tp2099
g20
s(S'/home/clayton/grive/pics/6w6D8B00F1-237C-5070-C5C5-2725674902D4.jpg'
p2100
I75
tp2101
g10
s(S'/home/clayton/grive/pics/3wB7455899-8A91-0D14-67FB-3326BB8944DD.jpg'
p2102
I62
tp2103
g20
s(g678
I6
tp2104
g15
s(g631
I71
tp2105
g20
s(S'/home/clayton/grive/pics/2w503AB7EB-1816-0B00-1966-EFEA502B0E95.jpg'
p2106
I5
tp2107
g3
s(g664
I4
tp2108
g3
s(S'/home/clayton/grive/pics/2w6C9F7832-CE9D-15A0-5DA4-6B8CFF5E8490.jpg'
p2109
I66
tp2110
g3
s(S'/home/clayton/grive/pics/6m0792947c-37db-4047-bef9-7a582d6f6fca.jpg'
p2111
I9
tp2112
g10
s(g358
I5
tp2113
g43
s(g398
I47
tp2114
g20
s(S'/home/clayton/grive/pics/0w70574034-301E-9568-EB56-389E0E002C5E.jpg'
p2115
I52
tp2116
g40
s(S'/home/clayton/grive/pics/3m18d993d2-3c00-433c-8be0-d106d508d053.jpg'
p2117
I14
tp2118
g3
s(S'/home/clayton/grive/pics/6m8e9ff3d6-a4ff-4675-848b-314010102ee8.jpg'
p2119
I50
tp2120
g10
s(S'/home/clayton/grive/pics/3wF38C5939-5878-3826-255B-37EF8300E8D1.jpg'
p2121
I30
tp2122
g20
s(g188
I57
tp2123
g20
s(S'/home/clayton/grive/pics/3mfdc9ff7d-8480-4e52-940b-33d65b5f09d9.jpg'
p2124
I41
tp2125
g3
s(g1042
I71
tp2126
g3
s(S'/home/clayton/grive/pics/0w514E3E36-1CFE-F72D-C4B3-EFEBDD4798A6.jpg'
p2127
I21
tp2128
g40
s(S'/home/clayton/grive/pics/1m040789e6-8b61-484e-b935-203eeeaf5a7f.jpg'
p2129
I68
tp2130
g20
s(S'/home/clayton/grive/pics/6w886BDA22-A149-C817-238D-EFF0E2A9992C.jpg'
p2131
I6
tp2132
g43
s(S'/home/clayton/grive/pics/4wCFA8B97D-34BA-E8E4-129F-F00C349D4184.jpg'
p2133
I30
tp2134
g20
s(g1264
I22
tp2135
g3
s(S'/home/clayton/grive/pics/5wCADCAECA-D3E7-342A-07FA-4652ED88FBA9.jpg'
p2136
I4
tp2137
g43
s(S'/home/clayton/grive/pics/5w8EC27280-1A0E-1E4D-29EA-EFF6FEF7C705.jpg'
p2138
I26
tp2139
g10
s(S'/home/clayton/grive/pics/4w11C902A3-3D0A-1956-0538-6B9806AA4F9F.jpg'
p2140
I50
tp2141
g20
s(S'/home/clayton/grive/pics/3wB6B835B5-9521-A5DD-61B1-F009B95FB653.jpg'
p2142
I24
tp2143
g20
s(S'/home/clayton/grive/pics/1w6C9F7832-CE9D-15A0-5DA4-6B8CFF5E8490.jpg'
p2144
I67
tp2145
g3
s(S'/home/clayton/grive/pics/4w9E129634-2C33-C86B-30F7-6B6F8AB2AF22.jpg'
p2146
I64
tp2147
g20
s(S'/home/clayton/grive/pics/2mcd66cc8e-1866-429d-af90-c2c756395882.jpg'
p2148
I36
tp2149
g3
s(S'/home/clayton/grive/pics/5w649F4C25-595D-5383-9B2D-F0041EC3CC63.jpg'
p2150
I29
tp2151
g43
s(g1676
I8
tp2152
g3
s(S'/home/clayton/grive/pics/4w04AB60B8-053D-0086-A395-4698C6ECDA34.jpg'
p2153
I49
tp2154
g20
s(S'/home/clayton/grive/pics/6wD4EB92C9-4F2D-BEA4-25DD-EFD882F1442E.jpg'
p2155
I22
tp2156
g10
s(S'/home/clayton/grive/pics/4w9A37A263-9801-0A1A-312E-3334DD7F32AC.jpg'
p2157
I50
tp2158
g20
s(g1383
I7
tp2159
g3
s(S'/home/clayton/grive/pics/3wBE3974B4-A678-56B4-9610-286BC7FB53FC.jpg'
p2160
I38
tp2161
g20
s(S'/home/clayton/grive/pics/4wF81457BB-C846-A3E9-4C02-DD6128BED15B.jpg'
p2162
I104
tp2163
g20
s(g1727
I6
tp2164
g3
s(S'/home/clayton/grive/pics/5w11C902A3-3D0A-1956-0538-6B9806AA4F9F.jpg'
p2165
I52
tp2166
g10
s(g1294
I4
tp2167
g15
s(g1075
I7
tp2168
g37
s(g731
I5
tp2169
g20
s(S'/home/clayton/grive/pics/0m57519cd1-d254-41e5-9418-09b11ad66a50.jpg'
p2170
I26
tp2171
g40
s(S'/home/clayton/grive/pics/3m9660a96e-a888-40cd-b380-7d3761693c17.jpg'
p2172
I35
tp2173
g3
s(g1814
I16
tp2174
g43
s(S'/home/clayton/grive/pics/2w9142C5B8-00C3-B41B-B5F7-7B04092215BC.jpg'
p2175
I24
tp2176
g3
s(S'/home/clayton/grive/pics/6wF9A08F82-E468-659D-6E2A-4649DD6662AF.jpg'
p2177
I18
tp2178
g43
s(S'/home/clayton/grive/pics/6w98D0D5C2-5A24-77C4-893C-389C780B22BF.jpg'
p2179
I39
tp2180
g10
s(S'/home/clayton/grive/pics/3w422A3E39-00CD-54DC-F42A-332478449BD6.jpg'
p2181
I71
tp2182
g20
s(S'/home/clayton/grive/pics/0w8772ED2F-20D8-F4F8-64C1-EFFBA3790753.jpg'
p2183
I7
tp2184
g40
s(S'/home/clayton/grive/pics/3wD174FE9B-6632-6EBB-E135-9EFF44352093.jpg'
p2185
I69
tp2186
g20
s(g420
I20
tp2187
g43
s(S'/home/clayton/grive/pics/4md6e113df-509f-49d9-b0c7-905e86cc5df3.jpg'
p2188
I6
tp2189
g3
s(S'/home/clayton/grive/pics/6w42122DD0-1D98-3417-ED3C-3CD7325AEF4E.jpg'
p2190
I40
tp2191
g10
s(S'/home/clayton/grive/pics/4w8039E961-EE34-7805-4B54-D80D2BE38F57.jpg'
p2192
I22
tp2193
g20
s(g1134
I4
tp2194
g37
s(S'/home/clayton/grive/pics/1w656B02A8-518C-90F3-7234-38211A0CD399.jpg'
p2195
I40
tp2196
g3
s(S'/home/clayton/grive/pics/4wB7907848-2DA7-2CBC-9171-46E1D7C304D7.jpg'
p2197
I51
tp2198
g3
s(S'/home/clayton/grive/pics/5w12EC627A-1192-EC96-EEC9-489DEAE24E0B.jpg'
p2199
I55
tp2200
g10
s(S'/home/clayton/grive/pics/2wC8D3294A-B9A8-6A3A-8331-465651FB65F4.jpg'
p2201
I109
tp2202
g20
s(S'/home/clayton/grive/pics/5wC89E1EA6-6B03-0107-19C6-312038C89CA1.jpg'
p2203
I64
tp2204
g10
s(S'/home/clayton/grive/pics/6w4123FC40-659C-BBF1-A29E-29652EC92828.jpg'
p2205
I76
tp2206
g10
s(S'/home/clayton/grive/pics/5w2C6C7917-E34A-87BF-D366-2849EADFBD8B.jpg'
p2207
I27
tp2208
g10
s(S'/home/clayton/grive/pics/1wCFBE9FE8-526E-B206-585D-7A9FA92FD844.jpg'
p2209
I45
tp2210
g20
s(S'/home/clayton/grive/pics/1w01343164-B10C-A805-EF2F-2D0A02E780D0.jpg'
p2211
I81
tp2212
g20
s(S'/home/clayton/grive/pics/5wD2C8420A-CA69-4783-1899-278856A49F4B.jpg'
p2213
I39
tp2214
g10
s(S'/home/clayton/grive/pics/0w3F606B5D-77FB-F545-EEF4-36CCC8791888.jpg'
p2215
I16
tp2216
g37
s(S'/home/clayton/grive/pics/5m18d993d2-3c00-433c-8be0-d106d508d053.jpg'
p2217
I10
tp2218
g43
s(g951
I52
tp2219
g3
s(S'/home/clayton/grive/pics/5wB75D3F87-A36C-1CFC-5730-28E28C577A75.jpg'
p2220
I79
tp2221
g43
s(S'/home/clayton/grive/pics/1wF38C5939-5878-3826-255B-37EF8300E8D1.jpg'
p2222
I4
tp2223
g3
s(g1761
I4
tp2224
g43
s(S'/home/clayton/grive/pics/3m709ed245-1794-48b2-99f4-73cae971abbf.jpg'
p2225
I32
tp2226
g20
s(S'/home/clayton/grive/pics/0m158a7b3d-0ea7-4403-ba3e-16b56aaa4db0.jpg'
p2227
I9
tp2228
g40
s(S'/home/clayton/grive/pics/0m9340b0af-fe78-4190-bcf7-13abbdf650b9.jpg'
p2229
I7
tp2230
g40
s(S'/home/clayton/grive/pics/4w837D0871-935B-7E8E-A689-F00B320588E7.jpg'
p2231
I32
tp2232
g3
s(g2136
I17
tp2233
g43
s(g2083
I122
tp2234
g40
s(g1140
I76
tp2235
g40
s(S'/home/clayton/grive/pics/1w39D34F71-9398-68F2-4F8C-F0102C7A0F3C.jpg'
p2236
I23
tp2237
g20
s(S'/home/clayton/grive/pics/1w038FF51B-B514-1E4A-1F79-37ACE961D312.jpg'
p2238
I51
tp2239
g3
s(S'/home/clayton/grive/pics/1m58c6be84-7243-4efb-b579-ce026defc3d2.jpg'
p2240
I35
tp2241
g20
s(S'/home/clayton/grive/pics/5w7F7338BC-E565-8DED-FB80-46627677A6C7.jpg'
p2242
I86
tp2243
g43
s(S'/home/clayton/grive/pics/6w2C9F8C42-E900-B747-C962-465A32A9CCE7.jpg'
p2244
I51
tp2245
g10
s(S'/home/clayton/grive/pics/4w3439D79B-2F14-0A7C-A485-3D9751A5715E.jpg'
p2246
I25
tp2247
g3
s(S'/home/clayton/grive/pics/2m5b216672-8484-4348-b9ab-3f0437fe53dc.jpg'
p2248
I105
tp2249
g20
s(S'/home/clayton/grive/pics/4m6b79eaeb-1360-4503-88c4-d37bedee7440.jpg'
p2250
I25
tp2251
g20
s(S'/home/clayton/grive/pics/5w5D981B62-3BF3-3379-219B-EFF97EC7E5A0.jpg'
p2252
I57
tp2253
g43
s(S'/home/clayton/grive/pics/3w514E3E36-1CFE-F72D-C4B3-EFEBDD4798A6.jpg'
p2254
I8
tp2255
g20
s(S'/home/clayton/grive/pics/0w0D1FB1C2-D30A-E25F-2EBB-27E9151B697F.jpg'
p2256
I18
tp2257
g37
s(S'/home/clayton/grive/pics/0w4E2B384F-96FC-D805-03DB-EFFF326F409C.jpg'
p2258
I17
tp2259
g40
s(g1785
I5
tp2260
g43
s(S'/home/clayton/grive/pics/3wF51ABC70-E908-AA82-8C29-D8B59FE8C62F.jpg'
p2261
I44
tp2262
g3
s(S'/home/clayton/grive/pics/1wEED45041-BE05-1F78-5044-2EF641914EDD.jpg'
p2263
I90
tp2264
g20
s(S'/home/clayton/grive/pics/1w7F7338BC-E565-8DED-FB80-46627677A6C7.jpg'
p2265
I74
tp2266
g3
s(S'/home/clayton/grive/pics/6wA8290F86-C077-9F89-F9F7-464D6C6DEA5F.jpg'
p2267
I44
tp2268
g10
s(S'/home/clayton/grive/pics/3w6D8B00F1-237C-5070-C5C5-2725674902D4.jpg'
p2269
I78
tp2270
g20
s(S'/home/clayton/grive/pics/0happy4.JPG'
p2271
I108
tp2272
g40
s(S'/home/clayton/grive/pics/0w11C902A3-3D0A-1956-0538-6B9806AA4F9F.jpg'
p2273
I64
tp2274
g40
s(S'/home/clayton/grive/pics/4mdb7d65e0-544b-4fd9-afc4-62fe2f96b2e1.jpg'
p2275
I20
tp2276
g20
s(S'/home/clayton/grive/pics/4w6A3CAB4F-95AC-25CB-4CD4-2D0EA445F376.jpg'
p2277
I31
tp2278
g20
s(g1465
I43
tp2279
g20
s(S'/home/clayton/grive/pics/3mdb7d65e0-544b-4fd9-afc4-62fe2f96b2e1.jpg'
p2280
I22
tp2281
g3
s(S'/home/clayton/grive/pics/5wD9E9B0A8-7D98-A0F3-9A06-37ECA03E6425.jpg'
p2282
I61
tp2283
g43
s(S'/home/clayton/grive/pics/2w547FEF42-FCBE-B966-D617-2888E39F4498.jpg'
p2284
I39
tp2285
g20
s(S'/home/clayton/grive/pics/5w6583AC61-429D-C61E-715E-EFF713238241.jpg'
p2286
I23
tp2287
g43
s(S'/home/clayton/grive/pics/1w1F9D7616-B031-13BA-2CF1-332BB1E15DC2.jpg'
p2288
I108
tp2289
g3
s(S'/home/clayton/grive/pics/4wC89E1EA6-6B03-0107-19C6-312038C89CA1.jpg'
p2290
I55
tp2291
g20
s(S'/home/clayton/grive/pics/5m89be575f-50b5-4d23-b6d7-940a46e9c030.jpg'
p2292
I45
tp2293
g43
s(S'/home/clayton/grive/pics/0w79D4D2F8-3794-9B73-B7D1-EFEF32720063.jpg'
p2294
I28
tp2295
g40
s(S'/home/clayton/grive/pics/0Happy.jpg (Case Conflict 1)'
p2296
I56
tp2297
g40
s(S'/home/clayton/grive/pics/1w77EDF533-C254-FD89-6404-4660A2F03302.jpg'
p2298
I11
tp2299
g3
s(S'/home/clayton/grive/pics/1w8EC27280-1A0E-1E4D-29EA-EFF6FEF7C705.jpg'
p2300
I20
tp2301
g20
s(S'/home/clayton/grive/pics/3w6B887E6C-D9CE-E590-E3F0-6B34BF5BA23A.jpg'
p2302
I13
tp2303
g20
s(S'/home/clayton/grive/pics/5mfeef873d-a3d3-409a-b559-85c7ecff3bba.jpg'
p2304
I31
tp2305
g10
s(S'/home/clayton/grive/pics/4w809F0A15-03D4-873B-62D0-6B3146FEE7CF.jpg'
p2306
I61
tp2307
g20
s(S'/home/clayton/grive/pics/0w2C6C7917-E34A-87BF-D366-2849EADFBD8B.jpg'
p2308
I27
tp2309
g40
s(S'/home/clayton/grive/pics/6w24FD90A0-B0EF-2E69-7527-48907DFAB4FA.jpg'
p2310
I23
tp2311
g43
s(g2085
I41
tp2312
g10
s(S'/home/clayton/grive/pics/0w0AAA0AC9-6F8F-E71E-133D-46E81C08DACC.jpg'
p2313
I33
tp2314
g40
s(S'/home/clayton/grive/pics/4w86213EB0-EFE5-91A5-6308-4CE43B9C4ABB.jpg'
p2315
I47
tp2316
g20
s(S'/home/clayton/grive/pics/3w0D06F3B2-6808-7A67-1A70-EFE381C4F509.jpg'
p2317
I8
tp2318
g3
s(S'/home/clayton/grive/pics/0w45F00E26-EEF8-ADBC-B511-379A0FB86DFF.jpg'
p2319
I30
tp2320
g40
s(S'/home/clayton/grive/pics/3wCDB694D9-BD6D-9794-0202-EFEF6E711F61.jpg'
p2321
I23
tp2322
g20
s(g1826
I5
tp2323
g43
s(S'/home/clayton/grive/pics/6m18d993d2-3c00-433c-8be0-d106d508d053.jpg'
p2324
I25
tp2325
g10
s(S'/home/clayton/grive/pics/0wC89E1EA6-6B03-0107-19C6-312038C89CA1.jpg'
p2326
I65
tp2327
g40
s(S'/home/clayton/grive/pics/3wCADCAECA-D3E7-342A-07FA-4652ED88FBA9.jpg'
p2328
I10
tp2329
g3
s(S'/home/clayton/grive/pics/6wCFA8B97D-34BA-E8E4-129F-F00C349D4184.jpg'
p2330
I46
tp2331
g10
s(S'/home/clayton/grive/pics/1w9FB993B7-8646-7117-CD23-27C2F4C7EC67.jpg'
p2332
I116
tp2333
g20
s(S'/home/clayton/grive/pics/3w6A3CAB4F-95AC-25CB-4CD4-2D0EA445F376.jpg'
p2334
I46
tp2335
g20
s(S'/home/clayton/grive/pics/2mfeef873d-a3d3-409a-b559-85c7ecff3bba.jpg'
p2336
I42
tp2337
g20
s(S'/home/clayton/grive/pics/2wEA81AD9F-C919-7319-BDCE-333C59C6579E.jpg'
p2338
I47
tp2339
g20
s(S'/home/clayton/grive/pics/6w9A37A263-9801-0A1A-312E-3334DD7F32AC.jpg'
p2340
I49
tp2341
g10
s(S'/home/clayton/grive/pics/2wEED45041-BE05-1F78-5044-2EF641914EDD.jpg'
p2342
I91
tp2343
g3
s(g332
I79
tp2344
g3
s(S'/home/clayton/grive/pics/1m57519cd1-d254-41e5-9418-09b11ad66a50.jpg'
p2345
I15
tp2346
g3
s(S'/home/clayton/grive/pics/1m709ed245-1794-48b2-99f4-73cae971abbf.jpg'
p2347
I8
tp2348
g3
s(S'/home/clayton/grive/pics/0wCFA8B97D-34BA-E8E4-129F-F00C349D4184.jpg'
p2349
I46
tp2350
g40
s(g429
I6
tp2351
g3
s(S'/home/clayton/grive/pics/2wFA3A2A73-D799-1F82-B7C9-6B922E50F6D3.jpg'
p2352
I19
tp2353
g20
s(S'/home/clayton/grive/pics/5wAF00C89F-447F-4CD2-7885-EFFB17DF9144.jpg'
p2354
I30
tp2355
g10
s(S'/home/clayton/grive/pics/2wB6C4A128-3361-C2D2-A951-EFEBA8C4F0EA.jpg'
p2356
I49
tp2357
g20
s(S'/home/clayton/grive/pics/2w514E3E36-1CFE-F72D-C4B3-EFEBDD4798A6.jpg'
p2358
I36
tp2359
g3
s(S'/home/clayton/grive/pics/0w62D19778-1AA6-13C2-004F-389AF747333D.jpg'
p2360
I20
tp2361
g40
s(S'/home/clayton/grive/pics/5w656B02A8-518C-90F3-7234-38211A0CD399.jpg'
p2362
I21
tp2363
g10
s(S'/home/clayton/grive/pics/0wD18772FE-63EF-7FDC-EF9A-F00545998FBB.jpg'
p2364
I7
tp2365
g37
s(S'/home/clayton/grive/pics/3w75A71932-7631-6493-AA4D-CD72B83F1138.jpg'
p2366
I5
tp2367
g3
s(S'/home/clayton/grive/pics/1m81793c88-5a77-4c1a-96b9-19113f792758.jpg'
p2368
I51
tp2369
g20
s(S'/home/clayton/grive/pics/2w8039E961-EE34-7805-4B54-D80D2BE38F57.jpg'
p2370
I11
tp2371
g20
s(S'/home/clayton/grive/pics/0w5F94C6B9-8556-11D3-8267-EFFDD1F1CD4B.jpg'
p2372
I37
tp2373
g40
s(S'/home/clayton/grive/pics/3wFA3A2A73-D799-1F82-B7C9-6B922E50F6D3.jpg'
p2374
I47
tp2375
g3
s(S'/home/clayton/grive/pics/0w3ED8AF10-C2CD-9852-6CD0-4B1889141529.jpg'
p2376
I26
tp2377
g40
s(S'/home/clayton/grive/pics/4wE0CA5A8E-D4F8-F93F-8845-CD71832C5BEC.jpg'
p2378
I43
tp2379
g3
s(g16
I24
tp2380
g20
s(g160
I37
tp2381
g20
s(S'/home/clayton/grive/pics/1wF6EF8C51-B792-9FCF-687D-3333BA797012.jpg'
p2382
I39
tp2383
g20
s(S'/home/clayton/grive/pics/0wE953282F-1713-2679-406D-285C8932B012.jpg'
p2384
I26
tp2385
g40
s(g1925
I7
tp2386
g3
s(S'/home/clayton/grive/pics/5wC8D3294A-B9A8-6A3A-8331-465651FB65F4.jpg'
p2387
I85
tp2388
g10
s(S'/home/clayton/grive/pics/4wD2C8420A-CA69-4783-1899-278856A49F4B.jpg'
p2389
I26
tp2390
g20
s(g2039
I44
tp2391
g10
s(S'/home/clayton/grive/pics/0m0792947c-37db-4047-bef9-7a582d6f6fca.jpg'
p2392
I30
tp2393
g40
s(S'/home/clayton/grive/pics/4wB6B835B5-9521-A5DD-61B1-F009B95FB653.jpg'
p2394
I37
tp2395
g3
s(g1323
I5
tp2396
g3
s(S'/home/clayton/grive/pics/3w77C09460-F810-F1E2-D2AC-EFE8805E512A.jpg'
p2397
I5
tp2398
g3
s(S'/home/clayton/grive/pics/0wD5BE1562-F05B-1AA8-6290-37EE9C424B0E.jpg'
p2399
I20
tp2400
g40
s(S'/home/clayton/grive/pics/5m709ed245-1794-48b2-99f4-73cae971abbf.jpg'
p2401
I56
tp2402
g43
s(S'/home/clayton/grive/pics/0m6b79eaeb-1360-4503-88c4-d37bedee7440.jpg'
p2403
I26
tp2404
g40
s(S'/home/clayton/grive/pics/0Snapshot_20130218_1.JPG'
p2405
I46
tp2406
g40
s(S'/home/clayton/grive/pics/1wBE3974B4-A678-56B4-9610-286BC7FB53FC.jpg'
p2407
I34
tp2408
g3
s(S'/home/clayton/grive/pics/0w79B28E67-96B7-EB0D-9A75-EFFEDB8F577D.jpg'
p2409
I29
tp2410
g40
s(S'/home/clayton/grive/pics/2wB75D3F87-A36C-1CFC-5730-28E28C577A75.jpg'
p2411
I74
tp2412
g3
s(S'/home/clayton/grive/pics/5w5F94C6B9-8556-11D3-8267-EFFDD1F1CD4B.jpg'
p2413
I26
tp2414
g10
s(S'/home/clayton/grive/pics/6w10F317F3-9F1E-F59C-B335-38A8ADEE47AF.jpg'
p2415
I62
tp2416
g10
s(g264
I29
tp2417
g10
s(S'/home/clayton/grive/pics/1mee953784-3873-4738-a45f-15bf2d546bdf.jpg'
p2418
I16
tp2419
g3
s(S'/home/clayton/grive/pics/2w038FF51B-B514-1E4A-1F79-37ACE961D312.jpg'
p2420
I56
tp2421
g20
s(g688
I26
tp2422
g10
s(S'/home/clayton/grive/pics/3w275D2B77-AD50-E6CD-0121-D80138F626AC.jpg'
p2423
I42
tp2424
g20
s(g1005
I11
tp2425
g15
s(S'/home/clayton/grive/pics/6w7EA25B92-1336-94C0-FB2D-EFDA52371B47.jpg'
p2426
I12
tp2427
g10
s(S'/home/clayton/grive/pics/5w0AAA0AC9-6F8F-E71E-133D-46E81C08DACC.jpg'
p2428
I41
tp2429
g10
s(S'/home/clayton/grive/pics/0-Happy.JPG'
p2430
I6
tp2431
g15
s(S'/home/clayton/grive/pics/6wC6AB8E45-0D08-5231-7C41-EFF50AB9F865.jpg'
p2432
I41
tp2433
g10
s(g558
I5
tp2434
g3
s(g1325
I4
tp2435
g43
s(g362
I8
tp2436
g37
s(S'/home/clayton/grive/pics/2m58c6be84-7243-4efb-b579-ce026defc3d2.jpg'
p2437
I35
tp2438
g20
s(S'/home/clayton/grive/pics/6wD6ABCA51-AA30-AB83-36E3-3D933B925793.jpg'
p2439
I4
tp2440
g43
s(S'/home/clayton/grive/pics/0wA8290F86-C077-9F89-F9F7-464D6C6DEA5F.jpg'
p2441
I26
tp2442
g40
s(S'/home/clayton/grive/pics/4wF6EF8C51-B792-9FCF-687D-3333BA797012.jpg'
p2443
I28
tp2444
g20
s(S'/home/clayton/grive/pics/1w66F66B26-FBE8-A425-CDA6-D0273FBE14F2.jpg'
p2445
I15
tp2446
g20
s(S'/home/clayton/grive/pics/2m158a7b3d-0ea7-4403-ba3e-16b56aaa4db0.jpg'
p2447
I44
tp2448
g20
s(g2022
I12
tp2449
g20
s(g567
I4
tp2450
g43
s(S'/home/clayton/grive/pics/0w545D8371-906B-59FB-3297-3D9D8D822C99.jpg'
p2451
I56
tp2452
g40
s(S'/home/clayton/grive/pics/0wA186136D-64B7-7288-372F-3843E2F6EAC4.jpg'
p2453
I53
tp2454
g40
s(S'/home/clayton/grive/pics/4m6ce740af-da51-4c19-92ce-7b9d9adba5fe.jpg'
p2455
I15
tp2456
g3
s(S'/home/clayton/grive/pics/5w0CC8EC66-FAA1-705C-0776-4AE9EA516A65.jpg'
p2457
I47
tp2458
g10
s(g1230
I4
tp2459
g43
s(g1835
I47
tp2460
g10
s(S'/home/clayton/grive/pics/6wA78D46C1-F503-3E91-F99D-6B2FA22B3D14.jpg'
p2461
I66
tp2462
g10
s(g688
I8
tp2463
g43
s(g763
I5
tp2464
g3
s(S'/home/clayton/grive/pics/0w157643A0-E4FE-5F90-C9B1-465764731874.jpg'
p2465
I29
tp2466
g40
s(S'/home/clayton/grive/pics/5w9CF2D657-F38A-A867-1844-64AF3A43DEAA.jpg'
p2467
I33
tp2468
g10
s(g1761
I52
tp2469
g43
s(S'/home/clayton/grive/pics/2wC18279D9-47D0-4718-36BA-EFECC87D675D.jpg'
p2470
I15
tp2471
g3
s(S'/home/clayton/grive/pics/1w3EC88953-2C9A-08EE-D3A5-465D5B7072D4.jpg'
p2472
I72
tp2473
g20
s(S'/home/clayton/grive/pics/5mbb625c3c-721b-4e37-9aa1-68684b210046.jpg'
p2474
I25
tp2475
g10
s(g1252
I9
tp2476
g37
s(S'/home/clayton/grive/pics/4mcd66cc8e-1866-429d-af90-c2c756395882.jpg'
p2477
I7
tp2478
g20
s(g2066
I8
tp2479
g43
s(S'/home/clayton/grive/pics/2wB6218480-F680-6013-04E0-38A57AE3C9A5.jpg'
p2480
I82
tp2481
g20
s(S'/home/clayton/grive/pics/0wBE3974B4-A678-56B4-9610-286BC7FB53FC.jpg'
p2482
I85
tp2483
g40
s(S'/home/clayton/grive/pics/6w3F606B5D-77FB-F545-EEF4-36CCC8791888.jpg'
p2484
I21
tp2485
g43
s(S'/home/clayton/grive/pics/2w45F00E26-EEF8-ADBC-B511-379A0FB86DFF.jpg'
p2486
I30
tp2487
g20
s(g1559
I37
tp2488
g43
s(S'/home/clayton/grive/pics/3Surprised.jpg (Case Conflict 1)'
p2489
I75
tp2490
g20
s(S'/home/clayton/grive/pics/2wB7907848-2DA7-2CBC-9171-46E1D7C304D7.jpg'
p2491
I33
tp2492
g20
s(g1405
I37
tp2493
g10
s(S'/home/clayton/grive/pics/1w221CD601-3CC2-CE4F-C761-F0073C97F0C5.jpg'
p2494
I11
tp2495
g3
s(S'/home/clayton/grive/pics/2DSCN0310.JPG'
p2496
I92
tp2497
g20
s(S'/home/clayton/grive/pics/5w24FD90A0-B0EF-2E69-7527-48907DFAB4FA.jpg'
p2498
I8
tp2499
g43
s(S'/home/clayton/grive/pics/4m57519cd1-d254-41e5-9418-09b11ad66a50.jpg'
p2500
I20
tp2501
g3
s(S'/home/clayton/grive/pics/3wC6AB8E45-0D08-5231-7C41-EFF50AB9F865.jpg'
p2502
I41
tp2503
g3
s(S'/home/clayton/grive/pics/1w157643A0-E4FE-5F90-C9B1-465764731874.jpg'
p2504
I26
tp2505
g3
s(g2231
I25
tp2506
g3
s(S'/home/clayton/grive/pics/2m57519cd1-d254-41e5-9418-09b11ad66a50.jpg'
p2507
I28
tp2508
g20
s(g469
I4
tp2509
g3
s(S'/home/clayton/grive/pics/5w0A63D31C-0B59-BFF2-4F27-46B385316AD7.jpg'
p2510
I27
tp2511
g10
s(S'/home/clayton/grive/pics/5w233E62AD-7E9F-FF61-F5E5-EFFC288A76F9.jpg'
p2512
I37
tp2513
g43
s(S'/home/clayton/grive/pics/5w7F2BE16D-8A7C-F883-8CFE-EFF8C9D10E88.jpg'
p2514
I25
tp2515
g10
s(S'/home/clayton/grive/pics/1m53633fb0-91e3-4336-8db7-0f2ed20929f7.jpg'
p2516
I32
tp2517
g20
s(S'/home/clayton/grive/pics/5w3F13F903-5652-1111-F8C4-28193F107980.jpg'
p2518
I4
tp2519
g43
s(S'/home/clayton/grive/pics/2wE91A57C8-8766-64BA-4E1F-33C5F731BCE4.jpg'
p2520
I37
tp2521
g3
s(S'/home/clayton/grive/pics/6me82712a5-8b59-464a-b0fd-d3578d4e83b3.jpg'
p2522
I40
tp2523
g10
s(S'/home/clayton/grive/pics/3w3439D79B-2F14-0A7C-A485-3D9751A5715E.jpg'
p2524
I14
tp2525
g3
s(g1920
I29
tp2526
g43
s(S'/home/clayton/grive/pics/4wD61ACB92-52ED-6679-0D80-38A0B91ACF94.jpg'
p2527
I68
tp2528
g3
s(S'/home/clayton/grive/pics/3w98D0D5C2-5A24-77C4-893C-389C780B22BF.jpg'
p2529
I8
tp2530
g20
s(S'/home/clayton/grive/pics/5m57519cd1-d254-41e5-9418-09b11ad66a50.jpg'
p2531
I25
tp2532
g10
s(S'/home/clayton/grive/pics/3w8A998EFF-7A50-74D3-B69B-EFE0E7C90AA0.jpg'
p2533
I20
tp2534
g20
s(S'/home/clayton/grive/pics/1ma066d0c9-b62d-47e2-aba9-89f5120f6750.jpg'
p2535
I36
tp2536
g3
s(S'/home/clayton/grive/pics/0w5D592E12-AEF9-B530-374E-3322B125D1A1.jpg'
p2537
I65
tp2538
g40
s(S'/home/clayton/grive/pics/1mbb625c3c-721b-4e37-9aa1-68684b210046.jpg'
p2539
I34
tp2540
g20
s(S'/home/clayton/grive/pics/4w7F2BE16D-8A7C-F883-8CFE-EFF8C9D10E88.jpg'
p2541
I18
tp2542
g20
s(S'/home/clayton/grive/pics/6w1F9D7616-B031-13BA-2CF1-332BB1E15DC2.jpg'
p2543
I54
tp2544
g10
s(S'/home/clayton/grive/pics/5md4bfe2ba-2af3-4f65-822b-b1f180ce52a1.jpg'
p2545
I49
tp2546
g10
s(S'/home/clayton/grive/pics/5w9E129634-2C33-C86B-30F7-6B6F8AB2AF22.jpg'
p2547
I73
tp2548
g43
s(S'/home/clayton/grive/pics/3wB327C73A-CBE4-4E6F-85BE-37EFF9F68B2E.jpg'
p2549
I30
tp2550
g3
s(S'/home/clayton/grive/pics/3w4A42FC32-7901-26E1-A91B-33331AA34C92.jpg'
p2551
I41
tp2552
g20
s(S'/home/clayton/grive/pics/1wFF66FA36-78E6-6508-EDF0-3686176BF53D.jpg'
p2553
I18
tp2554
g3
s(S'/home/clayton/grive/pics/5wCC78F689-E22B-23A4-2B55-3336F8A9B35C.jpg'
p2555
I35
tp2556
g10
s(g2415
I4
tp2557
g43
s(g556
I77
tp2558
g20
s(S'/home/clayton/grive/pics/3w649F4C25-595D-5383-9B2D-F0041EC3CC63.jpg'
p2559
I22
tp2560
g3
s(S'/home/clayton/grive/pics/1Sad.jpg'
p2561
I57
tp2562
g20
s(S'/home/clayton/grive/pics/1m6ccb14e5-001d-499c-9d77-979759f7986b.jpg'
p2563
I18
tp2564
g20
s(g1032
I5
tp2565
g15
s(S'/home/clayton/grive/pics/2wF51ABC70-E908-AA82-8C29-D8B59FE8C62F.jpg'
p2566
I49
tp2567
g20
s(S'/home/clayton/grive/pics/0w547FEF42-FCBE-B966-D617-2888E39F4498.jpg'
p2568
I42
tp2569
g40
s(g120
I7
tp2570
g3
s(S'/home/clayton/grive/pics/1-Sad.JPG'
p2571
I110
tp2572
g3
s(S'/home/clayton/grive/pics/5w275D2B77-AD50-E6CD-0121-D80138F626AC.jpg'
p2573
I15
tp2574
g43
s(g2070
I4
tp2575
g20
s(S'/home/clayton/grive/pics/6w5465E952-2333-F4F0-922E-D82211FE562D.jpg'
p2576
I11
tp2577
g10
s(S'/home/clayton/grive/pics/4wD5BE1562-F05B-1AA8-6290-37EE9C424B0E.jpg'
p2578
I17
tp2579
g3
s(S'/home/clayton/grive/pics/6KuoNeutral.jpg'
p2580
I118
tp2581
g10
s(S'/home/clayton/grive/pics/6w5F94C6B9-8556-11D3-8267-EFFDD1F1CD4B.jpg'
p2582
I23
tp2583
g10
s(g1435
I23
tp2584
g3
s(g1418
I4
tp2585
g3
s(g1725
I8
tp2586
g15
s(S'/home/clayton/grive/pics/3w77EDF533-C254-FD89-6404-4660A2F03302.jpg'
p2587
I12
tp2588
g20
s(S'/home/clayton/grive/pics/2w01343164-B10C-A805-EF2F-2D0A02E780D0.jpg'
p2589
I106
tp2590
g20
s(g674
I4
tp2591
g37
s(S'/home/clayton/grive/pics/2w75B0A7BB-3879-FF92-CC05-37B01FC821E8.jpg'
p2592
I43
tp2593
g3
s(S'/home/clayton/grive/pics/4w44B9D53B-EC71-47ED-AF85-EFEBF9C330AB.jpg'
p2594
I9
tp2595
g20
s(S'/home/clayton/grive/pics/1w2B02DD01-5BAB-ABA0-2EAF-3833D439A739.jpg'
p2596
I117
tp2597
g20
s(S'/home/clayton/grive/pics/2w3EC88953-2C9A-08EE-D3A5-465D5B7072D4.jpg'
p2598
I80
tp2599
g20
s(S'/home/clayton/grive/pics/2m18d993d2-3c00-433c-8be0-d106d508d053.jpg'
p2600
I30
tp2601
g20
s(g841
I63
tp2602
g20
s(g304
I10
tp2603
g3
s(g1196
I10
tp2604
g3
s(g1497
I81
tp2605
g10
s(S'/home/clayton/grive/pics/4wB3B65A5B-6FD6-FB6B-DC2C-3797ABC3D83E.jpg'
p2606
I41
tp2607
g20
s(S'/home/clayton/grive/pics/1w7B52AA0B-3547-4AAC-D109-389D5596BF39.jpg'
p2608
I20
tp2609
g3
s(S'/home/clayton/grive/pics/1mcd66cc8e-1866-429d-af90-c2c756395882.jpg'
p2610
I38
tp2611
g20
s(S'/home/clayton/grive/pics/5w3F606B5D-77FB-F545-EEF4-36CCC8791888.jpg'
p2612
I15
tp2613
g43
s(g422
I6
tp2614
g3
s(S'/home/clayton/grive/pics/5w7E85E5B5-F196-987E-51DD-2EC43C62E76D.jpg'
p2615
I72
tp2616
g10
s(S'/home/clayton/grive/pics/4m4ed4b5c3-8594-4921-981d-970fc18d5fea.jpg'
p2617
I26
tp2618
g20
s(S'/home/clayton/grive/pics/6m9340b0af-fe78-4190-bcf7-13abbdf650b9.jpg'
p2619
I15
tp2620
g43
s(S'/home/clayton/grive/pics/4wCDB694D9-BD6D-9794-0202-EFEF6E711F61.jpg'
p2621
I32
tp2622
g20
s(g258
I7
tp2623
g3
s(S'/home/clayton/grive/pics/3w453B0D9A-7B7C-9A9F-3D97-F00362CCA49C.jpg'
p2624
I4
tp2625
g3
s(S'/home/clayton/grive/pics/3w0D1FB1C2-D30A-E25F-2EBB-27E9151B697F.jpg'
p2626
I20
tp2627
g3
s(S'/home/clayton/grive/pics/1w11C902A3-3D0A-1956-0538-6B9806AA4F9F.jpg'
p2628
I64
tp2629
g20
s(S'/home/clayton/grive/pics/4w345D99A7-58C3-9A8D-4DBE-F0039637562A.jpg'
p2630
I15
tp2631
g3
s(S'/home/clayton/grive/pics/6w17B211E6-BF03-6BE8-3E13-EFF255F37851.jpg'
p2632
I20
tp2633
g10
s(S'/home/clayton/grive/pics/6w9D75EFDC-3AE6-E0D7-C7F4-28316CCF01BA.jpg'
p2634
I109
tp2635
g10
s(S'/home/clayton/grive/pics/2wF9371CDA-417F-992A-A6BC-DD6373EF9014.jpg'
p2636
I20
tp2637
g20
s(S'/home/clayton/grive/pics/1KuoGlassesSad.jpg'
p2638
I60
tp2639
g20
s(S'/home/clayton/grive/pics/5w2B02DD01-5BAB-ABA0-2EAF-3833D439A739.jpg'
p2640
I118
tp2641
g10
s(S'/home/clayton/grive/pics/1m9660a96e-a888-40cd-b380-7d3761693c17.jpg'
p2642
I61
tp2643
g3
s(S'/home/clayton/grive/pics/4w038FF51B-B514-1E4A-1F79-37ACE961D312.jpg'
p2644
I39
tp2645
g3
s(S'/home/clayton/grive/pics/4wBE6C87EF-3D62-189A-34DB-33F0A359A14F.jpg'
p2646
I23
tp2647
g20
s(S'/home/clayton/grive/pics/0w6B887E6C-D9CE-E590-E3F0-6B34BF5BA23A.jpg'
p2648
I18
tp2649
g40
s(g647
I8
tp2650
g43
s(S'/home/clayton/grive/pics/2w3AC58273-1249-F4C2-3A1C-289D10094EB9.jpg'
p2651
I102
tp2652
g20
s(S'/home/clayton/grive/pics/3w221CD601-3CC2-CE4F-C761-F0073C97F0C5.jpg'
p2653
I10
tp2654
g3
s(S'/home/clayton/grive/pics/0w275D2B77-AD50-E6CD-0121-D80138F626AC.jpg'
p2655
I54
tp2656
g40
s(S'/home/clayton/grive/pics/0wD174FE9B-6632-6EBB-E135-9EFF44352093.jpg'
p2657
I91
tp2658
g40
s(S'/home/clayton/grive/pics/3w5F3E20F0-CA15-AB7C-C873-3329D70151F2.jpg'
p2659
I28
tp2660
g3
s(g2317
I20
tp2661
g3
s(S'/home/clayton/grive/pics/0w0D06F3B2-6808-7A67-1A70-EFE381C4F509.jpg'
p2662
I26
tp2663
g40
s(S'/home/clayton/grive/pics/3wA8290F86-C077-9F89-F9F7-464D6C6DEA5F.jpg'
p2664
I43
tp2665
g20
s(S'/home/clayton/grive/pics/1w7F2BE16D-8A7C-F883-8CFE-EFF8C9D10E88.jpg'
p2666
I23
tp2667
g20
s(S'/home/clayton/grive/pics/2wD4EB92C9-4F2D-BEA4-25DD-EFD882F1442E.jpg'
p2668
I29
tp2669
g20
s(S'/home/clayton/grive/pics/2wEE5FC257-9937-1847-8A4C-31E98B5E3AC3.jpg'
p2670
I5
tp2671
g3
s(S'/home/clayton/grive/pics/3w66F66B26-FBE8-A425-CDA6-D0273FBE14F2.jpg'
p2672
I50
tp2673
g3
s(g2624
I29
tp2674
g3
s(S'/home/clayton/grive/pics/4w7EA25B92-1336-94C0-FB2D-EFDA52371B47.jpg'
p2675
I10
tp2676
g20
s(g873
I8
tp2677
g3
s(g262
I4
tp2678
g43
s(g2366
I30
tp2679
g20
s(S'/home/clayton/grive/pics/5wF51ABC70-E908-AA82-8C29-D8B59FE8C62F.jpg'
p2680
I56
tp2681
g10
s(S'/home/clayton/grive/pics/5w7EA25B92-1336-94C0-FB2D-EFDA52371B47.jpg'
p2682
I8
tp2683
g10
s(S'/home/clayton/grive/pics/6wE953282F-1713-2679-406D-285C8932B012.jpg'
p2684
I23
tp2685
g10
s(S'/home/clayton/grive/pics/2wAF00C89F-447F-4CD2-7885-EFFB17DF9144.jpg'
p2686
I43
tp2687
g20
s(S'/home/clayton/grive/pics/4w547FEF42-FCBE-B966-D617-2888E39F4498.jpg'
p2688
I44
tp2689
g20
s(S'/home/clayton/grive/pics/2w455E62E6-5EAF-9986-F10E-383E9405062F.jpg'
p2690
I73
tp2691
g20
s(g692
I4
tp2692
g43
s(S'/home/clayton/grive/pics/0wF38C5939-5878-3826-255B-37EF8300E8D1.jpg'
p2693
I27
tp2694
g40
s(g2670
I26
tp2695
g20
s(S'/home/clayton/grive/pics/2w7F2BE16D-8A7C-F883-8CFE-EFF8C9D10E88.jpg'
p2696
I5
tp2697
g3
s(g366
I8
tp2698
g43
s(S'/home/clayton/grive/pics/0KuoHappy2.jpg'
p2699
I112
tp2700
g40
s(S'/home/clayton/grive/pics/3wC2ADD546-AB36-C43C-E84D-EFF00579620B.jpg'
p2701
I4
tp2702
g3
s(S'/home/clayton/grive/pics/1wF81457BB-C846-A3E9-4C02-DD6128BED15B.jpg'
p2703
I91
tp2704
g3
s(S'/home/clayton/grive/pics/3w1DA4F3B0-46AF-07D5-6E56-2A8D17618C41.jpg'
p2705
I42
tp2706
g3
s(S'/home/clayton/grive/pics/5m81793c88-5a77-4c1a-96b9-19113f792758.jpg'
p2707
I57
tp2708
g10
s(S'/home/clayton/grive/pics/5w221CD601-3CC2-CE4F-C761-F0073C97F0C5.jpg'
p2709
I13
tp2710
g43
s(g756
I35
tp2711
g3
s(S'/home/clayton/grive/pics/1wE1F57AF5-064C-9BD6-AE25-F007E6803651.jpg'
p2712
I55
tp2713
g3
s(g35
I5
tp2714
g37
s(S'/home/clayton/grive/pics/1w6A3CAB4F-95AC-25CB-4CD4-2D0EA445F376.jpg'
p2715
I54
tp2716
g20
s(S'/home/clayton/grive/pics/5m53633fb0-91e3-4336-8db7-0f2ed20929f7.jpg'
p2717
I27
tp2718
g10
s(S'/home/clayton/grive/pics/2wB3B65A5B-6FD6-FB6B-DC2C-3797ABC3D83E.jpg'
p2719
I58
tp2720
g3
s(S'/home/clayton/grive/pics/5w23C4FE8C-F60F-F7A0-209F-EFEDBF964235.jpg'
p2721
I11
tp2722
g43
s(g104
I25
tp2723
g43
s(S'/home/clayton/grive/pics/6wB3B65A5B-6FD6-FB6B-DC2C-3797ABC3D83E.jpg'
p2724
I35
tp2725
g10
s(S'/home/clayton/grive/pics/6wE91A57C8-8766-64BA-4E1F-33C5F731BCE4.jpg'
p2726
I44
tp2727
g10
s(g58
I7
tp2728
g43
s(S'/home/clayton/grive/pics/5m158a7b3d-0ea7-4403-ba3e-16b56aaa4db0.jpg'
p2729
I50
tp2730
g43
s(g1630
I16
tp2731
g3
s(S'/home/clayton/grive/pics/1w4ACD6E21-0751-DEA6-DB60-2F0500DBF231.jpg'
p2732
I75
tp2733
g20
s(S'/home/clayton/grive/pics/0m58c6be84-7243-4efb-b579-ce026defc3d2.jpg'
p2734
I25
tp2735
g40
s(S'/home/clayton/grive/pics/5m38b89e01-3e85-484d-b908-782035034769.jpg'
p2736
I23
tp2737
g10
s(S'/home/clayton/grive/pics/0happy1.JPG'
p2738
I90
tp2739
g40
s(S'/home/clayton/grive/pics/6wBE3974B4-A678-56B4-9610-286BC7FB53FC.jpg'
p2740
I80
tp2741
g10
s(g1275
I6
tp2742
g15
s(S'/home/clayton/grive/pics/4m040789e6-8b61-484e-b935-203eeeaf5a7f.jpg'
p2743
I74
tp2744
g20
s(S'/home/clayton/grive/pics/6wC89E1EA6-6B03-0107-19C6-312038C89CA1.jpg'
p2745
I83
tp2746
g10
s(S'/home/clayton/grive/pics/0wCB4A8AF8-BFDA-62AB-F96C-F00E4F7BFBE2.jpg'
p2747
I24
tp2748
g40
s(g1344
I8
tp2749
g20
s(g2222
I26
tp2750
g3
s(S'/home/clayton/grive/pics/2m3a33b8ba-bfdc-4061-a7b3-4c7fcc6839b7.jpg'
p2751
I96
tp2752
g20
s(g851
I19
tp2753
g3
s(S'/home/clayton/grive/pics/4w98D0D5C2-5A24-77C4-893C-389C780B22BF.jpg'
p2754
I26
tp2755
g20
s(S'/home/clayton/grive/pics/6w79D4D2F8-3794-9B73-B7D1-EFEF32720063.jpg'
p2756
I36
tp2757
g10
s(S'/home/clayton/grive/pics/4w1F9D7616-B031-13BA-2CF1-332BB1E15DC2.jpg'
p2758
I39
tp2759
g20
s(S'/home/clayton/grive/pics/4m9660a96e-a888-40cd-b380-7d3761693c17.jpg'
p2760
I99
tp2761
g3
s(S'/home/clayton/grive/pics/4wB327C73A-CBE4-4E6F-85BE-37EFF9F68B2E.jpg'
p2762
I11
tp2763
g3
s(S'/home/clayton/grive/pics/3wEE5FC257-9937-1847-8A4C-31E98B5E3AC3.jpg'
p2764
I32
tp2765
g3
s(S'/home/clayton/grive/pics/1w98D0D5C2-5A24-77C4-893C-389C780B22BF.jpg'
p2766
I29
tp2767
g20
s(S'/home/clayton/grive/pics/6w345D99A7-58C3-9A8D-4DBE-F0039637562A.jpg'
p2768
I19
tp2769
g10
s(S'/home/clayton/grive/pics/6w86213EB0-EFE5-91A5-6308-4CE43B9C4ABB.jpg'
p2770
I48
tp2771
g10
s(S'/home/clayton/grive/pics/5w6C9F7832-CE9D-15A0-5DA4-6B8CFF5E8490.jpg'
p2772
I80
tp2773
g10
s(S'/home/clayton/grive/pics/0w6A3CAB4F-95AC-25CB-4CD4-2D0EA445F376.jpg'
p2774
I71
tp2775
g40
s(g1397
I16
tp2776
g3
s(S'/home/clayton/grive/pics/6w4A42FC32-7901-26E1-A91B-33331AA34C92.jpg'
p2777
I37
tp2778
g10
s(S'/home/clayton/grive/pics/1mfeef873d-a3d3-409a-b559-85c7ecff3bba.jpg'
p2779
I31
tp2780
g3
s(g170
I17
tp2781
g20
s(S'/home/clayton/grive/pics/1wFA3A2A73-D799-1F82-B7C9-6B922E50F6D3.jpg'
p2782
I64
tp2783
g3
s(S'/home/clayton/grive/pics/4w9DC9791F-43FF-A0F2-136E-27278922DE8B.jpg'
p2784
I14
tp2785
g3
s(S'/home/clayton/grive/pics/5w9FB993B7-8646-7117-CD23-27C2F4C7EC67.jpg'
p2786
I117
tp2787
g10
s(S'/home/clayton/grive/pics/5m4b57e50c-264c-4921-b4ca-8db06d561bcd.jpg'
p2788
I71
tp2789
g43
s(S'/home/clayton/grive/pics/4m5b216672-8484-4348-b9ab-3f0437fe53dc.jpg'
p2790
I7
tp2791
g20
s(S'/home/clayton/grive/pics/0Happy.jpg'
p2792
I60
tp2793
g40
s(S'/home/clayton/grive/pics/4maa24e3dd-73b7-43bb-9668-26cf6b146f58.jpg'
p2794
I40
tp2795
g20
s(S'/home/clayton/grive/pics/3wE0F39B0C-94A5-8BD4-61A2-EFE587012FA0.jpg'
p2796
I5
tp2797
g3
s(g522
I4
tp2798
g43
s(S'/home/clayton/grive/pics/4w6D8B00F1-237C-5070-C5C5-2725674902D4.jpg'
p2799
I82
tp2800
g20
s(S'/home/clayton/grive/pics/2wE0F39B0C-94A5-8BD4-61A2-EFE587012FA0.jpg'
p2801
I12
tp2802
g20
s(S'/home/clayton/grive/pics/6w2EF2AD95-51F3-FC29-E168-F00CBA1039A6.jpg'
p2803
I16
tp2804
g43
s(S'/home/clayton/grive/pics/5mee953784-3873-4738-a45f-15bf2d546bdf.jpg'
p2805
I12
tp2806
g10
s(S'/home/clayton/grive/pics/5wF9371CDA-417F-992A-A6BC-DD6373EF9014.jpg'
p2807
I61
tp2808
g10
s(g1084
I4
tp2809
g3
s(S'/home/clayton/grive/pics/0w8EC27280-1A0E-1E4D-29EA-EFF6FEF7C705.jpg'
p2810
I30
tp2811
g40
s(S'/home/clayton/grive/pics/2w11C902A3-3D0A-1956-0538-6B9806AA4F9F.jpg'
p2812
I55
tp2813
g20
s(S'/home/clayton/grive/pics/0happy9.JPG'
p2814
I14
tp2815
g40
s(S'/home/clayton/grive/pics/3w45F00E26-EEF8-ADBC-B511-379A0FB86DFF.jpg'
p2816
I19
tp2817
g20
s(S'/home/clayton/grive/pics/2m139a1aec-0c0b-440d-8a6c-7d5c8598259c.jpg'
p2818
I52
tp2819
g3
s(S'/home/clayton/grive/pics/5w66F66B26-FBE8-A425-CDA6-D0273FBE14F2.jpg'
p2820
I36
tp2821
g10
s(S'/home/clayton/grive/pics/0w9CF2D657-F38A-A867-1844-64AF3A43DEAA.jpg'
p2822
I22
tp2823
g40
s(S'/home/clayton/grive/pics/2m38b89e01-3e85-484d-b908-782035034769.jpg'
p2824
I41
tp2825
g20
s(S'/home/clayton/grive/pics/0happy10.JPG'
p2826
I88
tp2827
g40
s(S'/home/clayton/grive/pics/1mbfafedbe-f2cf-4c12-b287-c50e7850c5eb.jpg'
p2828
I85
tp2829
g20
s(S'/home/clayton/grive/pics/0mee953784-3873-4738-a45f-15bf2d546bdf.jpg'
p2830
I5
tp2831
g40
s(S'/home/clayton/grive/pics/0m18d993d2-3c00-433c-8be0-d106d508d053.jpg'
p2832
I27
tp2833
g40
s(S'/home/clayton/grive/pics/3w5F94C6B9-8556-11D3-8267-EFFDD1F1CD4B.jpg'
p2834
I51
tp2835
g20
s(S'/home/clayton/grive/pics/3wF81457BB-C846-A3E9-4C02-DD6128BED15B.jpg'
p2836
I68
tp2837
g20
s(S'/home/clayton/grive/pics/1Sad.jpg (Case Conflict 1)'
p2838
I60
tp2839
g20
s(S'/home/clayton/grive/pics/0w9DC9791F-43FF-A0F2-136E-27278922DE8B.jpg'
p2840
I26
tp2841
g40
s(g1209
I56
tp2842
g20
s(g6
I10
tp2843
g3
s(S'/home/clayton/grive/pics/2w5465E952-2333-F4F0-922E-D82211FE562D.jpg'
p2844
I18
tp2845
g20
s(g1082
I38
tp2846
g40
s(S'/home/clayton/grive/pics/4w7F7338BC-E565-8DED-FB80-46627677A6C7.jpg'
p2847
I72
tp2848
g3
s(S'/home/clayton/grive/pics/1w75A71932-7631-6493-AA4D-CD72B83F1138.jpg'
p2849
I64
tp2850
g20
s(S'/home/clayton/grive/pics/4w79D4D2F8-3794-9B73-B7D1-EFEF32720063.jpg'
p2851
I28
tp2852
g3
s(S'/home/clayton/grive/pics/2w77C09460-F810-F1E2-D2AC-EFE8805E512A.jpg'
p2853
I4
tp2854
g3
s(S'/home/clayton/grive/pics/4w6B887E6C-D9CE-E590-E3F0-6B34BF5BA23A.jpg'
p2855
I20
tp2856
g3
s(S'/home/clayton/grive/pics/2wF81457BB-C846-A3E9-4C02-DD6128BED15B.jpg'
p2857
I113
tp2858
g3
s(S'/home/clayton/grive/pics/4w3F606B5D-77FB-F545-EEF4-36CCC8791888.jpg'
p2859
I24
tp2860
g3
s(S'/home/clayton/grive/pics/2wCC78F689-E22B-23A4-2B55-3336F8A9B35C.jpg'
p2861
I55
tp2862
g20
s(S'/home/clayton/grive/pics/4wEED45041-BE05-1F78-5044-2EF641914EDD.jpg'
p2863
I78
tp2864
g3
s(S'/home/clayton/grive/pics/4w8CE97341-98AC-5D5E-73AB-46736817D056.jpg'
p2865
I7
tp2866
g3
s(g1925
I20
tp2867
g20
s(S'/home/clayton/grive/pics/5m6ccb14e5-001d-499c-9d77-979759f7986b.jpg'
p2868
I39
tp2869
g10
s(S'/home/clayton/grive/pics/5w9DC9791F-43FF-A0F2-136E-27278922DE8B.jpg'
p2870
I25
tp2871
g43
s(S'/home/clayton/grive/pics/1w9E129634-2C33-C86B-30F7-6B6F8AB2AF22.jpg'
p2872
I40
tp2873
g20
s(S'/home/clayton/grive/pics/0w86213EB0-EFE5-91A5-6308-4CE43B9C4ABB.jpg'
p2874
I36
tp2875
g40
s(S'/home/clayton/grive/pics/2w453B0D9A-7B7C-9A9F-3D97-F00362CCA49C.jpg'
p2876
I24
tp2877
g20
s(S'/home/clayton/grive/pics/5wE579115D-288C-F313-6988-EFDB2EB5D4BF.jpg'
p2878
I12
tp2879
g43
s(S'/home/clayton/grive/pics/3mcd66cc8e-1866-429d-af90-c2c756395882.jpg'
p2880
I6
tp2881
g3
s(S'/home/clayton/grive/pics/4w0A63D31C-0B59-BFF2-4F27-46B385316AD7.jpg'
p2882
I31
tp2883
g20
s(S'/home/clayton/grive/pics/6w233E62AD-7E9F-FF61-F5E5-EFFC288A76F9.jpg'
p2884
I49
tp2885
g10
s(S'/home/clayton/grive/pics/5wB3B65A5B-6FD6-FB6B-DC2C-3797ABC3D83E.jpg'
p2886
I60
tp2887
g43
s(g2055
I53
tp2888
g20
s(S'/home/clayton/grive/pics/5w8A998EFF-7A50-74D3-B69B-EFE0E7C90AA0.jpg'
p2889
I33
tp2890
g43
s(S'/home/clayton/grive/pics/2w79B28E67-96B7-EB0D-9A75-EFFEDB8F577D.jpg'
p2891
I45
tp2892
g20
s(S'/home/clayton/grive/pics/5w6D37274F-6971-2063-C29B-4671208BF5AE.jpg'
p2893
I7
tp2894
g43
s(S'/home/clayton/grive/pics/0happy3.JPG'
p2895
I36
tp2896
g40
s(S'/home/clayton/grive/pics/4w79B28E67-96B7-EB0D-9A75-EFFEDB8F577D.jpg'
p2897
I52
tp2898
g20
s(S'/home/clayton/grive/pics/3w4ACD6E21-0751-DEA6-DB60-2F0500DBF231.jpg'
p2899
I88
tp2900
g20
s(S'/home/clayton/grive/pics/2w5D592E12-AEF9-B530-374E-3322B125D1A1.jpg'
p2901
I84
tp2902
g3
s(S'/home/clayton/grive/pics/0DSCN0305.JPG'
p2903
I82
tp2904
g40
s(S'/home/clayton/grive/pics/5md99d5900-5461-41eb-adb1-8681a6885dc6.jpg'
p2905
I35
tp2906
g10
s(g180
I30
tp2907
g15
s(S'/home/clayton/grive/pics/0w1522DE41-3A6C-DEA0-CB4C-46E4E637BE61.jpg'
p2908
I34
tp2909
g40
s(g596
I10
tp2910
g3
s(S'/home/clayton/grive/pics/4w455E62E6-5EAF-9986-F10E-383E9405062F.jpg'
p2911
I59
tp2912
g3
s(S'/home/clayton/grive/pics/0wE0F39B0C-94A5-8BD4-61A2-EFE587012FA0.jpg'
p2913
I8
tp2914
g37
s(S'/home/clayton/grive/pics/3wEED45041-BE05-1F78-5044-2EF641914EDD.jpg'
p2915
I53
tp2916
g20
s(S'/home/clayton/grive/pics/0w221CD601-3CC2-CE4F-C761-F0073C97F0C5.jpg'
p2917
I10
tp2918
g15
s(S'/home/clayton/grive/pics/6m709ed245-1794-48b2-99f4-73cae971abbf.jpg'
p2919
I5
tp2920
g43
s(S'/home/clayton/grive/pics/6w11C902A3-3D0A-1956-0538-6B9806AA4F9F.jpg'
p2921
I60
tp2922
g10
s(S'/home/clayton/grive/pics/0happy2.JPG'
p2923
I72
tp2924
g40
s(S'/home/clayton/grive/pics/1wB327C73A-CBE4-4E6F-85BE-37EFF9F68B2E.jpg'
p2925
I38
tp2926
g3
s(S'/home/clayton/grive/pics/5wCB4A8AF8-BFDA-62AB-F96C-F00E4F7BFBE2.jpg'
p2927
I11
tp2928
g43
s(S'/home/clayton/grive/pics/6DSCN0303.JPG'
p2929
I82
tp2930
g10
s(S'/home/clayton/grive/pics/3wD7662DB4-ED2D-0E94-3A81-F002716EC18A.jpg'
p2931
I11
tp2932
g20
s(S'/home/clayton/grive/pics/4w57166D0D-8403-104C-6BEA-2F07DBC2E389.jpg'
p2933
I14
tp2934
g20
s(S'/home/clayton/grive/pics/1w5F3E20F0-CA15-AB7C-C873-3329D70151F2.jpg'
p2935
I37
tp2936
g3
s(g2205
I36
tp2937
g43
s(g2430
I97
tp2938
g40
s(S'/home/clayton/grive/pics/6wEED45041-BE05-1F78-5044-2EF641914EDD.jpg'
p2939
I69
tp2940
g10
s(S'/home/clayton/grive/pics/4w5465E952-2333-F4F0-922E-D82211FE562D.jpg'
p2941
I19
tp2942
g3
s(g1973
I8
tp2943
g43
s(S'/home/clayton/grive/pics/5wF6EF8C51-B792-9FCF-687D-3333BA797012.jpg'
p2944
I42
tp2945
g43
s(S'/home/clayton/grive/pics/6m81793c88-5a77-4c1a-96b9-19113f792758.jpg'
p2946
I58
tp2947
g10
s(S'/home/clayton/grive/pics/2w422A3E39-00CD-54DC-F42A-332478449BD6.jpg'
p2948
I89
tp2949
g20
s(S'/home/clayton/grive/pics/6m57519cd1-d254-41e5-9418-09b11ad66a50.jpg'
p2950
I26
tp2951
g10
s(S'/home/clayton/grive/pics/6wB4A6761A-AF53-7278-1AC9-4691D99C2F60.jpg'
p2952
I56
tp2953
g10
s(g2917
I16
tp2954
g37
s(g491
I7
tp2955
g3
s(g2518
I5
tp2956
g43
s(g1065
I5
tp2957
g43
s(g2764
I17
tp2958
g3
s(S'/home/clayton/grive/pics/0w23C4FE8C-F60F-F7A0-209F-EFEDBF964235.jpg'
p2959
I20
tp2960
g40
s(g1030
I45
tp2961
g3
s(S'/home/clayton/grive/pics/5w1DA4F3B0-46AF-07D5-6E56-2A8D17618C41.jpg'
p2962
I69
tp2963
g10
s(S'/home/clayton/grive/pics/2w2B02DD01-5BAB-ABA0-2EAF-3833D439A739.jpg'
p2964
I133
tp2965
g20
s(S'/home/clayton/grive/pics/6w70574034-301E-9568-EB56-389E0E002C5E.jpg'
p2966
I51
tp2967
g10
s(S'/home/clayton/grive/pics/1w9142C5B8-00C3-B41B-B5F7-7B04092215BC.jpg'
p2968
I14
tp2969
g20
s(g1527
I68
tp2970
g20
s(S'/home/clayton/grive/pics/0m354dbab3-cc44-4fa5-a76b-1832158454cd.jpg'
p2971
I5
tp2972
g40
s(g859
I24
tp2973
g43
s(g1628
I12
tp2974
g20
s(S'/home/clayton/grive/pics/6w1522DE41-3A6C-DEA0-CB4C-46E4E637BE61.jpg'
p2975
I39
tp2976
g43
s(S'/home/clayton/grive/pics/0wAEFC7C09-CD73-3B8E-A369-7AFA0E31AF3D.jpg'
p2977
I16
tp2978
g40
s(S'/home/clayton/grive/pics/2w39D34F71-9398-68F2-4F8C-F0102C7A0F3C.jpg'
p2979
I8
tp2980
g20
s(S'/home/clayton/grive/pics/5wF38C5939-5878-3826-255B-37EF8300E8D1.jpg'
p2981
I49
tp2982
g10
s(g2762
I51
tp2983
g20
s(S'/home/clayton/grive/pics/4w503AB7EB-1816-0B00-1966-EFEA502B0E95.jpg'
p2984
I11
tp2985
g20
s(S'/home/clayton/grive/pics/2w8EC27280-1A0E-1E4D-29EA-EFF6FEF7C705.jpg'
p2986
I30
tp2987
g20
s(g248
I4
tp2988
g43
s(S'/home/clayton/grive/pics/1w5D592E12-AEF9-B530-374E-3322B125D1A1.jpg'
p2989
I95
tp2990
g3
s(g2347
I49
tp2991
g3
s(g1168
I15
tp2992
g3
s(S'/home/clayton/grive/pics/3wAE00083F-0B9D-4EED-63B7-2757C366CB50.jpg'
p2993
I65
tp2994
g3
s(S'/home/clayton/grive/pics/6w514E3E36-1CFE-F72D-C4B3-EFEBDD4798A6.jpg'
p2995
I10
tp2996
g10
s(g781
I8
tp2997
g3
s(S'/home/clayton/grive/pics/0wF60A9437-78B3-BDE2-BCD1-EFFEB41D538F.jpg'
p2998
I25
tp2999
g40
s(S'/home/clayton/grive/pics/0wE579115D-288C-F313-6988-EFDB2EB5D4BF.jpg'
p3000
I18
tp3001
g40
s(S'/home/clayton/grive/pics/6w221CD601-3CC2-CE4F-C761-F0073C97F0C5.jpg'
p3002
I11
tp3003
g43
s(S'/home/clayton/grive/pics/5w9D75EFDC-3AE6-E0D7-C7F4-28316CCF01BA.jpg'
p3004
I82
tp3005
g43
s(S'/home/clayton/grive/pics/5m9660a96e-a888-40cd-b380-7d3761693c17.jpg'
p3006
I97
tp3007
g43
s(S'/home/clayton/grive/pics/6m6ccb14e5-001d-499c-9d77-979759f7986b.jpg'
p3008
I22
tp3009
g10
s(g769
I31
tp3010
g20
s(g2662
I6
tp3011
g15
s(S'/home/clayton/grive/pics/6wC2ADD546-AB36-C43C-E84D-EFF00579620B.jpg'
p3012
I24
tp3013
g43
s(S'/home/clayton/grive/pics/6wD61ACB92-52ED-6679-0D80-38A0B91ACF94.jpg'
p3014
I61
tp3015
g10
s(S'/home/clayton/grive/pics/2w66F66B26-FBE8-A425-CDA6-D0273FBE14F2.jpg'
p3016
I13
tp3017
g20
s(g2696
I27
tp3018
g20
s(S'/home/clayton/grive/pics/5w04AB60B8-053D-0086-A395-4698C6ECDA34.jpg'
p3019
I58
tp3020
g10
s(S'/home/clayton/grive/pics/4wA8290F86-C077-9F89-F9F7-464D6C6DEA5F.jpg'
p3021
I46
tp3022
g20
s(S'/home/clayton/grive/pics/5w2EF2AD95-51F3-FC29-E168-F00CBA1039A6.jpg'
p3023
I18
tp3024
g43
s(g2062
I16
tp3025
g3
s(g1352
I44
tp3026
g20
s(g310
I5
tp3027
g3
s(g510
I9
tp3028
g37
s(S'/home/clayton/grive/pics/4m53633fb0-91e3-4336-8db7-0f2ed20929f7.jpg'
p3029
I11
tp3030
g20
s(S'/home/clayton/grive/pics/1wBE6C87EF-3D62-189A-34DB-33F0A359A14F.jpg'
p3031
I19
tp3032
g3
s(S'/home/clayton/grive/pics/0wF81457BB-C846-A3E9-4C02-DD6128BED15B.jpg'
p3033
I97
tp3034
g40
s(S'/home/clayton/grive/pics/6w8EC27280-1A0E-1E4D-29EA-EFF6FEF7C705.jpg'
p3035
I38
tp3036
g10
s(S'/home/clayton/grive/pics/6w9CF2D657-F38A-A867-1844-64AF3A43DEAA.jpg'
p3037
I33
tp3038
g10
s(S'/home/clayton/grive/pics/5w10F317F3-9F1E-F59C-B335-38A8ADEE47AF.jpg'
p3039
I51
tp3040
g10
s(g1125
I7
tp3041
g3
s(S'/home/clayton/grive/pics/6w8A998EFF-7A50-74D3-B69B-EFE0E7C90AA0.jpg'
p3042
I26
tp3043
g10
s(g2672
I7
tp3044
g3
s(S'/home/clayton/grive/pics/2w221CD601-3CC2-CE4F-C761-F0073C97F0C5.jpg'
p3045
I12
tp3046
g3
s(S'/home/clayton/grive/pics/0w8C431FA1-7A06-58B5-4FDB-EFF2BCDEFC0C.jpg'
p3047
I12
tp3048
g37
s(g1896
I4
tp3049
g43
s(S'/home/clayton/grive/pics/1w4123FC40-659C-BBF1-A29E-29652EC92828.jpg'
p3050
I60
tp3051
g3
s(S'/home/clayton/grive/pics/4wF51ABC70-E908-AA82-8C29-D8B59FE8C62F.jpg'
p3052
I44
tp3053
g3
s(S'/home/clayton/grive/pics/2wBE3974B4-A678-56B4-9610-286BC7FB53FC.jpg'
p3054
I89
tp3055
g20
s(S'/home/clayton/grive/pics/1m3489e795-35d9-4bc6-83c2-0b80c5b780ea.jpg'
p3056
I28
tp3057
g3
s(g2619
I14
tp3058
g10
s(S'/home/clayton/grive/pics/3w70574034-301E-9568-EB56-389E0E002C5E.jpg'
p3059
I50
tp3060
g3
s(S'/home/clayton/grive/pics/6wCDB694D9-BD6D-9794-0202-EFEF6E711F61.jpg'
p3061
I31
tp3062
g10
s(S'/home/clayton/grive/pics/5wBE3974B4-A678-56B4-9610-286BC7FB53FC.jpg'
p3063
I82
tp3064
g10
s(S'/home/clayton/grive/pics/2wC6AB8E45-0D08-5231-7C41-EFF50AB9F865.jpg'
p3065
I33
tp3066
g20
s(g2919
I63
tp3067
g10
s(S'/home/clayton/grive/pics/4m89be575f-50b5-4d23-b6d7-940a46e9c030.jpg'
p3068
I44
tp3069
g20
s(S'/home/clayton/grive/pics/6wCB4A8AF8-BFDA-62AB-F96C-F00E4F7BFBE2.jpg'
p3070
I10
tp3071
g43
s(S'/home/clayton/grive/pics/2w837D0871-935B-7E8E-A689-F00B320588E7.jpg'
p3072
I9
tp3073
g3
s(S'/home/clayton/grive/pics/6maa24e3dd-73b7-43bb-9668-26cf6b146f58.jpg'
p3074
I47
tp3075
g10
s(S'/home/clayton/grive/pics/6wAE00083F-0B9D-4EED-63B7-2757C366CB50.jpg'
p3076
I64
tp3077
g10
s(S'/home/clayton/grive/pics/3wE0CA5A8E-D4F8-F93F-8845-CD71832C5BEC.jpg'
p3078
I48
tp3079
g20
s(S'/home/clayton/grive/pics/1wB7455899-8A91-0D14-67FB-3326BB8944DD.jpg'
p3080
I73
tp3081
g3
s(S'/home/clayton/grive/pics/2mbb625c3c-721b-4e37-9aa1-68684b210046.jpg'
p3082
I31
tp3083
g20
s(S'/home/clayton/grive/pics/0w345D99A7-58C3-9A8D-4DBE-F0039637562A.jpg'
p3084
I22
tp3085
g40
s(S'/home/clayton/grive/pics/1w5D981B62-3BF3-3379-219B-EFF97EC7E5A0.jpg'
p3086
I65
tp3087
g3
s(S'/home/clayton/grive/pics/4w2EF2AD95-51F3-FC29-E168-F00CBA1039A6.jpg'
p3088
I14
tp3089
g20
s(S'/home/clayton/grive/pics/6KuoGlassesNeutral.jpg'
p3090
I77
tp3091
g10
s(S'/home/clayton/grive/pics/1w1DA4F3B0-46AF-07D5-6E56-2A8D17618C41.jpg'
p3092
I51
tp3093
g20
s(S'/home/clayton/grive/pics/4w62D19778-1AA6-13C2-004F-389AF747333D.jpg'
p3094
I34
tp3095
g20
s(S'/home/clayton/grive/pics/1m158a7b3d-0ea7-4403-ba3e-16b56aaa4db0.jpg'
p3096
I7
tp3097
g20
s(g2131
I45
tp3098
g10
s(S'/home/clayton/grive/pics/3w545D8371-906B-59FB-3297-3D9D8D822C99.jpg'
p3099
I7
tp3100
g3
s(S'/home/clayton/grive/pics/0w2B02DD01-5BAB-ABA0-2EAF-3833D439A739.jpg'
p3101
I138
tp3102
g40
s(S'/home/clayton/grive/pics/6m158a7b3d-0ea7-4403-ba3e-16b56aaa4db0.jpg'
p3103
I54
tp3104
g10
s.