(dp0
(S'/home/clayton/grive/www.kasrl.org-jaffe.html/6YM.NE1.49.tiff'
p1
I70
tp2
S'y'
p3
s(S'/home/clayton/grive/www.kasrl.org-jaffe.html/3KA.SU3.38.tiff'
p4
I44
tp5
g3
s(S'/home/clayton/grive/www.kasrl.org-jaffe.html/1YM.SA1.55.tiff'
p6
I78
tp7
g3
s(S'/home/clayton/grive/www.kasrl.org-jaffe.html/4TM.FE2.197.tiff'
p8
I97
tp9
g3
s(S'/home/clayton/grive/www.kasrl.org-jaffe.html/4KA.FE2.46.tiff'
p10
I61
tp11
g3
s(S'/home/clayton/grive/www.kasrl.org-jaffe.html/4KM.FE2.24.tiff'
p12
I75
tp13
g3
s(S'/home/clayton/grive/www.kasrl.org-jaffe.html/5TM.DI3.195.tiff'
p14
I92
tp15
g3
s(S'/home/clayton/grive/www.kasrl.org-jaffe.html/1NA.SA1.205.tiff'
p16
I78
tp17
g3
s(S'/home/clayton/grive/www.kasrl.org-jaffe.html/2KA.AN1.39.tiff'
p18
I88
tp19
g3
s(S'/home/clayton/grive/www.kasrl.org-jaffe.html/5NM.DI1.107.tiff'
p20
I70
tp21
g3
s(S'/home/clayton/grive/www.kasrl.org-jaffe.html/4NA.FE1.217.tiff'
p22
I80
tp23
g3
s(S'/home/clayton/grive/www.kasrl.org-jaffe.html/4NM.FE2.111.tiff'
p24
I56
tp25
g3
s(S'/home/clayton/grive/www.kasrl.org-jaffe.html/0YM.HA3.54.tiff'
p26
I101
tp27
g3
s(S'/home/clayton/grive/www.kasrl.org-jaffe.html/2KL.AN1.167.tiff'
p28
I86
tp29
g3
s(S'/home/clayton/grive/www.kasrl.org-jaffe.html/0KM.HA4.7.tiff'
p30
I95
tp31
g3
s(S'/home/clayton/grive/www.kasrl.org-jaffe.html/3KR.SU3.82.tiff'
p32
I45
tp33
g3
s(S'/home/clayton/grive/www.kasrl.org-jaffe.html/5UY.DI2.150.tiff'
p34
I102
tp35
g3
s(S'/home/clayton/grive/www.kasrl.org-jaffe.html/1UY.SA2.141.tiff'
p36
I88
tp37
g3
s(S'/home/clayton/grive/www.kasrl.org-jaffe.html/3MK.SU2.123.tiff'
p38
I57
tp39
g3
s(S'/home/clayton/grive/www.kasrl.org-jaffe.html/4UY.FE1.152.tiff'
p40
I84
tp41
g3
s(S'/home/clayton/grive/www.kasrl.org-jaffe.html/5KA.DI3.44.tiff'
p42
I82
tp43
g3
s(S'/home/clayton/grive/www.kasrl.org-jaffe.html/2NM.AN2.105.tiff'
p44
I69
tp45
g3
s(S'/home/clayton/grive/www.kasrl.org-jaffe.html/5MK.DI2.129.tiff'
p46
I93
tp47
g3
s(S'/home/clayton/grive/www.kasrl.org-jaffe.html/3NM.SU3.103.tiff'
p48
I59
tp49
g3
s(S'/home/clayton/grive/www.kasrl.org-jaffe.html/1TM.SA3.186.tiff'
p50
I72
tp51
g3
s(S'/home/clayton/grive/www.kasrl.org-jaffe.html/6TM.NE1.177.tiff'
p52
I82
tp53
g3
s(S'/home/clayton/grive/www.kasrl.org-jaffe.html/0KA.HA4.32.tiff'
p54
I50
tp55
g3
s(S'/home/clayton/grive/www.kasrl.org-jaffe.html/1KL.SA1.161.tiff'
p56
I83
tp57
g3
s(S'/home/clayton/grive/www.kasrl.org-jaffe.html/5YM.DI3.66.tiff'
p58
I99
tp59
g3
s(S'/home/clayton/grive/www.kasrl.org-jaffe.html/1KL.SA3.163.tiff'
p60
I92
tp61
g3
s(S'/home/clayton/grive/www.kasrl.org-jaffe.html/4YM.FE1.67.tiff'
p62
I78
tp63
g3
s(S'/home/clayton/grive/www.kasrl.org-jaffe.html/4YM.FE3.69.tiff'
p64
I65
tp65
g3
s(S'/home/clayton/grive/www.kasrl.org-jaffe.html/0KM.HA3.6.tiff'
p66
I78
tp67
g3
s(S'/home/clayton/grive/www.kasrl.org-jaffe.html/3YM.SU3.60.tiff'
p68
I40
tp69
g3
s(S'/home/clayton/grive/www.kasrl.org-jaffe.html/4KM.FE1.23.tiff'
p70
I76
tp71
g3
s(S'/home/clayton/grive/www.kasrl.org-jaffe.html/1UY.SA1.140.tiff'
p72
I88
tp73
g3
s(S'/home/clayton/grive/www.kasrl.org-jaffe.html/0NA.HA3.204.tiff'
p74
I89
tp75
g3
s(S'/home/clayton/grive/www.kasrl.org-jaffe.html/4MK.FE3.133.tiff'
p76
I70
tp77
g3
s(S'/home/clayton/grive/www.kasrl.org-jaffe.html/6NA.NE2.200.tiff'
p78
I80
tp79
g3
s(S'/home/clayton/grive/www.kasrl.org-jaffe.html/0UY.HA1.137.tiff'
p80
I89
tp81
g3
s(S'/home/clayton/grive/www.kasrl.org-jaffe.html/1TM.SA1.184.tiff'
p82
I81
tp83
g3
s(S'/home/clayton/grive/www.kasrl.org-jaffe.html/3KA.SU2.37.tiff'
p84
I53
tp85
g3
s(S'/home/clayton/grive/www.kasrl.org-jaffe.html/0KA.HA2.30.tiff'
p86
I72
tp87
g3
s(S'/home/clayton/grive/www.kasrl.org-jaffe.html/0KL.HA1.158.tiff'
p88
I80
tp89
g3
s(S'/home/clayton/grive/www.kasrl.org-jaffe.html/2UY.AN1.146.tiff'
p90
I99
tp91
g3
s(S'/home/clayton/grive/www.kasrl.org-jaffe.html/4KR.FE2.90.tiff'
p92
I62
tp93
g3
s(S'/home/clayton/grive/www.kasrl.org-jaffe.html/4KA.FE3.47.tiff'
p94
I58
tp95
g3
s(S'/home/clayton/grive/www.kasrl.org-jaffe.html/2KL.AN3.169.tiff'
p96
I87
tp97
g3
s(S'/home/clayton/grive/www.kasrl.org-jaffe.html/5MK.DI1.128.tiff'
p98
I111
tp99
g3
s(S'/home/clayton/grive/www.kasrl.org-jaffe.html/5KA.DI2.43.tiff'
p100
I72
tp101
g3
s(S'/home/clayton/grive/www.kasrl.org-jaffe.html/6KA.NE3.28.tiff'
p102
I77
tp103
g3
s(S'/home/clayton/grive/www.kasrl.org-jaffe.html/0MK.HA2.117.tiff'
p104
I99
tp105
g3
s(S'/home/clayton/grive/www.kasrl.org-jaffe.html/0KL.HA3.160.tiff'
p106
I88
tp107
g3
s(S'/home/clayton/grive/www.kasrl.org-jaffe.html/0KM.HA2.5.tiff'
p108
I91
tp109
g3
s(S'/home/clayton/grive/www.kasrl.org-jaffe.html/4KL.FE1.174.tiff'
p110
I75
tp111
g3
s(S'/home/clayton/grive/www.kasrl.org-jaffe.html/4MK.FE2.131.tiff'
p112
I78
tp113
g3
s(S'/home/clayton/grive/www.kasrl.org-jaffe.html/3UY.SU3.145.tiff'
p114
I77
tp115
g3
s(S'/home/clayton/grive/www.kasrl.org-jaffe.html/4KA.FE1.45.tiff'
p116
I54
tp117
g3
s(S'/home/clayton/grive/www.kasrl.org-jaffe.html/2NM.AN1.104.tiff'
p118
I64
tp119
g3
s(S'/home/clayton/grive/www.kasrl.org-jaffe.html/0MK.HA1.116.tiff'
p120
I105
tp121
g3
s(S'/home/clayton/grive/www.kasrl.org-jaffe.html/6MK.NE2.114.tiff'
p122
I105
tp123
g3
s(S'/home/clayton/grive/www.kasrl.org-jaffe.html/6MK.NE3.115.tiff'
p124
I107
tp125
g3
s(S'/home/clayton/grive/www.kasrl.org-jaffe.html/6NM.NE1.92.tiff'
p126
I68
tp127
g3
s(S'/home/clayton/grive/www.kasrl.org-jaffe.html/3KL.SU1.164.tiff'
p128
I54
tp129
g3
s(S'/home/clayton/grive/www.kasrl.org-jaffe.html/6UY.NE3.136.tiff'
p130
I81
tp131
g3
s(S'/home/clayton/grive/www.kasrl.org-jaffe.html/3MK.SU3.124.tiff'
p132
I69
tp133
g3
s(S'/home/clayton/grive/www.kasrl.org-jaffe.html/1KM.SA3.11.tiff'
p134
I81
tp135
g3
s(S'/home/clayton/grive/www.kasrl.org-jaffe.html/2KA.AN3.41.tiff'
p136
I81
tp137
g3
s(S'/home/clayton/grive/www.kasrl.org-jaffe.html/6KR.NE1.71.tiff'
p138
I58
tp139
g3
s(S'/home/clayton/grive/www.kasrl.org-jaffe.html/6KL.NE1.155.tiff'
p140
I78
tp141
g3
s(S'/home/clayton/grive/www.kasrl.org-jaffe.html/2UY.AN2.147.tiff'
p142
I106
tp143
g3
s(S'/home/clayton/grive/www.kasrl.org-jaffe.html/5NA.DI1.214.tiff'
p144
I82
tp145
g3
s(S'/home/clayton/grive/www.kasrl.org-jaffe.html/1KA.SA1.33.tiff'
p146
I69
tp147
g3
s(S'/home/clayton/grive/www.kasrl.org-jaffe.html/2KR.AN3.85.tiff'
p148
I60
tp149
g3
s(S'/home/clayton/grive/www.kasrl.org-jaffe.html/3KL.SU3.166.tiff'
p150
I61
tp151
g3
s(S'/home/clayton/grive/www.kasrl.org-jaffe.html/4MK.FE2.132.tiff'
p152
I77
tp153
g3
s(S'/home/clayton/grive/www.kasrl.org-jaffe.html/6KM.NE3.3.tiff'
p154
I77
tp155
g3
s(S'/home/clayton/grive/www.kasrl.org-jaffe.html/0KM.HA1.4.tiff'
p156
I85
tp157
g3
s(S'/home/clayton/grive/www.kasrl.org-jaffe.html/3MK.SU1.122.tiff'
p158
I60
tp159
g3
s(S'/home/clayton/grive/www.kasrl.org-jaffe.html/4UY.FE2.153.tiff'
p160
I75
tp161
g3
s(S'/home/clayton/grive/www.kasrl.org-jaffe.html/6NM.NE2.93.tiff'
p162
I70
tp163
g3
s(S'/home/clayton/grive/www.kasrl.org-jaffe.html/6KR.NE3.73.tiff'
p164
I64
tp165
g3
s(S'/home/clayton/grive/www.kasrl.org-jaffe.html/6KM.NE2.2.tiff'
p166
I80
tp167
g3
s(S'/home/clayton/grive/www.kasrl.org-jaffe.html/1KR.SA3.79.tiff'
p168
I70
tp169
g3
s(S'/home/clayton/grive/www.kasrl.org-jaffe.html/1NA.SA2.206.tiff'
p170
I82
tp171
g3
s(S'/home/clayton/grive/www.kasrl.org-jaffe.html/6YM.NE3.51.tiff'
p172
I75
tp173
g3
s(S'/home/clayton/grive/www.kasrl.org-jaffe.html/5TM.DI2.194.tiff'
p174
I98
tp175
g3
s(S'/home/clayton/grive/www.kasrl.org-jaffe.html/0TM.HA1.180.tiff'
p176
I93
tp177
g3
s(S'/home/clayton/grive/www.kasrl.org-jaffe.html/4KL.FE2.175.tiff'
p178
I82
tp179
g3
s(S'/home/clayton/grive/www.kasrl.org-jaffe.html/1KR.SA1.77.tiff'
p180
I60
tp181
g3
s(S'/home/clayton/grive/www.kasrl.org-jaffe.html/6KR.NE2.72.tiff'
p182
I61
tp183
g3
s(S'/home/clayton/grive/www.kasrl.org-jaffe.html/6NA.NE3.201.tiff'
p184
I75
tp185
g3
s(S'/home/clayton/grive/www.kasrl.org-jaffe.html/1KM.SA2.10.tiff'
p186
I85
tp187
g3
s(S'/home/clayton/grive/www.kasrl.org-jaffe.html/2NA.AN2.212.tiff'
p188
I94
tp189
g3
s(S'/home/clayton/grive/www.kasrl.org-jaffe.html/4TM.FE1.196.tiff'
p190
I97
tp191
g3
s(S'/home/clayton/grive/www.kasrl.org-jaffe.html/2YM.AN3.63.tiff'
p192
I75
tp193
g3
s(S'/home/clayton/grive/www.kasrl.org-jaffe.html/1MK.SA1.119.tiff'
p194
I99
tp195
g3
s(S'/home/clayton/grive/www.kasrl.org-jaffe.html/6NM.NE3.94.tiff'
p196
I64
tp197
g3
s(S'/home/clayton/grive/www.kasrl.org-jaffe.html/5KL.DI4.173.tiff'
p198
I82
tp199
g3
s(S'/home/clayton/grive/www.kasrl.org-jaffe.html/4NA.FE3.219.tiff'
p200
I63
tp201
g3
s(S'/home/clayton/grive/www.kasrl.org-jaffe.html/4YM.FE2.68.tiff'
p202
I65
tp203
g3
s(S'/home/clayton/grive/www.kasrl.org-jaffe.html/2KM.AN2.18.tiff'
p204
I87
tp205
g3
s(S'/home/clayton/grive/www.kasrl.org-jaffe.html/0UY.HA2.138.tiff'
p206
I89
tp207
g3
s(S'/home/clayton/grive/www.kasrl.org-jaffe.html/2TM.AN1.190.tiff'
p208
I74
tp209
g3
s(S'/home/clayton/grive/www.kasrl.org-jaffe.html/5TM.DI1.193.tiff'
p210
I99
tp211
g3
s(S'/home/clayton/grive/www.kasrl.org-jaffe.html/0UY.HA3.139.tiff'
p212
I89
tp213
g3
s(S'/home/clayton/grive/www.kasrl.org-jaffe.html/2YM.AN1.61.tiff'
p214
I77
tp215
g3
s(S'/home/clayton/grive/www.kasrl.org-jaffe.html/1KM.SA5.13.tiff'
p216
I94
tp217
g3
s(S'/home/clayton/grive/www.kasrl.org-jaffe.html/1NM.SA1.98.tiff'
p218
I54
tp219
g3
s(S'/home/clayton/grive/www.kasrl.org-jaffe.html/4KM.FE3.25.tiff'
p220
I76
tp221
g3
s(S'/home/clayton/grive/www.kasrl.org-jaffe.html/3NM.SU1.101.tiff'
p222
I50
tp223
g3
s(S'/home/clayton/grive/www.kasrl.org-jaffe.html/5KM.DI3.22.tiff'
p224
I100
tp225
g3
s(S'/home/clayton/grive/www.kasrl.org-jaffe.html/4YM.FE4.70.tiff'
p226
I68
tp227
g3
s(S'/home/clayton/grive/www.kasrl.org-jaffe.html/5MK.DI3.130.tiff'
p228
I101
tp229
g3
s(S'/home/clayton/grive/www.kasrl.org-jaffe.html/1MK.SA3.121.tiff'
p230
I111
tp231
g3
s(S'/home/clayton/grive/www.kasrl.org-jaffe.html/2TM.AN2.191.tiff'
p232
I69
tp233
g3
s(S'/home/clayton/grive/www.kasrl.org-jaffe.html/1UY.SA3.142.tiff'
p234
I88
tp235
g3
s(S'/home/clayton/grive/www.kasrl.org-jaffe.html/1NA.SA3.207.tiff'
p236
I86
tp237
g3
s(S'/home/clayton/grive/www.kasrl.org-jaffe.html/4NM.FE1.110.tiff'
p238
I52
tp239
g3
s(S'/home/clayton/grive/www.kasrl.org-jaffe.html/2KR.AN1.83.tiff'
p240
I65
tp241
g3
s(S'/home/clayton/grive/www.kasrl.org-jaffe.html/1YM.SA2.56.tiff'
p242
I85
tp243
g3
s(S'/home/clayton/grive/www.kasrl.org-jaffe.html/2KL.AN2.168.tiff'
p244
I85
tp245
g3
s(S'/home/clayton/grive/www.kasrl.org-jaffe.html/4NM.FE3.112.tiff'
p246
I47
tp247
g3
s(S'/home/clayton/grive/www.kasrl.org-jaffe.html/0NA.HA2.203.tiff'
p248
I82
tp249
g3
s(S'/home/clayton/grive/www.kasrl.org-jaffe.html/6TM.NE2.178.tiff'
p250
I84
tp251
g3
s(S'/home/clayton/grive/www.kasrl.org-jaffe.html/4KA.FE4.48.tiff'
p252
I39
tp253
g3
s(S'/home/clayton/grive/www.kasrl.org-jaffe.html/0NM.HA2.96.tiff'
p254
I66
tp255
g3
s(S'/home/clayton/grive/www.kasrl.org-jaffe.html/3KL.SU2.165.tiff'
p256
I56
tp257
g3
s(S'/home/clayton/grive/www.kasrl.org-jaffe.html/3TM.SU1.187.tiff'
p258
I70
tp259
g3
s(S'/home/clayton/grive/www.kasrl.org-jaffe.html/5NA.DI2.215.tiff'
p260
I83
tp261
g3
s(S'/home/clayton/grive/www.kasrl.org-jaffe.html/5KL.DI1.170.tiff'
p262
I84
tp263
g3
s(S'/home/clayton/grive/www.kasrl.org-jaffe.html/2TM.AN3.192.tiff'
p264
I75
tp265
g3
s(S'/home/clayton/grive/www.kasrl.org-jaffe.html/5NA.DI3.216.tiff'
p266
I91
tp267
g3
s(S'/home/clayton/grive/www.kasrl.org-jaffe.html/6KL.NE3.157.tiff'
p268
I85
tp269
g3
s(S'/home/clayton/grive/www.kasrl.org-jaffe.html/2NA.AN3.213.tiff'
p270
I101
tp271
g3
s(S'/home/clayton/grive/www.kasrl.org-jaffe.html/2MK.AN3.127.tiff'
p272
I111
tp273
g3
s(S'/home/clayton/grive/www.kasrl.org-jaffe.html/0NM.HA1.95.tiff'
p274
I61
tp275
g3
s(S'/home/clayton/grive/www.kasrl.org-jaffe.html/1KA.SA3.35.tiff'
p276
I56
tp277
g3
s(S'/home/clayton/grive/www.kasrl.org-jaffe.html/0KA.HA1.29.tiff'
p278
I74
tp279
g3
s(S'/home/clayton/grive/www.kasrl.org-jaffe.html/2MK.AN2.126.tiff'
p280
I109
tp281
g3
s(S'/home/clayton/grive/www.kasrl.org-jaffe.html/6KM.NE1.1.tiff'
p282
I82
tp283
g3
s(S'/home/clayton/grive/www.kasrl.org-jaffe.html/4UY.FE3.154.tiff'
p284
I84
tp285
g3
s(S'/home/clayton/grive/www.kasrl.org-jaffe.html/0KL.HA2.159.tiff'
p286
I83
tp287
g3
s(S'/home/clayton/grive/www.kasrl.org-jaffe.html/2KM.AN3.19.tiff'
p288
I90
tp289
g3
s(S'/home/clayton/grive/www.kasrl.org-jaffe.html/0NM.HA3.97.tiff'
p290
I69
tp291
g3
s(S'/home/clayton/grive/www.kasrl.org-jaffe.html/6TM.NE3.179.tiff'
p292
I86
tp293
g3
s(S'/home/clayton/grive/www.kasrl.org-jaffe.html/6KA.NE1.26.tiff'
p294
I71
tp295
g3
s(S'/home/clayton/grive/www.kasrl.org-jaffe.html/1KM.SA1.9.tiff'
p296
I81
tp297
g3
s(S'/home/clayton/grive/www.kasrl.org-jaffe.html/5KR.DI3.88.tiff'
p298
I64
tp299
g3
s(S'/home/clayton/grive/www.kasrl.org-jaffe.html/1YM.SA3.57.tiff'
p300
I91
tp301
g3
s(S'/home/clayton/grive/www.kasrl.org-jaffe.html/5UY.DI3.151.tiff'
p302
I81
tp303
g3
s(S'/home/clayton/grive/www.kasrl.org-jaffe.html/4KR.FE3.91.tiff'
p304
I55
tp305
g3
s(S'/home/clayton/grive/www.kasrl.org-jaffe.html/3UY.SU2.144.tiff'
p306
I79
tp307
g3
s(S'/home/clayton/grive/www.kasrl.org-jaffe.html/6KL.NE2.156.tiff'
p308
I84
tp309
g3
s(S'/home/clayton/grive/www.kasrl.org-jaffe.html/5KA.DI1.42.tiff'
p310
I76
tp311
g3
s(S'/home/clayton/grive/www.kasrl.org-jaffe.html/2KM.AN1.17.tiff'
p312
I85
tp313
g3
s(S'/home/clayton/grive/www.kasrl.org-jaffe.html/1KA.SA2.34.tiff'
p314
I62
tp315
g3
s(S'/home/clayton/grive/www.kasrl.org-jaffe.html/3YM.SU2.59.tiff'
p316
I50
tp317
g3
s(S'/home/clayton/grive/www.kasrl.org-jaffe.html/6UY.NE2.135.tiff'
p318
I81
tp319
g3
s(S'/home/clayton/grive/www.kasrl.org-jaffe.html/2KR.AN2.84.tiff'
p320
I60
tp321
g3
s(S'/home/clayton/grive/www.kasrl.org-jaffe.html/4KR.FE1.89.tiff'
p322
I57
tp323
g3
s(S'/home/clayton/grive/www.kasrl.org-jaffe.html/5KR.DI1.86.tiff'
p324
I62
tp325
g3
s(S'/home/clayton/grive/www.kasrl.org-jaffe.html/1NM.SA3.100.tiff'
p326
I61
tp327
g3
s(S'/home/clayton/grive/www.kasrl.org-jaffe.html/3NA.SU2.209.tiff'
p328
I74
tp329
g3
s(S'/home/clayton/grive/www.kasrl.org-jaffe.html/3KM.SU2.15.tiff'
p330
I42
tp331
g3
s(S'/home/clayton/grive/www.kasrl.org-jaffe.html/2UY.AN3.148.tiff'
p332
I100
tp333
g3
s(S'/home/clayton/grive/www.kasrl.org-jaffe.html/5YM.DI2.65.tiff'
p334
I102
tp335
g3
s(S'/home/clayton/grive/www.kasrl.org-jaffe.html/1MK.SA2.120.tiff'
p336
I108
tp337
g3
s(S'/home/clayton/grive/www.kasrl.org-jaffe.html/2YM.AN2.62.tiff'
p338
I84
tp339
g3
s(S'/home/clayton/grive/www.kasrl.org-jaffe.html/2NM.AN3.106.tiff'
p340
I79
tp341
g3
s(S'/home/clayton/grive/www.kasrl.org-jaffe.html/3TM.SU3.189.tiff'
p342
I62
tp343
g3
s(S'/home/clayton/grive/www.kasrl.org-jaffe.html/0MK.HA3.118.tiff'
p344
I100
tp345
g3
s(S'/home/clayton/grive/www.kasrl.org-jaffe.html/6UY.NE1.134.tiff'
p346
I87
tp347
g3
s(S'/home/clayton/grive/www.kasrl.org-jaffe.html/0TM.HA3.182.tiff'
p348
I85
tp349
g3
s(S'/home/clayton/grive/www.kasrl.org-jaffe.html/6MK.NE1.113.tiff'
p350
I98
tp351
g3
s(S'/home/clayton/grive/www.kasrl.org-jaffe.html/1KR.SA2.78.tiff'
p352
I57
tp353
g3
s(S'/home/clayton/grive/www.kasrl.org-jaffe.html/3TM.SU2.188.tiff'
p354
I66
tp355
g3
s(S'/home/clayton/grive/www.kasrl.org-jaffe.html/3KM.SU1.14.tiff'
p356
I42
tp357
g3
s(S'/home/clayton/grive/www.kasrl.org-jaffe.html/3NA.SU1.208.tiff'
p358
I65
tp359
g3
s(S'/home/clayton/grive/www.kasrl.org-jaffe.html/3NM.SU2.102.tiff'
p360
I52
tp361
g3
s(S'/home/clayton/grive/www.kasrl.org-jaffe.html/1TM.SA2.185.tiff'
p362
I78
tp363
g3
s(S'/home/clayton/grive/www.kasrl.org-jaffe.html/3KR.SU1.80.tiff'
p364
I49
tp365
g3
s(S'/home/clayton/grive/www.kasrl.org-jaffe.html/0KR.HA2.75.tiff'
p366
I67
tp367
g3
s(S'/home/clayton/grive/www.kasrl.org-jaffe.html/5KL.DI3.172.tiff'
p368
I83
tp369
g3
s(S'/home/clayton/grive/www.kasrl.org-jaffe.html/5KM.DI1.20.tiff'
p370
I100
tp371
g3
s(S'/home/clayton/grive/www.kasrl.org-jaffe.html/2MK.AN1.125.tiff'
p372
I110
tp373
g3
s(S'/home/clayton/grive/www.kasrl.org-jaffe.html/0TM.HA2.181.tiff'
p374
I91
tp375
g3
s(S'/home/clayton/grive/www.kasrl.org-jaffe.html/0NA.HA1.202.tiff'
p376
I76
tp377
g3
s(S'/home/clayton/grive/www.kasrl.org-jaffe.html/5NM.DI3.109.tiff'
p378
I65
tp379
g3
s(S'/home/clayton/grive/www.kasrl.org-jaffe.html/3KA.SU1.36.tiff'
p380
I50
tp381
g3
s(S'/home/clayton/grive/www.kasrl.org-jaffe.html/5KR.DI2.87.tiff'
p382
I64
tp383
g3
s(S'/home/clayton/grive/www.kasrl.org-jaffe.html/1KL.SA2.162.tiff'
p384
I89
tp385
g3
s(S'/home/clayton/grive/www.kasrl.org-jaffe.html/2NA.AN1.211.tiff'
p386
I82
tp387
g3
s(S'/home/clayton/grive/www.kasrl.org-jaffe.html/6NA.NE1.199.tiff'
p388
I78
tp389
g3
s(S'/home/clayton/grive/www.kasrl.org-jaffe.html/0KR.HA1.74.tiff'
p390
I65
tp391
g3
s(S'/home/clayton/grive/www.kasrl.org-jaffe.html/4NA.FE2.218.tiff'
p392
I74
tp393
g3
s(S'/home/clayton/grive/www.kasrl.org-jaffe.html/6YM.NE2.50.tiff'
p394
I73
tp395
g3
s(S'/home/clayton/grive/www.kasrl.org-jaffe.html/3UY.SU1.143.tiff'
p396
I80
tp397
g3
s(S'/home/clayton/grive/www.kasrl.org-jaffe.html/5UY.DI1.149.tiff'
p398
I98
tp399
g3
s(S'/home/clayton/grive/www.kasrl.org-jaffe.html/0YM.HA2.53.tiff'
p400
I103
tp401
g3
s(S'/home/clayton/grive/www.kasrl.org-jaffe.html/3KR.SU2.81.tiff'
p402
I48
tp403
g3
s(S'/home/clayton/grive/www.kasrl.org-jaffe.html/1NM.SA2.99.tiff'
p404
I53
tp405
g3
s(S'/home/clayton/grive/www.kasrl.org-jaffe.html/5YM.DI1.64.tiff'
p406
I103
tp407
g3
s(S'/home/clayton/grive/www.kasrl.org-jaffe.html/4KL.FE3.176.tiff'
p408
I78
tp409
g3
s(S'/home/clayton/grive/www.kasrl.org-jaffe.html/4TM.FE3.198.tiff'
p410
I89
tp411
g3
s(S'/home/clayton/grive/www.kasrl.org-jaffe.html/6KA.NE2.27.tiff'
p412
I71
tp413
g3
s(S'/home/clayton/grive/www.kasrl.org-jaffe.html/3NA.SU3.210.tiff'
p414
I78
tp415
g3
s(S'/home/clayton/grive/www.kasrl.org-jaffe.html/2KA.AN2.40.tiff'
p416
I71
tp417
g3
s(S'/home/clayton/grive/www.kasrl.org-jaffe.html/5KL.DI2.171.tiff'
p418
I86
tp419
g3
s(S'/home/clayton/grive/www.kasrl.org-jaffe.html/3YM.SU1.58.tiff'
p420
I45
tp421
g3
s(S'/home/clayton/grive/www.kasrl.org-jaffe.html/3KM.SU3.16.tiff'
p422
I39
tp423
g3
s(S'/home/clayton/grive/www.kasrl.org-jaffe.html/0KA.HA3.31.tiff'
p424
I69
tp425
g3
s(S'/home/clayton/grive/www.kasrl.org-jaffe.html/0YM.HA1.52.tiff'
p426
I107
tp427
g3
s.