(dp0
(S'/home/clayton/grive/www.kasrl.org-jaffe.html/6YM.NE1.49.tiff'
p1
I70
tp2
S'y'
p3
s(S'/home/clayton/grive/www.kasrl.org-jaffe.html/3KA.SU3.38.tiff'
p4
I44
tp5
g3
s(S'/home/clayton/grive/www.kasrl.org-jaffe.html/1YM.SA1.55.tiff'
p6
I78
tp7
g3
s(S'/home/clayton/grive/www.kasrl.org-jaffe.html/4TM.FE2.197.tiff'
p8
I97
tp9
g3
s(S'/home/clayton/grive/www.kasrl.org-jaffe.html/4KA.FE2.46.tiff'
p10
I61
tp11
g3
s(S'/home/clayton/grive/www.kasrl.org-jaffe.html/4KM.FE2.24.tiff'
p12
I75
tp13
g3
s(S'/home/clayton/grive/www.kasrl.org-jaffe.html/1UY.SA1.140.tiff'
p14
I88
tp15
g3
s(S'/home/clayton/grive/www.kasrl.org-jaffe.html/2TM.AN2.191.tiff'
p16
I69
tp17
g3
s(S'/home/clayton/grive/www.kasrl.org-jaffe.html/5TM.DI3.195.tiff'
p18
I92
tp19
g3
s(S'/home/clayton/grive/www.kasrl.org-jaffe.html/1NA.SA1.205.tiff'
p20
I78
tp21
g3
s(S'/home/clayton/grive/www.kasrl.org-jaffe.html/2KA.AN1.39.tiff'
p22
I88
tp23
g3
s(S'/home/clayton/grive/www.kasrl.org-jaffe.html/5NM.DI1.107.tiff'
p24
I70
tp25
g3
s(S'/home/clayton/grive/www.kasrl.org-jaffe.html/2YM.AN1.61.tiff'
p26
I77
tp27
g3
s(S'/home/clayton/grive/www.kasrl.org-jaffe.html/4NA.FE1.217.tiff'
p28
I80
tp29
g3
s(S'/home/clayton/grive/www.kasrl.org-jaffe.html/6UY.NE1.134.tiff'
p30
I87
tp31
g3
s(S'/home/clayton/grive/www.kasrl.org-jaffe.html/0YM.HA3.54.tiff'
p32
I101
tp33
g3
s(S'/home/clayton/grive/www.kasrl.org-jaffe.html/0KM.HA4.7.tiff'
p34
I95
tp35
g3
s(S'/home/clayton/grive/www.kasrl.org-jaffe.html/3KR.SU3.82.tiff'
p36
I45
tp37
g3
s(S'/home/clayton/grive/www.kasrl.org-jaffe.html/5UY.DI2.150.tiff'
p38
I102
tp39
g3
s(S'/home/clayton/grive/www.kasrl.org-jaffe.html/1UY.SA2.141.tiff'
p40
I88
tp41
g3
s(S'/home/clayton/grive/www.kasrl.org-jaffe.html/3MK.SU2.123.tiff'
p42
I57
tp43
g3
s(S'/home/clayton/grive/www.kasrl.org-jaffe.html/4UY.FE1.152.tiff'
p44
I84
tp45
g3
s(S'/home/clayton/grive/www.kasrl.org-jaffe.html/5KA.DI3.44.tiff'
p46
I82
tp47
g3
s(S'/home/clayton/grive/www.kasrl.org-jaffe.html/2NM.AN2.105.tiff'
p48
I69
tp49
g3
s(S'/home/clayton/grive/www.kasrl.org-jaffe.html/5MK.DI2.129.tiff'
p50
I93
tp51
g3
s(S'/home/clayton/grive/www.kasrl.org-jaffe.html/3NM.SU3.103.tiff'
p52
I59
tp53
g3
s(S'/home/clayton/grive/www.kasrl.org-jaffe.html/1TM.SA3.186.tiff'
p54
I72
tp55
g3
s(S'/home/clayton/grive/www.kasrl.org-jaffe.html/6TM.NE1.177.tiff'
p56
I82
tp57
g3
s(S'/home/clayton/grive/www.kasrl.org-jaffe.html/0KA.HA4.32.tiff'
p58
I50
tp59
g3
s(S'/home/clayton/grive/www.kasrl.org-jaffe.html/1KL.SA1.161.tiff'
p60
I83
tp61
g3
s(S'/home/clayton/grive/www.kasrl.org-jaffe.html/5YM.DI3.66.tiff'
p62
I99
tp63
g3
s(S'/home/clayton/grive/www.kasrl.org-jaffe.html/1KL.SA3.163.tiff'
p64
I92
tp65
g3
s(S'/home/clayton/grive/www.kasrl.org-jaffe.html/4YM.FE1.67.tiff'
p66
I78
tp67
g3
s(S'/home/clayton/grive/www.kasrl.org-jaffe.html/4YM.FE3.69.tiff'
p68
I65
tp69
g3
s(S'/home/clayton/grive/www.kasrl.org-jaffe.html/0KM.HA3.6.tiff'
p70
I78
tp71
g3
s(S'/home/clayton/grive/www.kasrl.org-jaffe.html/3YM.SU3.60.tiff'
p72
I40
tp73
g3
s(S'/home/clayton/grive/www.kasrl.org-jaffe.html/4KM.FE1.23.tiff'
p74
I76
tp75
g3
s(S'/home/clayton/grive/www.kasrl.org-jaffe.html/4NM.FE2.111.tiff'
p76
I56
tp77
g3
s(S'/home/clayton/grive/www.kasrl.org-jaffe.html/0NA.HA3.204.tiff'
p78
I89
tp79
g3
s(S'/home/clayton/grive/www.kasrl.org-jaffe.html/4MK.FE3.133.tiff'
p80
I70
tp81
g3
s(S'/home/clayton/grive/www.kasrl.org-jaffe.html/6NA.NE2.200.tiff'
p82
I80
tp83
g3
s(S'/home/clayton/grive/www.kasrl.org-jaffe.html/0UY.HA1.137.tiff'
p84
I89
tp85
g3
s(S'/home/clayton/grive/www.kasrl.org-jaffe.html/4YM.FE2.68.tiff'
p86
I65
tp87
g3
s(S'/home/clayton/grive/www.kasrl.org-jaffe.html/3KA.SU2.37.tiff'
p88
I53
tp89
g3
s(S'/home/clayton/grive/www.kasrl.org-jaffe.html/0KA.HA2.30.tiff'
p90
I72
tp91
g3
s(S'/home/clayton/grive/www.kasrl.org-jaffe.html/0NM.HA2.96.tiff'
p92
I66
tp93
g3
s(S'/home/clayton/grive/www.kasrl.org-jaffe.html/2UY.AN1.146.tiff'
p94
I99
tp95
g3
s(S'/home/clayton/grive/www.kasrl.org-jaffe.html/4KR.FE2.90.tiff'
p96
I62
tp97
g3
s(S'/home/clayton/grive/www.kasrl.org-jaffe.html/4KA.FE3.47.tiff'
p98
I58
tp99
g3
s(S'/home/clayton/grive/www.kasrl.org-jaffe.html/2KL.AN3.169.tiff'
p100
I87
tp101
g3
s(S'/home/clayton/grive/www.kasrl.org-jaffe.html/5MK.DI1.128.tiff'
p102
I111
tp103
g3
s(S'/home/clayton/grive/www.kasrl.org-jaffe.html/5KA.DI2.43.tiff'
p104
I72
tp105
g3
s(S'/home/clayton/grive/www.kasrl.org-jaffe.html/6KA.NE3.28.tiff'
p106
I77
tp107
g3
s(S'/home/clayton/grive/www.kasrl.org-jaffe.html/0MK.HA2.117.tiff'
p108
I99
tp109
g3
s(S'/home/clayton/grive/www.kasrl.org-jaffe.html/0KM.HA2.5.tiff'
p110
I91
tp111
g3
s(S'/home/clayton/grive/www.kasrl.org-jaffe.html/4KL.FE1.174.tiff'
p112
I75
tp113
g3
s(S'/home/clayton/grive/www.kasrl.org-jaffe.html/5TM.DI1.193.tiff'
p114
I99
tp115
g3
s(S'/home/clayton/grive/www.kasrl.org-jaffe.html/3UY.SU3.145.tiff'
p116
I77
tp117
g3
s(S'/home/clayton/grive/www.kasrl.org-jaffe.html/1KM.SA1.9.tiff'
p118
I81
tp119
g3
s(S'/home/clayton/grive/www.kasrl.org-jaffe.html/2NM.AN1.104.tiff'
p120
I64
tp121
g3
s(S'/home/clayton/grive/www.kasrl.org-jaffe.html/0MK.HA1.116.tiff'
p122
I105
tp123
g3
s(S'/home/clayton/grive/www.kasrl.org-jaffe.html/6MK.NE2.114.tiff'
p124
I105
tp125
g3
s(S'/home/clayton/grive/www.kasrl.org-jaffe.html/6MK.NE3.115.tiff'
p126
I107
tp127
g3
s(S'/home/clayton/grive/www.kasrl.org-jaffe.html/0TM.HA2.181.tiff'
p128
I91
tp129
g3
s(S'/home/clayton/grive/www.kasrl.org-jaffe.html/3KL.SU1.164.tiff'
p130
I54
tp131
g3
s(S'/home/clayton/grive/www.kasrl.org-jaffe.html/6UY.NE3.136.tiff'
p132
I81
tp133
g3
s(S'/home/clayton/grive/www.kasrl.org-jaffe.html/3MK.SU3.124.tiff'
p134
I69
tp135
g3
s(S'/home/clayton/grive/www.kasrl.org-jaffe.html/1KM.SA3.11.tiff'
p136
I81
tp137
g3
s(S'/home/clayton/grive/www.kasrl.org-jaffe.html/2KA.AN3.41.tiff'
p138
I81
tp139
g3
s(S'/home/clayton/grive/www.kasrl.org-jaffe.html/6KR.NE1.71.tiff'
p140
I58
tp141
g3
s(S'/home/clayton/grive/www.kasrl.org-jaffe.html/6KL.NE1.155.tiff'
p142
I78
tp143
g3
s(S'/home/clayton/grive/www.kasrl.org-jaffe.html/2UY.AN2.147.tiff'
p144
I106
tp145
g3
s(S'/home/clayton/grive/www.kasrl.org-jaffe.html/1KM.SA5.13.tiff'
p146
I94
tp147
g3
s(S'/home/clayton/grive/www.kasrl.org-jaffe.html/1KA.SA1.33.tiff'
p148
I69
tp149
g3
s(S'/home/clayton/grive/www.kasrl.org-jaffe.html/2KR.AN3.85.tiff'
p150
I60
tp151
g3
s(S'/home/clayton/grive/www.kasrl.org-jaffe.html/3KL.SU3.166.tiff'
p152
I61
tp153
g3
s(S'/home/clayton/grive/www.kasrl.org-jaffe.html/4MK.FE2.132.tiff'
p154
I77
tp155
g3
s(S'/home/clayton/grive/www.kasrl.org-jaffe.html/6KM.NE3.3.tiff'
p156
I77
tp157
g3
s(S'/home/clayton/grive/www.kasrl.org-jaffe.html/0YM.HA1.52.tiff'
p158
I107
tp159
g3
s(S'/home/clayton/grive/www.kasrl.org-jaffe.html/0KM.HA1.4.tiff'
p160
I85
tp161
g3
s(S'/home/clayton/grive/www.kasrl.org-jaffe.html/3MK.SU1.122.tiff'
p162
I60
tp163
g3
s(S'/home/clayton/grive/www.kasrl.org-jaffe.html/1NM.SA2.99.tiff'
p164
I53
tp165
g3
s(S'/home/clayton/grive/www.kasrl.org-jaffe.html/4UY.FE2.153.tiff'
p166
I75
tp167
g3
s(S'/home/clayton/grive/www.kasrl.org-jaffe.html/6KR.NE3.73.tiff'
p168
I64
tp169
g3
s(S'/home/clayton/grive/www.kasrl.org-jaffe.html/5UY.DI3.151.tiff'
p170
I81
tp171
g3
s(S'/home/clayton/grive/www.kasrl.org-jaffe.html/6KM.NE2.2.tiff'
p172
I80
tp173
g3
s(S'/home/clayton/grive/www.kasrl.org-jaffe.html/1KR.SA3.79.tiff'
p174
I70
tp175
g3
s(S'/home/clayton/grive/www.kasrl.org-jaffe.html/1NA.SA2.206.tiff'
p176
I82
tp177
g3
s(S'/home/clayton/grive/www.kasrl.org-jaffe.html/6YM.NE3.51.tiff'
p178
I75
tp179
g3
s(S'/home/clayton/grive/www.kasrl.org-jaffe.html/5TM.DI2.194.tiff'
p180
I98
tp181
g3
s(S'/home/clayton/grive/www.kasrl.org-jaffe.html/0TM.HA1.180.tiff'
p182
I93
tp183
g3
s(S'/home/clayton/grive/www.kasrl.org-jaffe.html/4KL.FE2.175.tiff'
p184
I82
tp185
g3
s(S'/home/clayton/grive/www.kasrl.org-jaffe.html/1KR.SA1.77.tiff'
p186
I60
tp187
g3
s(S'/home/clayton/grive/www.kasrl.org-jaffe.html/6KR.NE2.72.tiff'
p188
I61
tp189
g3
s(S'/home/clayton/grive/www.kasrl.org-jaffe.html/6NA.NE3.201.tiff'
p190
I75
tp191
g3
s(S'/home/clayton/grive/www.kasrl.org-jaffe.html/1KM.SA2.10.tiff'
p192
I85
tp193
g3
s(S'/home/clayton/grive/www.kasrl.org-jaffe.html/2NA.AN2.212.tiff'
p194
I94
tp195
g3
s(S'/home/clayton/grive/www.kasrl.org-jaffe.html/4TM.FE1.196.tiff'
p196
I97
tp197
g3
s(S'/home/clayton/grive/www.kasrl.org-jaffe.html/2YM.AN3.63.tiff'
p198
I75
tp199
g3
s(S'/home/clayton/grive/www.kasrl.org-jaffe.html/1MK.SA1.119.tiff'
p200
I99
tp201
g3
s(S'/home/clayton/grive/www.kasrl.org-jaffe.html/6NM.NE3.94.tiff'
p202
I64
tp203
g3
s(S'/home/clayton/grive/www.kasrl.org-jaffe.html/5KL.DI4.173.tiff'
p204
I82
tp205
g3
s(S'/home/clayton/grive/www.kasrl.org-jaffe.html/4NA.FE3.219.tiff'
p206
I63
tp207
g3
s(S'/home/clayton/grive/www.kasrl.org-jaffe.html/1TM.SA1.184.tiff'
p208
I81
tp209
g3
s(S'/home/clayton/grive/www.kasrl.org-jaffe.html/6NA.NE1.199.tiff'
p210
I78
tp211
g3
s(S'/home/clayton/grive/www.kasrl.org-jaffe.html/0UY.HA2.138.tiff'
p212
I89
tp213
g3
s(S'/home/clayton/grive/www.kasrl.org-jaffe.html/2TM.AN1.190.tiff'
p214
I74
tp215
g3
s(S'/home/clayton/grive/www.kasrl.org-jaffe.html/4MK.FE2.131.tiff'
p216
I78
tp217
g3
s(S'/home/clayton/grive/www.kasrl.org-jaffe.html/0UY.HA3.139.tiff'
p218
I89
tp219
g3
s(S'/home/clayton/grive/www.kasrl.org-jaffe.html/0KL.HA1.158.tiff'
p220
I80
tp221
g3
s(S'/home/clayton/grive/www.kasrl.org-jaffe.html/5NA.DI1.214.tiff'
p222
I82
tp223
g3
s(S'/home/clayton/grive/www.kasrl.org-jaffe.html/3KM.SU3.16.tiff'
p224
I39
tp225
g3
s(S'/home/clayton/grive/www.kasrl.org-jaffe.html/4KM.FE3.25.tiff'
p226
I76
tp227
g3
s(S'/home/clayton/grive/www.kasrl.org-jaffe.html/5KM.DI3.22.tiff'
p228
I100
tp229
g3
s(S'/home/clayton/grive/www.kasrl.org-jaffe.html/4YM.FE4.70.tiff'
p230
I68
tp231
g3
s(S'/home/clayton/grive/www.kasrl.org-jaffe.html/5MK.DI3.130.tiff'
p232
I101
tp233
g3
s(S'/home/clayton/grive/www.kasrl.org-jaffe.html/1MK.SA3.121.tiff'
p234
I111
tp235
g3
s(S'/home/clayton/grive/www.kasrl.org-jaffe.html/2KM.AN2.18.tiff'
p236
I87
tp237
g3
s(S'/home/clayton/grive/www.kasrl.org-jaffe.html/1UY.SA3.142.tiff'
p238
I88
tp239
g3
s(S'/home/clayton/grive/www.kasrl.org-jaffe.html/1NA.SA3.207.tiff'
p240
I86
tp241
g3
s(S'/home/clayton/grive/www.kasrl.org-jaffe.html/4NM.FE1.110.tiff'
p242
I52
tp243
g3
s(S'/home/clayton/grive/www.kasrl.org-jaffe.html/2KR.AN1.83.tiff'
p244
I65
tp245
g3
s(S'/home/clayton/grive/www.kasrl.org-jaffe.html/1YM.SA2.56.tiff'
p246
I85
tp247
g3
s(S'/home/clayton/grive/www.kasrl.org-jaffe.html/2KL.AN2.168.tiff'
p248
I85
tp249
g3
s(S'/home/clayton/grive/www.kasrl.org-jaffe.html/4NM.FE3.112.tiff'
p250
I47
tp251
g3
s(S'/home/clayton/grive/www.kasrl.org-jaffe.html/0NA.HA2.203.tiff'
p252
I82
tp253
g3
s(S'/home/clayton/grive/www.kasrl.org-jaffe.html/6TM.NE2.178.tiff'
p254
I84
tp255
g3
s(S'/home/clayton/grive/www.kasrl.org-jaffe.html/4KA.FE4.48.tiff'
p256
I39
tp257
g3
s(S'/home/clayton/grive/www.kasrl.org-jaffe.html/0TM.HA3.182.tiff'
p258
I85
tp259
g3
s(S'/home/clayton/grive/www.kasrl.org-jaffe.html/3KL.SU2.165.tiff'
p260
I56
tp261
g3
s(S'/home/clayton/grive/www.kasrl.org-jaffe.html/5NA.DI2.215.tiff'
p262
I83
tp263
g3
s(S'/home/clayton/grive/www.kasrl.org-jaffe.html/5KL.DI1.170.tiff'
p264
I84
tp265
g3
s(S'/home/clayton/grive/www.kasrl.org-jaffe.html/2TM.AN3.192.tiff'
p266
I75
tp267
g3
s(S'/home/clayton/grive/www.kasrl.org-jaffe.html/5NA.DI3.216.tiff'
p268
I91
tp269
g3
s(S'/home/clayton/grive/www.kasrl.org-jaffe.html/6KL.NE3.157.tiff'
p270
I85
tp271
g3
s(S'/home/clayton/grive/www.kasrl.org-jaffe.html/2NA.AN3.213.tiff'
p272
I101
tp273
g3
s(S'/home/clayton/grive/www.kasrl.org-jaffe.html/2MK.AN3.127.tiff'
p274
I111
tp275
g3
s(S'/home/clayton/grive/www.kasrl.org-jaffe.html/5KA.DI1.42.tiff'
p276
I76
tp277
g3
s(S'/home/clayton/grive/www.kasrl.org-jaffe.html/0NM.HA1.95.tiff'
p278
I61
tp279
g3
s(S'/home/clayton/grive/www.kasrl.org-jaffe.html/5UY.DI1.149.tiff'
p280
I98
tp281
g3
s(S'/home/clayton/grive/www.kasrl.org-jaffe.html/1KA.SA3.35.tiff'
p282
I56
tp283
g3
s(S'/home/clayton/grive/www.kasrl.org-jaffe.html/0KA.HA1.29.tiff'
p284
I74
tp285
g3
s(S'/home/clayton/grive/www.kasrl.org-jaffe.html/2MK.AN2.126.tiff'
p286
I109
tp287
g3
s(S'/home/clayton/grive/www.kasrl.org-jaffe.html/6KM.NE1.1.tiff'
p288
I82
tp289
g3
s(S'/home/clayton/grive/www.kasrl.org-jaffe.html/4UY.FE3.154.tiff'
p290
I84
tp291
g3
s(S'/home/clayton/grive/www.kasrl.org-jaffe.html/0KL.HA2.159.tiff'
p292
I83
tp293
g3
s(S'/home/clayton/grive/www.kasrl.org-jaffe.html/2KM.AN3.19.tiff'
p294
I90
tp295
g3
s(S'/home/clayton/grive/www.kasrl.org-jaffe.html/0NM.HA3.97.tiff'
p296
I69
tp297
g3
s(S'/home/clayton/grive/www.kasrl.org-jaffe.html/6TM.NE3.179.tiff'
p298
I86
tp299
g3
s(S'/home/clayton/grive/www.kasrl.org-jaffe.html/6KA.NE1.26.tiff'
p300
I71
tp301
g3
s(S'/home/clayton/grive/www.kasrl.org-jaffe.html/4KA.FE1.45.tiff'
p302
I54
tp303
g3
s(S'/home/clayton/grive/www.kasrl.org-jaffe.html/5KR.DI3.88.tiff'
p304
I64
tp305
g3
s(S'/home/clayton/grive/www.kasrl.org-jaffe.html/6NM.NE2.93.tiff'
p306
I70
tp307
g3
s(S'/home/clayton/grive/www.kasrl.org-jaffe.html/4KR.FE3.91.tiff'
p308
I55
tp309
g3
s(S'/home/clayton/grive/www.kasrl.org-jaffe.html/3UY.SU2.144.tiff'
p310
I79
tp311
g3
s(S'/home/clayton/grive/www.kasrl.org-jaffe.html/6KL.NE2.156.tiff'
p312
I84
tp313
g3
s(S'/home/clayton/grive/www.kasrl.org-jaffe.html/1YM.SA3.57.tiff'
p314
I91
tp315
g3
s(S'/home/clayton/grive/www.kasrl.org-jaffe.html/2KM.AN1.17.tiff'
p316
I85
tp317
g3
s(S'/home/clayton/grive/www.kasrl.org-jaffe.html/1KL.SA2.162.tiff'
p318
I89
tp319
g3
s(S'/home/clayton/grive/www.kasrl.org-jaffe.html/3YM.SU2.59.tiff'
p320
I50
tp321
g3
s(S'/home/clayton/grive/www.kasrl.org-jaffe.html/6UY.NE2.135.tiff'
p322
I81
tp323
g3
s(S'/home/clayton/grive/www.kasrl.org-jaffe.html/2KR.AN2.84.tiff'
p324
I60
tp325
g3
s(S'/home/clayton/grive/www.kasrl.org-jaffe.html/1NM.SA1.98.tiff'
p326
I54
tp327
g3
s(S'/home/clayton/grive/www.kasrl.org-jaffe.html/4KR.FE1.89.tiff'
p328
I57
tp329
g3
s(S'/home/clayton/grive/www.kasrl.org-jaffe.html/5KR.DI1.86.tiff'
p330
I62
tp331
g3
s(S'/home/clayton/grive/www.kasrl.org-jaffe.html/1KA.SA2.34.tiff'
p332
I62
tp333
g3
s(S'/home/clayton/grive/www.kasrl.org-jaffe.html/1NM.SA3.100.tiff'
p334
I61
tp335
g3
s(S'/home/clayton/grive/www.kasrl.org-jaffe.html/3NA.SU2.209.tiff'
p336
I74
tp337
g3
s(S'/home/clayton/grive/www.kasrl.org-jaffe.html/3KM.SU2.15.tiff'
p338
I42
tp339
g3
s(S'/home/clayton/grive/www.kasrl.org-jaffe.html/2UY.AN3.148.tiff'
p340
I100
tp341
g3
s(S'/home/clayton/grive/www.kasrl.org-jaffe.html/5YM.DI2.65.tiff'
p342
I102
tp343
g3
s(S'/home/clayton/grive/www.kasrl.org-jaffe.html/2YM.AN2.62.tiff'
p344
I84
tp345
g3
s(S'/home/clayton/grive/www.kasrl.org-jaffe.html/2NM.AN3.106.tiff'
p346
I79
tp347
g3
s(S'/home/clayton/grive/www.kasrl.org-jaffe.html/3TM.SU3.189.tiff'
p348
I62
tp349
g3
s(S'/home/clayton/grive/www.kasrl.org-jaffe.html/0MK.HA3.118.tiff'
p350
I100
tp351
g3
s(S'/home/clayton/grive/www.kasrl.org-jaffe.html/6MK.NE1.113.tiff'
p352
I98
tp353
g3
s(S'/home/clayton/grive/www.kasrl.org-jaffe.html/1KR.SA2.78.tiff'
p354
I57
tp355
g3
s(S'/home/clayton/grive/www.kasrl.org-jaffe.html/3TM.SU2.188.tiff'
p356
I66
tp357
g3
s(S'/home/clayton/grive/www.kasrl.org-jaffe.html/4KL.FE3.176.tiff'
p358
I78
tp359
g3
s(S'/home/clayton/grive/www.kasrl.org-jaffe.html/3KM.SU1.14.tiff'
p360
I42
tp361
g3
s(S'/home/clayton/grive/www.kasrl.org-jaffe.html/3NA.SU1.208.tiff'
p362
I65
tp363
g3
s(S'/home/clayton/grive/www.kasrl.org-jaffe.html/3NM.SU2.102.tiff'
p364
I52
tp365
g3
s(S'/home/clayton/grive/www.kasrl.org-jaffe.html/1TM.SA2.185.tiff'
p366
I78
tp367
g3
s(S'/home/clayton/grive/www.kasrl.org-jaffe.html/3KR.SU1.80.tiff'
p368
I49
tp369
g3
s(S'/home/clayton/grive/www.kasrl.org-jaffe.html/0KR.HA2.75.tiff'
p370
I67
tp371
g3
s(S'/home/clayton/grive/www.kasrl.org-jaffe.html/5KM.DI1.20.tiff'
p372
I100
tp373
g3
s(S'/home/clayton/grive/www.kasrl.org-jaffe.html/2MK.AN1.125.tiff'
p374
I110
tp375
g3
s(S'/home/clayton/grive/www.kasrl.org-jaffe.html/6NM.NE1.92.tiff'
p376
I68
tp377
g3
s(S'/home/clayton/grive/www.kasrl.org-jaffe.html/0NA.HA1.202.tiff'
p378
I76
tp379
g3
s(S'/home/clayton/grive/www.kasrl.org-jaffe.html/3YM.SU1.58.tiff'
p380
I45
tp381
g3
s(S'/home/clayton/grive/www.kasrl.org-jaffe.html/3KA.SU1.36.tiff'
p382
I50
tp383
g3
s(S'/home/clayton/grive/www.kasrl.org-jaffe.html/5KR.DI2.87.tiff'
p384
I64
tp385
g3
s(S'/home/clayton/grive/www.kasrl.org-jaffe.html/0KL.HA3.160.tiff'
p386
I88
tp387
g3
s(S'/home/clayton/grive/www.kasrl.org-jaffe.html/2NA.AN1.211.tiff'
p388
I82
tp389
g3
s(S'/home/clayton/grive/www.kasrl.org-jaffe.html/0KR.HA1.74.tiff'
p390
I65
tp391
g3
s(S'/home/clayton/grive/www.kasrl.org-jaffe.html/4NA.FE2.218.tiff'
p392
I74
tp393
g3
s(S'/home/clayton/grive/www.kasrl.org-jaffe.html/6YM.NE2.50.tiff'
p394
I73
tp395
g3
s(S'/home/clayton/grive/www.kasrl.org-jaffe.html/3UY.SU1.143.tiff'
p396
I80
tp397
g3
s(S'/home/clayton/grive/www.kasrl.org-jaffe.html/3NM.SU1.101.tiff'
p398
I50
tp399
g3
s(S'/home/clayton/grive/www.kasrl.org-jaffe.html/0YM.HA2.53.tiff'
p400
I103
tp401
g3
s(S'/home/clayton/grive/www.kasrl.org-jaffe.html/3KR.SU2.81.tiff'
p402
I48
tp403
g3
s(S'/home/clayton/grive/www.kasrl.org-jaffe.html/5KL.DI3.172.tiff'
p404
I83
tp405
g3
s(S'/home/clayton/grive/www.kasrl.org-jaffe.html/5YM.DI1.64.tiff'
p406
I103
tp407
g3
s(S'/home/clayton/grive/www.kasrl.org-jaffe.html/1MK.SA2.120.tiff'
p408
I108
tp409
g3
s(S'/home/clayton/grive/www.kasrl.org-jaffe.html/4TM.FE3.198.tiff'
p410
I89
tp411
g3
s(S'/home/clayton/grive/www.kasrl.org-jaffe.html/6KA.NE2.27.tiff'
p412
I71
tp413
g3
s(S'/home/clayton/grive/www.kasrl.org-jaffe.html/3NA.SU3.210.tiff'
p414
I78
tp415
g3
s(S'/home/clayton/grive/www.kasrl.org-jaffe.html/2KA.AN2.40.tiff'
p416
I71
tp417
g3
s(S'/home/clayton/grive/www.kasrl.org-jaffe.html/5KL.DI2.171.tiff'
p418
I86
tp419
g3
s(S'/home/clayton/grive/www.kasrl.org-jaffe.html/5NM.DI3.109.tiff'
p420
I65
tp421
g3
s(S'/home/clayton/grive/www.kasrl.org-jaffe.html/3TM.SU1.187.tiff'
p422
I70
tp423
g3
s(S'/home/clayton/grive/www.kasrl.org-jaffe.html/0KA.HA3.31.tiff'
p424
I69
tp425
g3
s(S'/home/clayton/grive/www.kasrl.org-jaffe.html/2KL.AN1.167.tiff'
p426
I86
tp427
g3
s.