(dp0
(S'/home/clayton/grive/www.cs.cmu.edu-afs-cs.cmu.edu-user-mitchell-ftp-faces.html/6saavik_straight_neutral_sunglasses.pgm'
p1
I32
tp2
S'y'
p3
s(S'/home/clayton/grive/www.cs.cmu.edu-afs-cs.cmu.edu-user-mitchell-ftp-faces.html/0danieln_straight_happy_open.pgm'
p4
I81
tp5
g3
s(S'/home/clayton/grive/www.cs.cmu.edu-afs-cs.cmu.edu-user-mitchell-ftp-faces.html/6bpm_straight_neutral_sunglasses.pgm'
p6
I13
tp7
g3
s(S'/home/clayton/grive/www.cs.cmu.edu-afs-cs.cmu.edu-user-mitchell-ftp-faces.html/6cheyer_straight_neutral_open.pgm'
p8
I103
tp9
g3
s(S'/home/clayton/grive/www.cs.cmu.edu-afs-cs.cmu.edu-user-mitchell-ftp-faces.html/6glickman_straight_neutral_sunglasses.pgm'
p10
I70
tp11
g3
s(S'/home/clayton/grive/www.cs.cmu.edu-afs-cs.cmu.edu-user-mitchell-ftp-faces.html/6kawamura_straight_neutral_open.pgm'
p12
I38
tp13
g3
s(S'/home/clayton/grive/www.cs.cmu.edu-afs-cs.cmu.edu-user-mitchell-ftp-faces.html/1boland_straight_sad_sunglasses.pgm'
p14
I16
tp15
g3
s(S'/home/clayton/grive/www.cs.cmu.edu-afs-cs.cmu.edu-user-mitchell-ftp-faces.html/1kawamura_straight_sad_sunglasses.pgm'
p16
I19
tp17
g3
s(S'/home/clayton/grive/www.cs.cmu.edu-afs-cs.cmu.edu-user-mitchell-ftp-faces.html/6tammo_straight_neutral_open.pgm'
p18
I96
tp19
g3
s(S'/home/clayton/grive/www.cs.cmu.edu-afs-cs.cmu.edu-user-mitchell-ftp-faces.html/1danieln_straight_sad_open.pgm'
p20
I64
tp21
g3
s(S'/home/clayton/grive/www.cs.cmu.edu-afs-cs.cmu.edu-user-mitchell-ftp-faces.html/6steffi_straight_neutral_sunglasses.pgm'
p22
I14
tp23
g3
s(S'/home/clayton/grive/www.cs.cmu.edu-afs-cs.cmu.edu-user-mitchell-ftp-faces.html/6mitchell_straight_neutral_sunglasses.pgm'
p24
I30
tp25
g3
s(S'/home/clayton/grive/www.cs.cmu.edu-afs-cs.cmu.edu-user-mitchell-ftp-faces.html/6at33_straight_neutral_sunglasses.pgm'
p26
I37
tp27
g3
s(S'/home/clayton/grive/www.cs.cmu.edu-afs-cs.cmu.edu-user-mitchell-ftp-faces.html/6karyadi_straight_neutral_open.pgm'
p28
I53
tp29
g3
s(S'/home/clayton/grive/www.cs.cmu.edu-afs-cs.cmu.edu-user-mitchell-ftp-faces.html/0cheyer_straight_happy_open.pgm'
p30
I6
tp31
g3
s(S'/home/clayton/grive/www.cs.cmu.edu-afs-cs.cmu.edu-user-mitchell-ftp-faces.html/2tammo_straight_angry_sunglasses.pgm'
p32
I5
tp33
g3
s(S'/home/clayton/grive/www.cs.cmu.edu-afs-cs.cmu.edu-user-mitchell-ftp-faces.html/1cheyer_straight_sad_open.pgm'
p34
I79
tp35
g3
s(S'/home/clayton/grive/www.cs.cmu.edu-afs-cs.cmu.edu-user-mitchell-ftp-faces.html/1kk49_straight_sad_open.pgm'
p36
I123
tp37
g3
s(S'/home/clayton/grive/www.cs.cmu.edu-afs-cs.cmu.edu-user-mitchell-ftp-faces.html/6glickman_straight_neutral_open.pgm'
p38
I105
tp39
g3
s(S'/home/clayton/grive/www.cs.cmu.edu-afs-cs.cmu.edu-user-mitchell-ftp-faces.html/6an2i_straight_neutral_open.pgm'
p40
I37
tp41
g3
s(S'/home/clayton/grive/www.cs.cmu.edu-afs-cs.cmu.edu-user-mitchell-ftp-faces.html/2choon_straight_angry_sunglasses.pgm'
p42
I18
tp43
g3
s(S'/home/clayton/grive/www.cs.cmu.edu-afs-cs.cmu.edu-user-mitchell-ftp-faces.html/0sz24_straight_happy_sunglasses.pgm'
p44
I39
tp45
g3
s(S'/home/clayton/grive/www.cs.cmu.edu-afs-cs.cmu.edu-user-mitchell-ftp-faces.html/0cheyer_straight_happy_sunglasses.pgm'
p46
I10
tp47
g3
s(S'/home/clayton/grive/www.cs.cmu.edu-afs-cs.cmu.edu-user-mitchell-ftp-faces.html/0kawamura_straight_happy_sunglasses.pgm'
p48
I22
tp49
g3
s(S'/home/clayton/grive/www.cs.cmu.edu-afs-cs.cmu.edu-user-mitchell-ftp-faces.html/2phoebe_straight_angry_open.pgm'
p50
I62
tp51
g3
s(S'/home/clayton/grive/www.cs.cmu.edu-afs-cs.cmu.edu-user-mitchell-ftp-faces.html/2sz24_straight_angry_open.pgm'
p52
I122
tp53
g3
s(S'/home/clayton/grive/www.cs.cmu.edu-afs-cs.cmu.edu-user-mitchell-ftp-faces.html/0kk49_straight_happy_open.pgm'
p54
I127
tp55
g3
s(S'/home/clayton/grive/www.cs.cmu.edu-afs-cs.cmu.edu-user-mitchell-ftp-faces.html/0mitchell_straight_happy_sunglasses.pgm'
p56
I28
tp57
g3
s(S'/home/clayton/grive/www.cs.cmu.edu-afs-cs.cmu.edu-user-mitchell-ftp-faces.html/0steffi_straight_happy_open.pgm'
p58
I58
tp59
g3
s(S'/home/clayton/grive/www.cs.cmu.edu-afs-cs.cmu.edu-user-mitchell-ftp-faces.html/2megak_straight_angry_open.pgm'
p60
I104
tp61
g3
s(S'/home/clayton/grive/www.cs.cmu.edu-afs-cs.cmu.edu-user-mitchell-ftp-faces.html/0mitchell_straight_happy_open.pgm'
p62
I93
tp63
g3
s(S'/home/clayton/grive/www.cs.cmu.edu-afs-cs.cmu.edu-user-mitchell-ftp-faces.html/0night_straight_happy_sunglasses.pgm'
p64
I46
tp65
g3
s(S'/home/clayton/grive/www.cs.cmu.edu-afs-cs.cmu.edu-user-mitchell-ftp-faces.html/6sz24_straight_neutral_sunglasses.pgm'
p66
I50
tp67
g3
s(S'/home/clayton/grive/www.cs.cmu.edu-afs-cs.cmu.edu-user-mitchell-ftp-faces.html/1steffi_straight_sad_sunglasses.pgm'
p68
I20
tp69
g3
s(S'/home/clayton/grive/www.cs.cmu.edu-afs-cs.cmu.edu-user-mitchell-ftp-faces.html/1kawamura_straight_sad_open.pgm'
p70
I35
tp71
g3
s(S'/home/clayton/grive/www.cs.cmu.edu-afs-cs.cmu.edu-user-mitchell-ftp-faces.html/2sz24_straight_angry_sunglasses.pgm'
p72
I48
tp73
g3
s(S'/home/clayton/grive/www.cs.cmu.edu-afs-cs.cmu.edu-user-mitchell-ftp-faces.html/6ch4f_straight_neutral_open.pgm'
p74
I78
tp75
g3
s(S'/home/clayton/grive/www.cs.cmu.edu-afs-cs.cmu.edu-user-mitchell-ftp-faces.html/0glickman_straight_happy_sunglasses.pgm'
p76
I59
tp77
g3
s(S'/home/clayton/grive/www.cs.cmu.edu-afs-cs.cmu.edu-user-mitchell-ftp-faces.html/1saavik_straight_sad_sunglasses.pgm'
p78
I27
tp79
g3
s(S'/home/clayton/grive/www.cs.cmu.edu-afs-cs.cmu.edu-user-mitchell-ftp-faces.html/0saavik_straight_happy_sunglasses.pgm'
p80
I42
tp81
g3
s(S'/home/clayton/grive/www.cs.cmu.edu-afs-cs.cmu.edu-user-mitchell-ftp-faces.html/6ch4f_straight_neutral_sunglasses.pgm'
p82
I38
tp83
g3
s(S'/home/clayton/grive/www.cs.cmu.edu-afs-cs.cmu.edu-user-mitchell-ftp-faces.html/0boland_straight_happy_open.pgm'
p84
I75
tp85
g3
s(S'/home/clayton/grive/www.cs.cmu.edu-afs-cs.cmu.edu-user-mitchell-ftp-faces.html/6kawamura_straight_neutral_sunglasses.pgm'
p86
I18
tp87
g3
s(S'/home/clayton/grive/www.cs.cmu.edu-afs-cs.cmu.edu-user-mitchell-ftp-faces.html/1choon_straight_sad_sunglasses.pgm'
p88
I11
tp89
g3
s(S'/home/clayton/grive/www.cs.cmu.edu-afs-cs.cmu.edu-user-mitchell-ftp-faces.html/1ch4f_straight_sad_sunglasses.pgm'
p90
I33
tp91
g3
s(S'/home/clayton/grive/www.cs.cmu.edu-afs-cs.cmu.edu-user-mitchell-ftp-faces.html/1mitchell_straight_sad_sunglasses.pgm'
p92
I24
tp93
g3
s(S'/home/clayton/grive/www.cs.cmu.edu-afs-cs.cmu.edu-user-mitchell-ftp-faces.html/1phoebe_straight_sad_sunglasses.pgm'
p94
I7
tp95
g3
s(S'/home/clayton/grive/www.cs.cmu.edu-afs-cs.cmu.edu-user-mitchell-ftp-faces.html/2saavik_straight_angry_sunglasses.pgm'
p96
I34
tp97
g3
s(S'/home/clayton/grive/www.cs.cmu.edu-afs-cs.cmu.edu-user-mitchell-ftp-faces.html/0bpm_straight_happy_sunglasses.pgm'
p98
I14
tp99
g3
s(S'/home/clayton/grive/www.cs.cmu.edu-afs-cs.cmu.edu-user-mitchell-ftp-faces.html/2bpm_straight_angry_open.pgm'
p100
I46
tp101
g3
s(S'/home/clayton/grive/www.cs.cmu.edu-afs-cs.cmu.edu-user-mitchell-ftp-faces.html/0night_straight_happy_open.pgm'
p102
I91
tp103
g3
s(S'/home/clayton/grive/www.cs.cmu.edu-afs-cs.cmu.edu-user-mitchell-ftp-faces.html/0steffi_straight_happy_sunglasses.pgm'
p104
I20
tp105
g3
s(S'/home/clayton/grive/www.cs.cmu.edu-afs-cs.cmu.edu-user-mitchell-ftp-faces.html/1sz24_straight_sad_sunglasses.pgm'
p106
I38
tp107
g3
s(S'/home/clayton/grive/www.cs.cmu.edu-afs-cs.cmu.edu-user-mitchell-ftp-faces.html/1phoebe_straight_sad_open.pgm'
p108
I6
tp109
g3
s(S'/home/clayton/grive/www.cs.cmu.edu-afs-cs.cmu.edu-user-mitchell-ftp-faces.html/1mitchell_straight_sad_open.pgm'
p110
I8
tp111
g3
s(S'/home/clayton/grive/www.cs.cmu.edu-afs-cs.cmu.edu-user-mitchell-ftp-faces.html/2mitchell_straight_angry_sunglasses.pgm'
p112
I35
tp113
g3
s(S'/home/clayton/grive/www.cs.cmu.edu-afs-cs.cmu.edu-user-mitchell-ftp-faces.html/1night_straight_sad_sunglasses.pgm'
p114
I38
tp115
g3
s(S'/home/clayton/grive/www.cs.cmu.edu-afs-cs.cmu.edu-user-mitchell-ftp-faces.html/0karyadi_straight_happy_open.pgm'
p116
I66
tp117
g3
s(S'/home/clayton/grive/www.cs.cmu.edu-afs-cs.cmu.edu-user-mitchell-ftp-faces.html/1karyadi_straight_sad_sunglasses.pgm'
p118
I13
tp119
g3
s(g110
I87
tp120
g3
s(S'/home/clayton/grive/www.cs.cmu.edu-afs-cs.cmu.edu-user-mitchell-ftp-faces.html/0ch4f_straight_happy_sunglasses.pgm'
p121
I34
tp122
g3
s(S'/home/clayton/grive/www.cs.cmu.edu-afs-cs.cmu.edu-user-mitchell-ftp-faces.html/6kk49_straight_neutral_open.pgm'
p123
I132
tp124
g3
s(S'/home/clayton/grive/www.cs.cmu.edu-afs-cs.cmu.edu-user-mitchell-ftp-faces.html/1karyadi_straight_sad_open.pgm'
p125
I23
tp126
g3
s(g112
I4
tp127
g3
s(S'/home/clayton/grive/www.cs.cmu.edu-afs-cs.cmu.edu-user-mitchell-ftp-faces.html/2choon_straight_angry_open.pgm'
p128
I96
tp129
g3
s(S'/home/clayton/grive/www.cs.cmu.edu-afs-cs.cmu.edu-user-mitchell-ftp-faces.html/6tammo_straight_neutral_sunglasses.pgm'
p130
I35
tp131
g3
s(S'/home/clayton/grive/www.cs.cmu.edu-afs-cs.cmu.edu-user-mitchell-ftp-faces.html/1cheyer_straight_sad_sunglasses.pgm'
p132
I7
tp133
g3
s(S'/home/clayton/grive/www.cs.cmu.edu-afs-cs.cmu.edu-user-mitchell-ftp-faces.html/2steffi_straight_angry_sunglasses.pgm'
p134
I16
tp135
g3
s(S'/home/clayton/grive/www.cs.cmu.edu-afs-cs.cmu.edu-user-mitchell-ftp-faces.html/1glickman_straight_sad_sunglasses.pgm'
p136
I52
tp137
g3
s(S'/home/clayton/grive/www.cs.cmu.edu-afs-cs.cmu.edu-user-mitchell-ftp-faces.html/2saavik_straight_angry_open.pgm'
p138
I85
tp139
g3
s(S'/home/clayton/grive/www.cs.cmu.edu-afs-cs.cmu.edu-user-mitchell-ftp-faces.html/6choon_straight_neutral_sunglasses.pgm'
p140
I20
tp141
g3
s(g92
I5
tp142
g3
s(S'/home/clayton/grive/www.cs.cmu.edu-afs-cs.cmu.edu-user-mitchell-ftp-faces.html/6boland_straight_neutral_open.pgm'
p143
I6
tp144
g3
s(S'/home/clayton/grive/www.cs.cmu.edu-afs-cs.cmu.edu-user-mitchell-ftp-faces.html/2steffi_straight_angry_open.pgm'
p145
I107
tp146
g3
s(S'/home/clayton/grive/www.cs.cmu.edu-afs-cs.cmu.edu-user-mitchell-ftp-faces.html/0an2i_straight_happy_open.pgm'
p147
I32
tp148
g3
s(S'/home/clayton/grive/www.cs.cmu.edu-afs-cs.cmu.edu-user-mitchell-ftp-faces.html/6megak_straight_neutral_sunglasses.pgm'
p149
I39
tp150
g3
s(S'/home/clayton/grive/www.cs.cmu.edu-afs-cs.cmu.edu-user-mitchell-ftp-faces.html/2an2i_straight_angry_open.pgm'
p151
I41
tp152
g3
s(S'/home/clayton/grive/www.cs.cmu.edu-afs-cs.cmu.edu-user-mitchell-ftp-faces.html/6danieln_straight_neutral_open.pgm'
p153
I69
tp154
g3
s(S'/home/clayton/grive/www.cs.cmu.edu-afs-cs.cmu.edu-user-mitchell-ftp-faces.html/0megak_straight_happy_sunglasses.pgm'
p155
I26
tp156
g3
s(S'/home/clayton/grive/www.cs.cmu.edu-afs-cs.cmu.edu-user-mitchell-ftp-faces.html/0phoebe_straight_happy_sunglasses.pgm'
p157
I22
tp158
g3
s(S'/home/clayton/grive/www.cs.cmu.edu-afs-cs.cmu.edu-user-mitchell-ftp-faces.html/2kk49_straight_angry_sunglasses.pgm'
p159
I53
tp160
g3
s(S'/home/clayton/grive/www.cs.cmu.edu-afs-cs.cmu.edu-user-mitchell-ftp-faces.html/0glickman_straight_happy_open.pgm'
p161
I127
tp162
g3
s(S'/home/clayton/grive/www.cs.cmu.edu-afs-cs.cmu.edu-user-mitchell-ftp-faces.html/2night_straight_angry_sunglasses.pgm'
p163
I36
tp164
g3
s(S'/home/clayton/grive/www.cs.cmu.edu-afs-cs.cmu.edu-user-mitchell-ftp-faces.html/6boland_straight_neutral_sunglasses.pgm'
p165
I20
tp166
g3
s(g56
I5
tp167
g3
s(S'/home/clayton/grive/www.cs.cmu.edu-afs-cs.cmu.edu-user-mitchell-ftp-faces.html/1an2i_straight_sad_open.pgm'
p168
I54
tp169
g3
s(S'/home/clayton/grive/www.cs.cmu.edu-afs-cs.cmu.edu-user-mitchell-ftp-faces.html/2cheyer_straight_angry_sunglasses.pgm'
p170
I18
tp171
g3
s(S'/home/clayton/grive/www.cs.cmu.edu-afs-cs.cmu.edu-user-mitchell-ftp-faces.html/1tammo_straight_sad_sunglasses.pgm'
p172
I31
tp173
g3
s(S'/home/clayton/grive/www.cs.cmu.edu-afs-cs.cmu.edu-user-mitchell-ftp-faces.html/2danieln_straight_angry_open.pgm'
p174
I66
tp175
g3
s(S'/home/clayton/grive/www.cs.cmu.edu-afs-cs.cmu.edu-user-mitchell-ftp-faces.html/2phoebe_straight_angry_sunglasses.pgm'
p176
I16
tp177
g3
s(S'/home/clayton/grive/www.cs.cmu.edu-afs-cs.cmu.edu-user-mitchell-ftp-faces.html/6kk49_straight_neutral_sunglasses.pgm'
p178
I38
tp179
g3
s(S'/home/clayton/grive/www.cs.cmu.edu-afs-cs.cmu.edu-user-mitchell-ftp-faces.html/1kk49_straight_sad_sunglasses.pgm'
p180
I35
tp181
g3
s(S'/home/clayton/grive/www.cs.cmu.edu-afs-cs.cmu.edu-user-mitchell-ftp-faces.html/1glickman_straight_sad_open.pgm'
p182
I107
tp183
g3
s(S'/home/clayton/grive/www.cs.cmu.edu-afs-cs.cmu.edu-user-mitchell-ftp-faces.html/0boland_straight_happy_sunglasses.pgm'
p184
I20
tp185
g3
s(g62
I8
tp186
g3
s(S'/home/clayton/grive/www.cs.cmu.edu-afs-cs.cmu.edu-user-mitchell-ftp-faces.html/0sz24_straight_happy_open.pgm'
p187
I118
tp188
g3
s(S'/home/clayton/grive/www.cs.cmu.edu-afs-cs.cmu.edu-user-mitchell-ftp-faces.html/1choon_straight_sad_open.pgm'
p189
I106
tp190
g3
s(S'/home/clayton/grive/www.cs.cmu.edu-afs-cs.cmu.edu-user-mitchell-ftp-faces.html/6saavik_straight_neutral_open.pgm'
p191
I88
tp192
g3
s(S'/home/clayton/grive/www.cs.cmu.edu-afs-cs.cmu.edu-user-mitchell-ftp-faces.html/1an2i_straight_sad_sunglasses.pgm'
p193
I8
tp194
g3
s(S'/home/clayton/grive/www.cs.cmu.edu-afs-cs.cmu.edu-user-mitchell-ftp-faces.html/2kk49_straight_angry_open.pgm'
p195
I99
tp196
g3
s(S'/home/clayton/grive/www.cs.cmu.edu-afs-cs.cmu.edu-user-mitchell-ftp-faces.html/2bpm_straight_angry_sunglasses.pgm'
p197
I8
tp198
g3
s(S'/home/clayton/grive/www.cs.cmu.edu-afs-cs.cmu.edu-user-mitchell-ftp-faces.html/1night_straight_sad_open.pgm'
p199
I98
tp200
g3
s(g30
I97
tp201
g3
s(S'/home/clayton/grive/www.cs.cmu.edu-afs-cs.cmu.edu-user-mitchell-ftp-faces.html/6night_straight_neutral_open.pgm'
p202
I94
tp203
g3
s(S'/home/clayton/grive/www.cs.cmu.edu-afs-cs.cmu.edu-user-mitchell-ftp-faces.html/1at33_straight_sad_sunglasses.pgm'
p204
I35
tp205
g3
s(S'/home/clayton/grive/www.cs.cmu.edu-afs-cs.cmu.edu-user-mitchell-ftp-faces.html/0phoebe_straight_happy_open.pgm'
p206
I60
tp207
g3
s(S'/home/clayton/grive/www.cs.cmu.edu-afs-cs.cmu.edu-user-mitchell-ftp-faces.html/6steffi_straight_neutral_open.pgm'
p208
I82
tp209
g3
s(S'/home/clayton/grive/www.cs.cmu.edu-afs-cs.cmu.edu-user-mitchell-ftp-faces.html/6megak_straight_neutral_open.pgm'
p210
I117
tp211
g3
s(S'/home/clayton/grive/www.cs.cmu.edu-afs-cs.cmu.edu-user-mitchell-ftp-faces.html/6an2i_straight_neutral_sunglasses.pgm'
p212
I15
tp213
g3
s(S'/home/clayton/grive/www.cs.cmu.edu-afs-cs.cmu.edu-user-mitchell-ftp-faces.html/0kawamura_straight_happy_open.pgm'
p214
I5
tp215
g3
s(S'/home/clayton/grive/www.cs.cmu.edu-afs-cs.cmu.edu-user-mitchell-ftp-faces.html/2megak_straight_angry_sunglasses.pgm'
p216
I6
tp217
g3
s(g46
I5
tp218
g3
s(S'/home/clayton/grive/www.cs.cmu.edu-afs-cs.cmu.edu-user-mitchell-ftp-faces.html/6sz24_straight_neutral_open.pgm'
p219
I116
tp220
g3
s(S'/home/clayton/grive/www.cs.cmu.edu-afs-cs.cmu.edu-user-mitchell-ftp-faces.html/6choon_straight_neutral_open.pgm'
p221
I102
tp222
g3
s(g216
I9
tp223
g3
s(S'/home/clayton/grive/www.cs.cmu.edu-afs-cs.cmu.edu-user-mitchell-ftp-faces.html/2ch4f_straight_angry_sunglasses.pgm'
p224
I33
tp225
g3
s(S'/home/clayton/grive/www.cs.cmu.edu-afs-cs.cmu.edu-user-mitchell-ftp-faces.html/2at33_straight_angry_sunglasses.pgm'
p226
I30
tp227
g3
s(S'/home/clayton/grive/www.cs.cmu.edu-afs-cs.cmu.edu-user-mitchell-ftp-faces.html/2glickman_straight_angry_sunglasses.pgm'
p228
I71
tp229
g3
s(S'/home/clayton/grive/www.cs.cmu.edu-afs-cs.cmu.edu-user-mitchell-ftp-faces.html/2an2i_straight_angry_sunglasses.pgm'
p230
I15
tp231
g3
s(S'/home/clayton/grive/www.cs.cmu.edu-afs-cs.cmu.edu-user-mitchell-ftp-faces.html/0tammo_straight_happy_open.pgm'
p232
I99
tp233
g3
s(S'/home/clayton/grive/www.cs.cmu.edu-afs-cs.cmu.edu-user-mitchell-ftp-faces.html/1steffi_straight_sad_open.pgm'
p234
I108
tp235
g3
s(S'/home/clayton/grive/www.cs.cmu.edu-afs-cs.cmu.edu-user-mitchell-ftp-faces.html/1tammo_straight_sad_open.pgm'
p236
I95
tp237
g3
s(S'/home/clayton/grive/www.cs.cmu.edu-afs-cs.cmu.edu-user-mitchell-ftp-faces.html/6phoebe_straight_neutral_open.pgm'
p238
I66
tp239
g3
s(S'/home/clayton/grive/www.cs.cmu.edu-afs-cs.cmu.edu-user-mitchell-ftp-faces.html/6phoebe_straight_neutral_sunglasses.pgm'
p240
I28
tp241
g3
s(g32
I29
tp242
g3
s(S'/home/clayton/grive/www.cs.cmu.edu-afs-cs.cmu.edu-user-mitchell-ftp-faces.html/1bpm_straight_sad_sunglasses.pgm'
p243
I7
tp244
g3
s(S'/home/clayton/grive/www.cs.cmu.edu-afs-cs.cmu.edu-user-mitchell-ftp-faces.html/1boland_straight_sad_open.pgm'
p245
I83
tp246
g3
s(S'/home/clayton/grive/www.cs.cmu.edu-afs-cs.cmu.edu-user-mitchell-ftp-faces.html/2kawamura_straight_angry_open.pgm'
p247
I37
tp248
g3
s(S'/home/clayton/grive/www.cs.cmu.edu-afs-cs.cmu.edu-user-mitchell-ftp-faces.html/2at33_straight_happy_sunglasses.pgm'
p249
I30
tp250
g3
s(S'/home/clayton/grive/www.cs.cmu.edu-afs-cs.cmu.edu-user-mitchell-ftp-faces.html/2boland_straight_angry_sunglasses.pgm'
p251
I14
tp252
g3
s(S'/home/clayton/grive/www.cs.cmu.edu-afs-cs.cmu.edu-user-mitchell-ftp-faces.html/1danieln_straight_sad_sunglasses.pgm'
p253
I24
tp254
g3
s(S'/home/clayton/grive/www.cs.cmu.edu-afs-cs.cmu.edu-user-mitchell-ftp-faces.html/1sz24_straight_sad_open.pgm'
p255
I134
tp256
g3
s(S'/home/clayton/grive/www.cs.cmu.edu-afs-cs.cmu.edu-user-mitchell-ftp-faces.html/1saavik_straight_sad_open.pgm'
p257
I98
tp258
g3
s(g94
I21
tp259
g3
s(S'/home/clayton/grive/www.cs.cmu.edu-afs-cs.cmu.edu-user-mitchell-ftp-faces.html/0choon_straight_happy_sunglasses.pgm'
p260
I4
tp261
g3
s(S'/home/clayton/grive/www.cs.cmu.edu-afs-cs.cmu.edu-user-mitchell-ftp-faces.html/2kawamura_straight_angry_sunglasses.pgm'
p262
I20
tp263
g3
s(S'/home/clayton/grive/www.cs.cmu.edu-afs-cs.cmu.edu-user-mitchell-ftp-faces.html/6karyadi_straight_neutral_sunglasses.pgm'
p264
I7
tp265
g3
s(g262
I5
tp266
g3
s(g260
I9
tp267
g3
s(S'/home/clayton/grive/www.cs.cmu.edu-afs-cs.cmu.edu-user-mitchell-ftp-faces.html/0choon_straight_happy_open.pgm'
p268
I97
tp269
g3
s(S'/home/clayton/grive/www.cs.cmu.edu-afs-cs.cmu.edu-user-mitchell-ftp-faces.html/6danieln_straight_neutral_sunglasses.pgm'
p270
I23
tp271
g3
s(S'/home/clayton/grive/www.cs.cmu.edu-afs-cs.cmu.edu-user-mitchell-ftp-faces.html/0saavik_straight_happy_open.pgm'
p272
I89
tp273
g3
s(g130
I5
tp274
g3
s(S'/home/clayton/grive/www.cs.cmu.edu-afs-cs.cmu.edu-user-mitchell-ftp-faces.html/0megak_straight_happy_open.pgm'
p275
I113
tp276
g3
s(S'/home/clayton/grive/www.cs.cmu.edu-afs-cs.cmu.edu-user-mitchell-ftp-faces.html/0tammo_straight_happy_sunglasses.pgm'
p277
I27
tp278
g3
s(S'/home/clayton/grive/www.cs.cmu.edu-afs-cs.cmu.edu-user-mitchell-ftp-faces.html/6at33_straight_neutral_open.pgm'
p279
I85
tp280
g3
s(S'/home/clayton/grive/www.cs.cmu.edu-afs-cs.cmu.edu-user-mitchell-ftp-faces.html/1megak_straight_sad_open.pgm'
p281
I109
tp282
g3
s(g143
I85
tp283
g3
s(g214
I40
tp284
g3
s(g157
I7
tp285
g3
s(S'/home/clayton/grive/www.cs.cmu.edu-afs-cs.cmu.edu-user-mitchell-ftp-faces.html/0an2i_straight_happy_sunglasses.pgm'
p286
I14
tp287
g3
s(S'/home/clayton/grive/www.cs.cmu.edu-afs-cs.cmu.edu-user-mitchell-ftp-faces.html/2cheyer_straight_angry_open.pgm'
p288
I88
tp289
g3
s(S'/home/clayton/grive/www.cs.cmu.edu-afs-cs.cmu.edu-user-mitchell-ftp-faces.html/2danieln_straight_angry_sunglasses.pgm'
p290
I28
tp291
g3
s(S'/home/clayton/grive/www.cs.cmu.edu-afs-cs.cmu.edu-user-mitchell-ftp-faces.html/0kk49_straight_happy_sunglasses.pgm'
p292
I41
tp293
g3
s(g161
I8
tp294
g3
s(S'/home/clayton/grive/www.cs.cmu.edu-afs-cs.cmu.edu-user-mitchell-ftp-faces.html/2boland_straight_angry_open.pgm'
p295
I80
tp296
g3
s(g8
I4
tp297
g3
s(g108
I56
tp298
g3
s(S'/home/clayton/grive/www.cs.cmu.edu-afs-cs.cmu.edu-user-mitchell-ftp-faces.html/2tammo_straight_angry_open.pgm'
p299
I92
tp300
g3
s(S'/home/clayton/grive/www.cs.cmu.edu-afs-cs.cmu.edu-user-mitchell-ftp-faces.html/0karyadi_straight_happy_sunglasses.pgm'
p301
I12
tp302
g3
s(S'/home/clayton/grive/www.cs.cmu.edu-afs-cs.cmu.edu-user-mitchell-ftp-faces.html/6night_straight_neutral_sunglasses.pgm'
p303
I38
tp304
g3
s(S'/home/clayton/grive/www.cs.cmu.edu-afs-cs.cmu.edu-user-mitchell-ftp-faces.html/2karyadi_straight_angry_sunglasses.pgm'
p305
I6
tp306
g3
s(g247
I5
tp307
g3
s(S'/home/clayton/grive/www.cs.cmu.edu-afs-cs.cmu.edu-user-mitchell-ftp-faces.html/6cheyer_straight_neutral_sunglasses.pgm'
p308
I12
tp309
g3
s(S'/home/clayton/grive/www.cs.cmu.edu-afs-cs.cmu.edu-user-mitchell-ftp-faces.html/2night_straight_angry_open.pgm'
p310
I103
tp311
g3
s(S'/home/clayton/grive/www.cs.cmu.edu-afs-cs.cmu.edu-user-mitchell-ftp-faces.html/6mitchell_straight_neutral_open.pgm'
p312
I89
tp313
g3
s(S'/home/clayton/grive/www.cs.cmu.edu-afs-cs.cmu.edu-user-mitchell-ftp-faces.html/2karyadi_straight_angry_open.pgm'
p314
I26
tp315
g3
s.