(dp0
(S'/home/clayton/grive/www.cs.cmu.edu-afs-cs.cmu.edu-user-mitchell-ftp-faces.html/6saavik_straight_neutral_sunglasses.pgm'
p1
I32
tp2
S'y'
p3
s(S'/home/clayton/grive/www.cs.cmu.edu-afs-cs.cmu.edu-user-mitchell-ftp-faces.html/0danieln_straight_happy_open.pgm'
p4
I81
tp5
g3
s(S'/home/clayton/grive/www.cs.cmu.edu-afs-cs.cmu.edu-user-mitchell-ftp-faces.html/6bpm_straight_neutral_sunglasses.pgm'
p6
I13
tp7
g3
s(S'/home/clayton/grive/www.cs.cmu.edu-afs-cs.cmu.edu-user-mitchell-ftp-faces.html/6cheyer_straight_neutral_open.pgm'
p8
I103
tp9
g3
s(S'/home/clayton/grive/www.cs.cmu.edu-afs-cs.cmu.edu-user-mitchell-ftp-faces.html/6glickman_straight_neutral_sunglasses.pgm'
p10
I70
tp11
g3
s(S'/home/clayton/grive/www.cs.cmu.edu-afs-cs.cmu.edu-user-mitchell-ftp-faces.html/6kawamura_straight_neutral_open.pgm'
p12
I38
tp13
g3
s(S'/home/clayton/grive/www.cs.cmu.edu-afs-cs.cmu.edu-user-mitchell-ftp-faces.html/1boland_straight_sad_sunglasses.pgm'
p14
I16
tp15
g3
s(S'/home/clayton/grive/www.cs.cmu.edu-afs-cs.cmu.edu-user-mitchell-ftp-faces.html/1kawamura_straight_sad_sunglasses.pgm'
p16
I19
tp17
g3
s(S'/home/clayton/grive/www.cs.cmu.edu-afs-cs.cmu.edu-user-mitchell-ftp-faces.html/6tammo_straight_neutral_open.pgm'
p18
I96
tp19
g3
s(S'/home/clayton/grive/www.cs.cmu.edu-afs-cs.cmu.edu-user-mitchell-ftp-faces.html/1danieln_straight_sad_open.pgm'
p20
I64
tp21
g3
s(S'/home/clayton/grive/www.cs.cmu.edu-afs-cs.cmu.edu-user-mitchell-ftp-faces.html/6steffi_straight_neutral_sunglasses.pgm'
p22
I14
tp23
g3
s(S'/home/clayton/grive/www.cs.cmu.edu-afs-cs.cmu.edu-user-mitchell-ftp-faces.html/6mitchell_straight_neutral_sunglasses.pgm'
p24
I30
tp25
g3
s(S'/home/clayton/grive/www.cs.cmu.edu-afs-cs.cmu.edu-user-mitchell-ftp-faces.html/6at33_straight_neutral_sunglasses.pgm'
p26
I37
tp27
g3
s(S'/home/clayton/grive/www.cs.cmu.edu-afs-cs.cmu.edu-user-mitchell-ftp-faces.html/6karyadi_straight_neutral_open.pgm'
p28
I53
tp29
g3
s(S'/home/clayton/grive/www.cs.cmu.edu-afs-cs.cmu.edu-user-mitchell-ftp-faces.html/0cheyer_straight_happy_open.pgm'
p30
I6
tp31
g3
s(S'/home/clayton/grive/www.cs.cmu.edu-afs-cs.cmu.edu-user-mitchell-ftp-faces.html/2tammo_straight_angry_sunglasses.pgm'
p32
I5
tp33
g3
s(S'/home/clayton/grive/www.cs.cmu.edu-afs-cs.cmu.edu-user-mitchell-ftp-faces.html/1cheyer_straight_sad_open.pgm'
p34
I79
tp35
g3
s(S'/home/clayton/grive/www.cs.cmu.edu-afs-cs.cmu.edu-user-mitchell-ftp-faces.html/6glickman_straight_neutral_open.pgm'
p36
I105
tp37
g3
s(S'/home/clayton/grive/www.cs.cmu.edu-afs-cs.cmu.edu-user-mitchell-ftp-faces.html/6an2i_straight_neutral_open.pgm'
p38
I37
tp39
g3
s(S'/home/clayton/grive/www.cs.cmu.edu-afs-cs.cmu.edu-user-mitchell-ftp-faces.html/2choon_straight_angry_sunglasses.pgm'
p40
I18
tp41
g3
s(S'/home/clayton/grive/www.cs.cmu.edu-afs-cs.cmu.edu-user-mitchell-ftp-faces.html/0sz24_straight_happy_sunglasses.pgm'
p42
I39
tp43
g3
s(S'/home/clayton/grive/www.cs.cmu.edu-afs-cs.cmu.edu-user-mitchell-ftp-faces.html/0cheyer_straight_happy_sunglasses.pgm'
p44
I10
tp45
g3
s(S'/home/clayton/grive/www.cs.cmu.edu-afs-cs.cmu.edu-user-mitchell-ftp-faces.html/2phoebe_straight_angry_open.pgm'
p46
I62
tp47
g3
s(S'/home/clayton/grive/www.cs.cmu.edu-afs-cs.cmu.edu-user-mitchell-ftp-faces.html/2sz24_straight_angry_open.pgm'
p48
I122
tp49
g3
s(S'/home/clayton/grive/www.cs.cmu.edu-afs-cs.cmu.edu-user-mitchell-ftp-faces.html/0kk49_straight_happy_open.pgm'
p50
I127
tp51
g3
s(S'/home/clayton/grive/www.cs.cmu.edu-afs-cs.cmu.edu-user-mitchell-ftp-faces.html/0mitchell_straight_happy_sunglasses.pgm'
p52
I28
tp53
g3
s(S'/home/clayton/grive/www.cs.cmu.edu-afs-cs.cmu.edu-user-mitchell-ftp-faces.html/0steffi_straight_happy_open.pgm'
p54
I58
tp55
g3
s(S'/home/clayton/grive/www.cs.cmu.edu-afs-cs.cmu.edu-user-mitchell-ftp-faces.html/2megak_straight_angry_open.pgm'
p56
I104
tp57
g3
s(S'/home/clayton/grive/www.cs.cmu.edu-afs-cs.cmu.edu-user-mitchell-ftp-faces.html/0mitchell_straight_happy_open.pgm'
p58
I93
tp59
g3
s(S'/home/clayton/grive/www.cs.cmu.edu-afs-cs.cmu.edu-user-mitchell-ftp-faces.html/0night_straight_happy_sunglasses.pgm'
p60
I46
tp61
g3
s(S'/home/clayton/grive/www.cs.cmu.edu-afs-cs.cmu.edu-user-mitchell-ftp-faces.html/6sz24_straight_neutral_sunglasses.pgm'
p62
I50
tp63
g3
s(S'/home/clayton/grive/www.cs.cmu.edu-afs-cs.cmu.edu-user-mitchell-ftp-faces.html/1steffi_straight_sad_sunglasses.pgm'
p64
I20
tp65
g3
s(S'/home/clayton/grive/www.cs.cmu.edu-afs-cs.cmu.edu-user-mitchell-ftp-faces.html/1kawamura_straight_sad_open.pgm'
p66
I35
tp67
g3
s(S'/home/clayton/grive/www.cs.cmu.edu-afs-cs.cmu.edu-user-mitchell-ftp-faces.html/2sz24_straight_angry_sunglasses.pgm'
p68
I48
tp69
g3
s(S'/home/clayton/grive/www.cs.cmu.edu-afs-cs.cmu.edu-user-mitchell-ftp-faces.html/6ch4f_straight_neutral_open.pgm'
p70
I78
tp71
g3
s(S'/home/clayton/grive/www.cs.cmu.edu-afs-cs.cmu.edu-user-mitchell-ftp-faces.html/0glickman_straight_happy_sunglasses.pgm'
p72
I59
tp73
g3
s(S'/home/clayton/grive/www.cs.cmu.edu-afs-cs.cmu.edu-user-mitchell-ftp-faces.html/1saavik_straight_sad_sunglasses.pgm'
p74
I27
tp75
g3
s(S'/home/clayton/grive/www.cs.cmu.edu-afs-cs.cmu.edu-user-mitchell-ftp-faces.html/0saavik_straight_happy_sunglasses.pgm'
p76
I42
tp77
g3
s(S'/home/clayton/grive/www.cs.cmu.edu-afs-cs.cmu.edu-user-mitchell-ftp-faces.html/6ch4f_straight_neutral_sunglasses.pgm'
p78
I38
tp79
g3
s(S'/home/clayton/grive/www.cs.cmu.edu-afs-cs.cmu.edu-user-mitchell-ftp-faces.html/0boland_straight_happy_open.pgm'
p80
I75
tp81
g3
s(S'/home/clayton/grive/www.cs.cmu.edu-afs-cs.cmu.edu-user-mitchell-ftp-faces.html/6kawamura_straight_neutral_sunglasses.pgm'
p82
I18
tp83
g3
s(S'/home/clayton/grive/www.cs.cmu.edu-afs-cs.cmu.edu-user-mitchell-ftp-faces.html/1choon_straight_sad_sunglasses.pgm'
p84
I11
tp85
g3
s(S'/home/clayton/grive/www.cs.cmu.edu-afs-cs.cmu.edu-user-mitchell-ftp-faces.html/1ch4f_straight_sad_sunglasses.pgm'
p86
I33
tp87
g3
s(S'/home/clayton/grive/www.cs.cmu.edu-afs-cs.cmu.edu-user-mitchell-ftp-faces.html/1mitchell_straight_sad_sunglasses.pgm'
p88
I24
tp89
g3
s(S'/home/clayton/grive/www.cs.cmu.edu-afs-cs.cmu.edu-user-mitchell-ftp-faces.html/1phoebe_straight_sad_sunglasses.pgm'
p90
I7
tp91
g3
s(S'/home/clayton/grive/www.cs.cmu.edu-afs-cs.cmu.edu-user-mitchell-ftp-faces.html/2saavik_straight_angry_sunglasses.pgm'
p92
I34
tp93
g3
s(S'/home/clayton/grive/www.cs.cmu.edu-afs-cs.cmu.edu-user-mitchell-ftp-faces.html/0bpm_straight_happy_sunglasses.pgm'
p94
I14
tp95
g3
s(S'/home/clayton/grive/www.cs.cmu.edu-afs-cs.cmu.edu-user-mitchell-ftp-faces.html/2bpm_straight_angry_open.pgm'
p96
I46
tp97
g3
s(S'/home/clayton/grive/www.cs.cmu.edu-afs-cs.cmu.edu-user-mitchell-ftp-faces.html/0night_straight_happy_open.pgm'
p98
I91
tp99
g3
s(S'/home/clayton/grive/www.cs.cmu.edu-afs-cs.cmu.edu-user-mitchell-ftp-faces.html/0steffi_straight_happy_sunglasses.pgm'
p100
I20
tp101
g3
s(S'/home/clayton/grive/www.cs.cmu.edu-afs-cs.cmu.edu-user-mitchell-ftp-faces.html/1sz24_straight_sad_sunglasses.pgm'
p102
I38
tp103
g3
s(S'/home/clayton/grive/www.cs.cmu.edu-afs-cs.cmu.edu-user-mitchell-ftp-faces.html/1phoebe_straight_sad_open.pgm'
p104
I6
tp105
g3
s(S'/home/clayton/grive/www.cs.cmu.edu-afs-cs.cmu.edu-user-mitchell-ftp-faces.html/1mitchell_straight_sad_open.pgm'
p106
I8
tp107
g3
s(S'/home/clayton/grive/www.cs.cmu.edu-afs-cs.cmu.edu-user-mitchell-ftp-faces.html/2mitchell_straight_angry_sunglasses.pgm'
p108
I35
tp109
g3
s(S'/home/clayton/grive/www.cs.cmu.edu-afs-cs.cmu.edu-user-mitchell-ftp-faces.html/1night_straight_sad_sunglasses.pgm'
p110
I38
tp111
g3
s(S'/home/clayton/grive/www.cs.cmu.edu-afs-cs.cmu.edu-user-mitchell-ftp-faces.html/0karyadi_straight_happy_open.pgm'
p112
I66
tp113
g3
s(S'/home/clayton/grive/www.cs.cmu.edu-afs-cs.cmu.edu-user-mitchell-ftp-faces.html/1karyadi_straight_sad_sunglasses.pgm'
p114
I13
tp115
g3
s(g106
I87
tp116
g3
s(S'/home/clayton/grive/www.cs.cmu.edu-afs-cs.cmu.edu-user-mitchell-ftp-faces.html/0ch4f_straight_happy_sunglasses.pgm'
p117
I34
tp118
g3
s(S'/home/clayton/grive/www.cs.cmu.edu-afs-cs.cmu.edu-user-mitchell-ftp-faces.html/6kk49_straight_neutral_open.pgm'
p119
I132
tp120
g3
s(S'/home/clayton/grive/www.cs.cmu.edu-afs-cs.cmu.edu-user-mitchell-ftp-faces.html/1karyadi_straight_sad_open.pgm'
p121
I23
tp122
g3
s(g108
I4
tp123
g3
s(S'/home/clayton/grive/www.cs.cmu.edu-afs-cs.cmu.edu-user-mitchell-ftp-faces.html/2choon_straight_angry_open.pgm'
p124
I96
tp125
g3
s(S'/home/clayton/grive/www.cs.cmu.edu-afs-cs.cmu.edu-user-mitchell-ftp-faces.html/6tammo_straight_neutral_sunglasses.pgm'
p126
I35
tp127
g3
s(S'/home/clayton/grive/www.cs.cmu.edu-afs-cs.cmu.edu-user-mitchell-ftp-faces.html/1cheyer_straight_sad_sunglasses.pgm'
p128
I7
tp129
g3
s(S'/home/clayton/grive/www.cs.cmu.edu-afs-cs.cmu.edu-user-mitchell-ftp-faces.html/2steffi_straight_angry_sunglasses.pgm'
p130
I16
tp131
g3
s(S'/home/clayton/grive/www.cs.cmu.edu-afs-cs.cmu.edu-user-mitchell-ftp-faces.html/1glickman_straight_sad_sunglasses.pgm'
p132
I52
tp133
g3
s(S'/home/clayton/grive/www.cs.cmu.edu-afs-cs.cmu.edu-user-mitchell-ftp-faces.html/2saavik_straight_angry_open.pgm'
p134
I85
tp135
g3
s(S'/home/clayton/grive/www.cs.cmu.edu-afs-cs.cmu.edu-user-mitchell-ftp-faces.html/6choon_straight_neutral_sunglasses.pgm'
p136
I20
tp137
g3
s(g88
I5
tp138
g3
s(S'/home/clayton/grive/www.cs.cmu.edu-afs-cs.cmu.edu-user-mitchell-ftp-faces.html/6boland_straight_neutral_open.pgm'
p139
I6
tp140
g3
s(S'/home/clayton/grive/www.cs.cmu.edu-afs-cs.cmu.edu-user-mitchell-ftp-faces.html/2steffi_straight_angry_open.pgm'
p141
I107
tp142
g3
s(S'/home/clayton/grive/www.cs.cmu.edu-afs-cs.cmu.edu-user-mitchell-ftp-faces.html/0an2i_straight_happy_open.pgm'
p143
I32
tp144
g3
s(S'/home/clayton/grive/www.cs.cmu.edu-afs-cs.cmu.edu-user-mitchell-ftp-faces.html/6megak_straight_neutral_sunglasses.pgm'
p145
I39
tp146
g3
s(S'/home/clayton/grive/www.cs.cmu.edu-afs-cs.cmu.edu-user-mitchell-ftp-faces.html/2an2i_straight_angry_open.pgm'
p147
I41
tp148
g3
s(S'/home/clayton/grive/www.cs.cmu.edu-afs-cs.cmu.edu-user-mitchell-ftp-faces.html/6danieln_straight_neutral_open.pgm'
p149
I69
tp150
g3
s(S'/home/clayton/grive/www.cs.cmu.edu-afs-cs.cmu.edu-user-mitchell-ftp-faces.html/0megak_straight_happy_sunglasses.pgm'
p151
I26
tp152
g3
s(S'/home/clayton/grive/www.cs.cmu.edu-afs-cs.cmu.edu-user-mitchell-ftp-faces.html/0phoebe_straight_happy_sunglasses.pgm'
p153
I22
tp154
g3
s(S'/home/clayton/grive/www.cs.cmu.edu-afs-cs.cmu.edu-user-mitchell-ftp-faces.html/2kk49_straight_angry_sunglasses.pgm'
p155
I53
tp156
g3
s(S'/home/clayton/grive/www.cs.cmu.edu-afs-cs.cmu.edu-user-mitchell-ftp-faces.html/0glickman_straight_happy_open.pgm'
p157
I127
tp158
g3
s(S'/home/clayton/grive/www.cs.cmu.edu-afs-cs.cmu.edu-user-mitchell-ftp-faces.html/2night_straight_angry_sunglasses.pgm'
p159
I36
tp160
g3
s(S'/home/clayton/grive/www.cs.cmu.edu-afs-cs.cmu.edu-user-mitchell-ftp-faces.html/6boland_straight_neutral_sunglasses.pgm'
p161
I20
tp162
g3
s(g52
I5
tp163
g3
s(S'/home/clayton/grive/www.cs.cmu.edu-afs-cs.cmu.edu-user-mitchell-ftp-faces.html/1an2i_straight_sad_open.pgm'
p164
I54
tp165
g3
s(S'/home/clayton/grive/www.cs.cmu.edu-afs-cs.cmu.edu-user-mitchell-ftp-faces.html/2cheyer_straight_angry_sunglasses.pgm'
p166
I18
tp167
g3
s(S'/home/clayton/grive/www.cs.cmu.edu-afs-cs.cmu.edu-user-mitchell-ftp-faces.html/1tammo_straight_sad_sunglasses.pgm'
p168
I31
tp169
g3
s(S'/home/clayton/grive/www.cs.cmu.edu-afs-cs.cmu.edu-user-mitchell-ftp-faces.html/2danieln_straight_angry_open.pgm'
p170
I66
tp171
g3
s(g157
I8
tp172
g3
s(S'/home/clayton/grive/www.cs.cmu.edu-afs-cs.cmu.edu-user-mitchell-ftp-faces.html/2phoebe_straight_angry_sunglasses.pgm'
p173
I16
tp174
g3
s(S'/home/clayton/grive/www.cs.cmu.edu-afs-cs.cmu.edu-user-mitchell-ftp-faces.html/6kk49_straight_neutral_sunglasses.pgm'
p175
I38
tp176
g3
s(S'/home/clayton/grive/www.cs.cmu.edu-afs-cs.cmu.edu-user-mitchell-ftp-faces.html/1kk49_straight_sad_sunglasses.pgm'
p177
I35
tp178
g3
s(S'/home/clayton/grive/www.cs.cmu.edu-afs-cs.cmu.edu-user-mitchell-ftp-faces.html/1glickman_straight_sad_open.pgm'
p179
I107
tp180
g3
s(S'/home/clayton/grive/www.cs.cmu.edu-afs-cs.cmu.edu-user-mitchell-ftp-faces.html/0boland_straight_happy_sunglasses.pgm'
p181
I20
tp182
g3
s(g58
I8
tp183
g3
s(S'/home/clayton/grive/www.cs.cmu.edu-afs-cs.cmu.edu-user-mitchell-ftp-faces.html/0sz24_straight_happy_open.pgm'
p184
I118
tp185
g3
s(S'/home/clayton/grive/www.cs.cmu.edu-afs-cs.cmu.edu-user-mitchell-ftp-faces.html/1choon_straight_sad_open.pgm'
p186
I106
tp187
g3
s(S'/home/clayton/grive/www.cs.cmu.edu-afs-cs.cmu.edu-user-mitchell-ftp-faces.html/6saavik_straight_neutral_open.pgm'
p188
I88
tp189
g3
s(S'/home/clayton/grive/www.cs.cmu.edu-afs-cs.cmu.edu-user-mitchell-ftp-faces.html/1an2i_straight_sad_sunglasses.pgm'
p190
I8
tp191
g3
s(S'/home/clayton/grive/www.cs.cmu.edu-afs-cs.cmu.edu-user-mitchell-ftp-faces.html/2kk49_straight_angry_open.pgm'
p192
I99
tp193
g3
s(S'/home/clayton/grive/www.cs.cmu.edu-afs-cs.cmu.edu-user-mitchell-ftp-faces.html/2bpm_straight_angry_sunglasses.pgm'
p194
I8
tp195
g3
s(S'/home/clayton/grive/www.cs.cmu.edu-afs-cs.cmu.edu-user-mitchell-ftp-faces.html/1night_straight_sad_open.pgm'
p196
I98
tp197
g3
s(g30
I97
tp198
g3
s(S'/home/clayton/grive/www.cs.cmu.edu-afs-cs.cmu.edu-user-mitchell-ftp-faces.html/6night_straight_neutral_open.pgm'
p199
I94
tp200
g3
s(S'/home/clayton/grive/www.cs.cmu.edu-afs-cs.cmu.edu-user-mitchell-ftp-faces.html/1kk49_straight_sad_open.pgm'
p201
I123
tp202
g3
s(S'/home/clayton/grive/www.cs.cmu.edu-afs-cs.cmu.edu-user-mitchell-ftp-faces.html/0phoebe_straight_happy_open.pgm'
p203
I60
tp204
g3
s(S'/home/clayton/grive/www.cs.cmu.edu-afs-cs.cmu.edu-user-mitchell-ftp-faces.html/6steffi_straight_neutral_open.pgm'
p205
I82
tp206
g3
s(S'/home/clayton/grive/www.cs.cmu.edu-afs-cs.cmu.edu-user-mitchell-ftp-faces.html/6megak_straight_neutral_open.pgm'
p207
I117
tp208
g3
s(S'/home/clayton/grive/www.cs.cmu.edu-afs-cs.cmu.edu-user-mitchell-ftp-faces.html/0kawamura_straight_happy_sunglasses.pgm'
p209
I22
tp210
g3
s(S'/home/clayton/grive/www.cs.cmu.edu-afs-cs.cmu.edu-user-mitchell-ftp-faces.html/0kawamura_straight_happy_open.pgm'
p211
I5
tp212
g3
s(S'/home/clayton/grive/www.cs.cmu.edu-afs-cs.cmu.edu-user-mitchell-ftp-faces.html/2megak_straight_angry_sunglasses.pgm'
p213
I6
tp214
g3
s(g44
I5
tp215
g3
s(S'/home/clayton/grive/www.cs.cmu.edu-afs-cs.cmu.edu-user-mitchell-ftp-faces.html/6sz24_straight_neutral_open.pgm'
p216
I116
tp217
g3
s(S'/home/clayton/grive/www.cs.cmu.edu-afs-cs.cmu.edu-user-mitchell-ftp-faces.html/6choon_straight_neutral_open.pgm'
p218
I102
tp219
g3
s(g213
I9
tp220
g3
s(S'/home/clayton/grive/www.cs.cmu.edu-afs-cs.cmu.edu-user-mitchell-ftp-faces.html/2ch4f_straight_angry_sunglasses.pgm'
p221
I33
tp222
g3
s(S'/home/clayton/grive/www.cs.cmu.edu-afs-cs.cmu.edu-user-mitchell-ftp-faces.html/2at33_straight_angry_sunglasses.pgm'
p223
I30
tp224
g3
s(S'/home/clayton/grive/www.cs.cmu.edu-afs-cs.cmu.edu-user-mitchell-ftp-faces.html/2glickman_straight_angry_sunglasses.pgm'
p225
I71
tp226
g3
s(S'/home/clayton/grive/www.cs.cmu.edu-afs-cs.cmu.edu-user-mitchell-ftp-faces.html/2an2i_straight_angry_sunglasses.pgm'
p227
I15
tp228
g3
s(S'/home/clayton/grive/www.cs.cmu.edu-afs-cs.cmu.edu-user-mitchell-ftp-faces.html/6an2i_straight_neutral_sunglasses.pgm'
p229
I15
tp230
g3
s(S'/home/clayton/grive/www.cs.cmu.edu-afs-cs.cmu.edu-user-mitchell-ftp-faces.html/0tammo_straight_happy_open.pgm'
p231
I99
tp232
g3
s(S'/home/clayton/grive/www.cs.cmu.edu-afs-cs.cmu.edu-user-mitchell-ftp-faces.html/1steffi_straight_sad_open.pgm'
p233
I108
tp234
g3
s(S'/home/clayton/grive/www.cs.cmu.edu-afs-cs.cmu.edu-user-mitchell-ftp-faces.html/1tammo_straight_sad_open.pgm'
p235
I95
tp236
g3
s(S'/home/clayton/grive/www.cs.cmu.edu-afs-cs.cmu.edu-user-mitchell-ftp-faces.html/6phoebe_straight_neutral_open.pgm'
p237
I66
tp238
g3
s(S'/home/clayton/grive/www.cs.cmu.edu-afs-cs.cmu.edu-user-mitchell-ftp-faces.html/6phoebe_straight_neutral_sunglasses.pgm'
p239
I28
tp240
g3
s(g32
I29
tp241
g3
s(S'/home/clayton/grive/www.cs.cmu.edu-afs-cs.cmu.edu-user-mitchell-ftp-faces.html/1bpm_straight_sad_sunglasses.pgm'
p242
I7
tp243
g3
s(S'/home/clayton/grive/www.cs.cmu.edu-afs-cs.cmu.edu-user-mitchell-ftp-faces.html/1boland_straight_sad_open.pgm'
p244
I83
tp245
g3
s(S'/home/clayton/grive/www.cs.cmu.edu-afs-cs.cmu.edu-user-mitchell-ftp-faces.html/2kawamura_straight_angry_open.pgm'
p246
I37
tp247
g3
s(S'/home/clayton/grive/www.cs.cmu.edu-afs-cs.cmu.edu-user-mitchell-ftp-faces.html/2at33_straight_happy_sunglasses.pgm'
p248
I30
tp249
g3
s(S'/home/clayton/grive/www.cs.cmu.edu-afs-cs.cmu.edu-user-mitchell-ftp-faces.html/2boland_straight_angry_sunglasses.pgm'
p250
I14
tp251
g3
s(S'/home/clayton/grive/www.cs.cmu.edu-afs-cs.cmu.edu-user-mitchell-ftp-faces.html/1danieln_straight_sad_sunglasses.pgm'
p252
I24
tp253
g3
s(S'/home/clayton/grive/www.cs.cmu.edu-afs-cs.cmu.edu-user-mitchell-ftp-faces.html/1sz24_straight_sad_open.pgm'
p254
I134
tp255
g3
s(S'/home/clayton/grive/www.cs.cmu.edu-afs-cs.cmu.edu-user-mitchell-ftp-faces.html/1saavik_straight_sad_open.pgm'
p256
I98
tp257
g3
s(g90
I21
tp258
g3
s(S'/home/clayton/grive/www.cs.cmu.edu-afs-cs.cmu.edu-user-mitchell-ftp-faces.html/0choon_straight_happy_sunglasses.pgm'
p259
I4
tp260
g3
s(S'/home/clayton/grive/www.cs.cmu.edu-afs-cs.cmu.edu-user-mitchell-ftp-faces.html/2kawamura_straight_angry_sunglasses.pgm'
p261
I20
tp262
g3
s(S'/home/clayton/grive/www.cs.cmu.edu-afs-cs.cmu.edu-user-mitchell-ftp-faces.html/6karyadi_straight_neutral_sunglasses.pgm'
p263
I7
tp264
g3
s(g261
I5
tp265
g3
s(g259
I9
tp266
g3
s(S'/home/clayton/grive/www.cs.cmu.edu-afs-cs.cmu.edu-user-mitchell-ftp-faces.html/0choon_straight_happy_open.pgm'
p267
I97
tp268
g3
s(S'/home/clayton/grive/www.cs.cmu.edu-afs-cs.cmu.edu-user-mitchell-ftp-faces.html/6danieln_straight_neutral_sunglasses.pgm'
p269
I23
tp270
g3
s(S'/home/clayton/grive/www.cs.cmu.edu-afs-cs.cmu.edu-user-mitchell-ftp-faces.html/0saavik_straight_happy_open.pgm'
p271
I89
tp272
g3
s(g126
I5
tp273
g3
s(S'/home/clayton/grive/www.cs.cmu.edu-afs-cs.cmu.edu-user-mitchell-ftp-faces.html/0megak_straight_happy_open.pgm'
p274
I113
tp275
g3
s(S'/home/clayton/grive/www.cs.cmu.edu-afs-cs.cmu.edu-user-mitchell-ftp-faces.html/0tammo_straight_happy_sunglasses.pgm'
p276
I27
tp277
g3
s(S'/home/clayton/grive/www.cs.cmu.edu-afs-cs.cmu.edu-user-mitchell-ftp-faces.html/6at33_straight_neutral_open.pgm'
p278
I85
tp279
g3
s(S'/home/clayton/grive/www.cs.cmu.edu-afs-cs.cmu.edu-user-mitchell-ftp-faces.html/1megak_straight_sad_open.pgm'
p280
I109
tp281
g3
s(g139
I85
tp282
g3
s(g211
I40
tp283
g3
s(g153
I7
tp284
g3
s(S'/home/clayton/grive/www.cs.cmu.edu-afs-cs.cmu.edu-user-mitchell-ftp-faces.html/0an2i_straight_happy_sunglasses.pgm'
p285
I14
tp286
g3
s(S'/home/clayton/grive/www.cs.cmu.edu-afs-cs.cmu.edu-user-mitchell-ftp-faces.html/2cheyer_straight_angry_open.pgm'
p287
I88
tp288
g3
s(S'/home/clayton/grive/www.cs.cmu.edu-afs-cs.cmu.edu-user-mitchell-ftp-faces.html/1at33_straight_sad_sunglasses.pgm'
p289
I35
tp290
g3
s(S'/home/clayton/grive/www.cs.cmu.edu-afs-cs.cmu.edu-user-mitchell-ftp-faces.html/2danieln_straight_angry_sunglasses.pgm'
p291
I28
tp292
g3
s(S'/home/clayton/grive/www.cs.cmu.edu-afs-cs.cmu.edu-user-mitchell-ftp-faces.html/0kk49_straight_happy_sunglasses.pgm'
p293
I41
tp294
g3
s(S'/home/clayton/grive/www.cs.cmu.edu-afs-cs.cmu.edu-user-mitchell-ftp-faces.html/2boland_straight_angry_open.pgm'
p295
I80
tp296
g3
s(g8
I4
tp297
g3
s(g104
I56
tp298
g3
s(S'/home/clayton/grive/www.cs.cmu.edu-afs-cs.cmu.edu-user-mitchell-ftp-faces.html/2tammo_straight_angry_open.pgm'
p299
I92
tp300
g3
s(S'/home/clayton/grive/www.cs.cmu.edu-afs-cs.cmu.edu-user-mitchell-ftp-faces.html/0karyadi_straight_happy_sunglasses.pgm'
p301
I12
tp302
g3
s(S'/home/clayton/grive/www.cs.cmu.edu-afs-cs.cmu.edu-user-mitchell-ftp-faces.html/6night_straight_neutral_sunglasses.pgm'
p303
I38
tp304
g3
s(S'/home/clayton/grive/www.cs.cmu.edu-afs-cs.cmu.edu-user-mitchell-ftp-faces.html/2karyadi_straight_angry_sunglasses.pgm'
p305
I6
tp306
g3
s(g246
I5
tp307
g3
s(S'/home/clayton/grive/www.cs.cmu.edu-afs-cs.cmu.edu-user-mitchell-ftp-faces.html/6cheyer_straight_neutral_sunglasses.pgm'
p308
I12
tp309
g3
s(S'/home/clayton/grive/www.cs.cmu.edu-afs-cs.cmu.edu-user-mitchell-ftp-faces.html/2night_straight_angry_open.pgm'
p310
I103
tp311
g3
s(S'/home/clayton/grive/www.cs.cmu.edu-afs-cs.cmu.edu-user-mitchell-ftp-faces.html/6mitchell_straight_neutral_open.pgm'
p312
I89
tp313
g3
s(S'/home/clayton/grive/www.cs.cmu.edu-afs-cs.cmu.edu-user-mitchell-ftp-faces.html/2karyadi_straight_angry_open.pgm'
p314
I26
tp315
g3
s.