(dp0
(S'/home/clayton/grive/www.kasrl.org-jaffe.html/1MK.SA1.119.tiff'
p1
I99
tp2
S'n'
p3
s(S'/home/clayton/grive/www.kasrl.org-jaffe.html/1MK.SA3.121.tiff'
p4
I111
tp5
g3
s(S'/home/clayton/grive/www.kasrl.org-jaffe.html/1KA.SA2.34.tiff'
p6
I62
tp7
g3
s(S'/home/clayton/grive/www.kasrl.org-jaffe.html/1TM.SA1.184.tiff'
p8
I81
tp9
g3
s(S'/home/clayton/grive/www.kasrl.org-jaffe.html/0MK.HA2.117.tiff'
p10
I99
tp11
g3
s(S'/home/clayton/grive/www.kasrl.org-jaffe.html/1NM.SA3.100.tiff'
p12
I61
tp13
g3
s(S'/home/clayton/grive/www.kasrl.org-jaffe.html/0UY.HA2.138.tiff'
p14
I89
tp15
g3
s(S'/home/clayton/grive/www.kasrl.org-jaffe.html/0KM.HA2.5.tiff'
p16
I91
tp17
g3
s(S'/home/clayton/grive/www.kasrl.org-jaffe.html/0UY.HA3.139.tiff'
p18
I89
tp19
g3
s(S'/home/clayton/grive/www.kasrl.org-jaffe.html/0KL.HA1.158.tiff'
p20
I80
tp21
g3
s(S'/home/clayton/grive/www.kasrl.org-jaffe.html/1KM.SA5.13.tiff'
p22
I94
tp23
g3
s(S'/home/clayton/grive/www.kasrl.org-jaffe.html/1NM.SA1.98.tiff'
p24
I54
tp25
g3
s(S'/home/clayton/grive/www.kasrl.org-jaffe.html/0YM.HA3.54.tiff'
p26
I101
tp27
g3
s(S'/home/clayton/grive/www.kasrl.org-jaffe.html/0MK.HA1.116.tiff'
p28
I105
tp29
g3
s(S'/home/clayton/grive/www.kasrl.org-jaffe.html/0MK.HA3.118.tiff'
p30
I100
tp31
g3
s(S'/home/clayton/grive/www.kasrl.org-jaffe.html/0KM.HA4.7.tiff'
p32
I95
tp33
g3
s(S'/home/clayton/grive/www.kasrl.org-jaffe.html/0KA.HA3.31.tiff'
p34
I69
tp35
g3
s(S'/home/clayton/grive/www.kasrl.org-jaffe.html/0TM.HA3.182.tiff'
p36
I85
tp37
g3
s(S'/home/clayton/grive/www.kasrl.org-jaffe.html/0NM.HA2.96.tiff'
p38
I66
tp39
g3
s(S'/home/clayton/grive/www.kasrl.org-jaffe.html/1KR.SA2.78.tiff'
p40
I57
tp41
g3
s(S'/home/clayton/grive/www.kasrl.org-jaffe.html/1NA.SA1.205.tiff'
p42
I78
tp43
g3
s(S'/home/clayton/grive/www.kasrl.org-jaffe.html/1KM.SA3.11.tiff'
p44
I81
tp45
g3
s(S'/home/clayton/grive/www.kasrl.org-jaffe.html/1NA.SA3.207.tiff'
p46
I86
tp47
g3
s(S'/home/clayton/grive/www.kasrl.org-jaffe.html/0NA.HA1.202.tiff'
p48
I76
tp49
g3
s(S'/home/clayton/grive/www.kasrl.org-jaffe.html/1KA.SA1.33.tiff'
p50
I69
tp51
g3
s(S'/home/clayton/grive/www.kasrl.org-jaffe.html/1TM.SA2.185.tiff'
p52
I78
tp53
g3
s(S'/home/clayton/grive/www.kasrl.org-jaffe.html/0NA.HA2.203.tiff'
p54
I82
tp55
g3
s(S'/home/clayton/grive/www.kasrl.org-jaffe.html/0KR.HA2.75.tiff'
p56
I67
tp57
g3
s(S'/home/clayton/grive/www.kasrl.org-jaffe.html/0TM.HA2.181.tiff'
p58
I91
tp59
g3
s(S'/home/clayton/grive/www.kasrl.org-jaffe.html/0KA.HA4.32.tiff'
p60
I50
tp61
g3
s(S'/home/clayton/grive/www.kasrl.org-jaffe.html/1KL.SA1.161.tiff'
p62
I83
tp63
g3
s(S'/home/clayton/grive/www.kasrl.org-jaffe.html/1KL.SA3.163.tiff'
p64
I92
tp65
g3
s(S'/home/clayton/grive/www.kasrl.org-jaffe.html/0KL.HA3.160.tiff'
p66
I88
tp67
g3
s(S'/home/clayton/grive/www.kasrl.org-jaffe.html/1NM.SA2.99.tiff'
p68
I53
tp69
g3
s(S'/home/clayton/grive/www.kasrl.org-jaffe.html/0KR.HA1.74.tiff'
p70
I65
tp71
g3
s(S'/home/clayton/grive/www.kasrl.org-jaffe.html/0NM.HA1.95.tiff'
p72
I61
tp73
g3
s(S'/home/clayton/grive/www.kasrl.org-jaffe.html/0KM.HA1.4.tiff'
p74
I85
tp75
g3
s(S'/home/clayton/grive/www.kasrl.org-jaffe.html/1KA.SA3.35.tiff'
p76
I56
tp77
g3
s(S'/home/clayton/grive/www.kasrl.org-jaffe.html/0KA.HA1.29.tiff'
p78
I74
tp79
g3
s(S'/home/clayton/grive/www.kasrl.org-jaffe.html/0NA.HA3.204.tiff'
p80
I89
tp81
g3
s(S'/home/clayton/grive/www.kasrl.org-jaffe.html/0YM.HA2.53.tiff'
p82
I103
tp83
g3
s(S'/home/clayton/grive/www.kasrl.org-jaffe.html/1KL.SA2.162.tiff'
p84
I89
tp85
g3
s(S'/home/clayton/grive/www.kasrl.org-jaffe.html/1KR.SA3.79.tiff'
p86
I70
tp87
g3
s(S'/home/clayton/grive/www.kasrl.org-jaffe.html/0UY.HA1.137.tiff'
p88
I89
tp89
g3
s(S'/home/clayton/grive/www.kasrl.org-jaffe.html/1NA.SA2.206.tiff'
p90
I82
tp91
g3
s(S'/home/clayton/grive/www.kasrl.org-jaffe.html/0KL.HA2.159.tiff'
p92
I83
tp93
g3
s(S'/home/clayton/grive/www.kasrl.org-jaffe.html/0NM.HA3.97.tiff'
p94
I69
tp95
g3
s(S'/home/clayton/grive/www.kasrl.org-jaffe.html/1MK.SA2.120.tiff'
p96
I108
tp97
g3
s(S'/home/clayton/grive/www.kasrl.org-jaffe.html/0TM.HA1.180.tiff'
p98
I93
tp99
g3
s(S'/home/clayton/grive/www.kasrl.org-jaffe.html/1KM.SA1.9.tiff'
p100
I81
tp101
g3
s(S'/home/clayton/grive/www.kasrl.org-jaffe.html/0KA.HA2.30.tiff'
p102
I72
tp103
g3
s(S'/home/clayton/grive/www.kasrl.org-jaffe.html/1KR.SA1.77.tiff'
p104
I60
tp105
g3
s(S'/home/clayton/grive/www.kasrl.org-jaffe.html/1KM.SA2.10.tiff'
p106
I85
tp107
g3
s(S'/home/clayton/grive/www.kasrl.org-jaffe.html/0KM.HA3.6.tiff'
p108
I78
tp109
g3
s(S'/home/clayton/grive/www.kasrl.org-jaffe.html/0YM.HA1.52.tiff'
p110
I107
tp111
g3
s.