(dp0
(S'/home/clayton/grive/pics/3wC8A7AD15-B749-2EF7-395E-3567AFF409A3.jpg'
p1
I45
tp2
S'n'
p3
s(S'/home/clayton/grive/pics/6w3AC58273-1249-F4C2-3A1C-289D10094EB9.jpg'
p4
I107
tp5
S'y'
p6
s(S'/home/clayton/grive/pics/1m81793c88-5a77-4c1a-96b9-19113f792758.jpg'
p7
I51
tp8
S'y'
p9
s(S'/home/clayton/grive/pics/0wEE5485BA-9F02-B81F-7B8A-D865E20BE312.jpg'
p10
I40
tp11
S'y'
p12
s(S'/home/clayton/grive/pics/4w4123FC40-659C-BBF1-A29E-29652EC92828.jpg'
p13
I76
tp14
g3
s(S'/home/clayton/grive/pics/4w9FB993B7-8646-7117-CD23-27C2F4C7EC67.jpg'
p15
I122
tp16
g6
s(S'/home/clayton/grive/pics/3w547FEF42-FCBE-B966-D617-2888E39F4498.jpg'
p17
I34
tp18
g3
s(S'/home/clayton/grive/pics/2w57166D0D-8403-104C-6BEA-2F07DBC2E389.jpg'
p19
I43
tp20
g6
s(S'/home/clayton/grive/pics/0KuoGlassesHappy.jpg'
p21
I72
tp22
g6
s(S'/home/clayton/grive/pics/6w75A71932-7631-6493-AA4D-CD72B83F1138.jpg'
p23
I93
tp24
g9
s(S'/home/clayton/grive/pics/6wC8A7AD15-B749-2EF7-395E-3567AFF409A3.jpg'
p25
I7
tp26
S's'
p27
s(S'/home/clayton/grive/pics/0DSCN0309.JPG'
p28
I6
tp29
g27
s(S'/home/clayton/grive/pics/6wEFC295BD-AB8D-C93F-1AEF-332E960B6391.jpg'
p30
I25
tp31
g6
s(S'/home/clayton/grive/pics/3w2C9F8C42-E900-B747-C962-465A32A9CCE7.jpg'
p32
I5
tp33
g27
s(S'/home/clayton/grive/pics/1w9D75EFDC-3AE6-E0D7-C7F4-28316CCF01BA.jpg'
p34
I78
tp35
g6
s(S'/home/clayton/grive/pics/4wC8A7AD15-B749-2EF7-395E-3567AFF409A3.jpg'
p36
I44
tp37
g6
s(S'/home/clayton/grive/pics/6wD445B589-5883-3783-A84A-29622D8DBC8C.jpg'
p38
I75
tp39
g6
s(S'/home/clayton/grive/pics/0w7E85E5B5-F196-987E-51DD-2EC43C62E76D.jpg'
p40
I73
tp41
g6
s(S'/home/clayton/grive/pics/5wC8D3294A-B9A8-6A3A-8331-465651FB65F4.jpg'
p42
I85
tp43
g6
s(S'/home/clayton/grive/pics/6w455E62E6-5EAF-9986-F10E-383E9405062F.jpg'
p44
I59
tp45
g6
s(S'/home/clayton/grive/pics/4wD2C8420A-CA69-4783-1899-278856A49F4B.jpg'
p46
I26
tp47
g6
s(S'/home/clayton/grive/pics/2w809F0A15-03D4-873B-62D0-6B3146FEE7CF.jpg'
p48
I74
tp49
g6
s(S'/home/clayton/grive/pics/3m58c6be84-7243-4efb-b579-ce026defc3d2.jpg'
p50
I33
tp51
g9
s(S'/home/clayton/grive/pics/4w5D592E12-AEF9-B530-374E-3322B125D1A1.jpg'
p52
I75
tp53
g3
s(S'/home/clayton/grive/pics/6wEE5485BA-9F02-B81F-7B8A-D865E20BE312.jpg'
p54
I44
tp55
g12
s(S'/home/clayton/grive/pics/2w70574034-301E-9568-EB56-389E0E002C5E.jpg'
p56
I56
tp57
g6
s(S'/home/clayton/grive/pics/4w04AB60B8-053D-0086-A395-4698C6ECDA34.jpg'
p58
I49
tp59
g6
s(S'/home/clayton/grive/pics/2m3489e795-35d9-4bc6-83c2-0b80c5b780ea.jpg'
p60
I10
tp61
S's'
p62
s(S'/home/clayton/grive/pics/6Neutral.jpg (Case Conflict 1)'
p63
I55
tp64
g6
s(S'/home/clayton/grive/pics/0w656B02A8-518C-90F3-7234-38211A0CD399.jpg'
p65
I39
tp66
g6
s(S'/home/clayton/grive/pics/1wA8290F86-C077-9F89-F9F7-464D6C6DEA5F.jpg'
p67
I35
tp68
g6
s(S'/home/clayton/grive/pics/2KuoGlassesAngry.jpg'
p69
I77
tp70
g6
s(S'/home/clayton/grive/pics/0m0792947c-37db-4047-bef9-7a582d6f6fca.jpg'
p71
I30
tp72
g12
s(S'/home/clayton/grive/pics/6w66F66B26-FBE8-A425-CDA6-D0273FBE14F2.jpg'
p73
I49
tp74
g12
s(S'/home/clayton/grive/pics/6w12EC627A-1192-EC96-EEC9-489DEAE24E0B.jpg'
p75
I49
tp76
g6
s(S'/home/clayton/grive/pics/2w9FB993B7-8646-7117-CD23-27C2F4C7EC67.jpg'
p77
I5
tp78
g27
s(S'/home/clayton/grive/pics/2w7F7338BC-E565-8DED-FB80-46627677A6C7.jpg'
p79
I75
tp80
g3
s(S'/home/clayton/grive/pics/3m38b89e01-3e85-484d-b908-782035034769.jpg'
p81
I14
tp82
S'n'
p83
s(S'/home/clayton/grive/pics/5w038FF51B-B514-1E4A-1F79-37ACE961D312.jpg'
p84
I55
tp85
g3
s(S'/home/clayton/grive/pics/6w0C837C12-99DE-6798-DCC0-6B372D9B14DF.jpg'
p86
I58
tp87
g6
s(S'/home/clayton/grive/pics/6w2FF168A3-54B0-C7D9-47C9-37FA318D713D.jpg'
p88
I8
tp89
g6
s(S'/home/clayton/grive/pics/3w9E129634-2C33-C86B-30F7-6B6F8AB2AF22.jpg'
p90
I5
tp91
g27
s(g28
I59
tp92
g6
s(S'/home/clayton/grive/pics/6wA17C2882-CBD3-D872-556E-45F7E2047628.jpg'
p93
I7
tp94
g27
s(S'/home/clayton/grive/pics/0wB6218480-F680-6013-04E0-38A57AE3C9A5.jpg'
p95
I81
tp96
g6
s(S'/home/clayton/grive/pics/0Snapshot_20130218_1.JPG'
p97
I46
tp98
g6
s(S'/home/clayton/grive/pics/0wC8D3294A-B9A8-6A3A-8331-465651FB65F4.jpg'
p99
I74
tp100
g6
s(S'/home/clayton/grive/pics/0Happy.jpg (Case Conflict 2)'
p101
I67
tp102
g6
s(S'/home/clayton/grive/pics/0w455E62E6-5EAF-9986-F10E-383E9405062F.jpg'
p103
I44
tp104
g6
s(S'/home/clayton/grive/pics/1wBE3974B4-A678-56B4-9610-286BC7FB53FC.jpg'
p105
I34
tp106
g6
s(S'/home/clayton/grive/pics/5w4ACD6E21-0751-DEA6-DB60-2F0500DBF231.jpg'
p107
I83
tp108
g6
s(S'/home/clayton/grive/pics/3w809F0A15-03D4-873B-62D0-6B3146FEE7CF.jpg'
p109
I40
tp110
g6
s(S'/home/clayton/grive/pics/0wA78D46C1-F503-3E91-F99D-6B2FA22B3D14.jpg'
p111
I71
tp112
g6
s(S'/home/clayton/grive/pics/5wD6ABCA51-AA30-AB83-36E3-3D933B925793.jpg'
p113
I4
tp114
g27
s(S'/home/clayton/grive/pics/3-Surprised.JPG'
p115
I5
tp116
g27
s(S'/home/clayton/grive/pics/5w62D19778-1AA6-13C2-004F-389AF747333D.jpg'
p117
I33
tp118
g6
s(S'/home/clayton/grive/pics/2wB75D3F87-A36C-1CFC-5730-28E28C577A75.jpg'
p119
I74
tp120
g3
s(S'/home/clayton/grive/pics/5w0D1FB1C2-D30A-E25F-2EBB-27E9151B697F.jpg'
p121
I23
tp122
g3
s(S'/home/clayton/grive/pics/0w2C6C7917-E34A-87BF-D366-2849EADFBD8B.jpg'
p123
I27
tp124
g6
s(S'/home/clayton/grive/pics/5wF7EB9296-7FE8-1C37-2486-4CDB6B286E59.jpg'
p125
I59
tp126
g3
s(S'/home/clayton/grive/pics/2w4A42FC32-7901-26E1-A91B-33331AA34C92.jpg'
p127
I26
tp128
g6
s(S'/home/clayton/grive/pics/1wD2C8420A-CA69-4783-1899-278856A49F4B.jpg'
p129
I29
tp130
g6
s(S'/home/clayton/grive/pics/6w10F317F3-9F1E-F59C-B335-38A8ADEE47AF.jpg'
p131
I62
tp132
g3
s(S'/home/clayton/grive/pics/2wC89E1EA6-6B03-0107-19C6-312038C89CA1.jpg'
p133
I67
tp134
g3
s(S'/home/clayton/grive/pics/4w12EC627A-1192-EC96-EEC9-489DEAE24E0B.jpg'
p135
I49
tp136
g3
s(S'/home/clayton/grive/pics/6w01343164-B10C-A805-EF2F-2D0A02E780D0.jpg'
p137
I92
tp138
g6
s(S'/home/clayton/grive/pics/0m158a7b3d-0ea7-4403-ba3e-16b56aaa4db0.jpg'
p139
I9
tp140
g9
s(S'/home/clayton/grive/pics/6w6A3CAB4F-95AC-25CB-4CD4-2D0EA445F376.jpg'
p141
I64
tp142
g6
s(S'/home/clayton/grive/pics/6m9660a96e-a888-40cd-b380-7d3761693c17.jpg'
p143
I87
tp144
g9
s(S'/home/clayton/grive/pics/4wD445B589-5883-3783-A84A-29622D8DBC8C.jpg'
p145
I72
tp146
g6
s(S'/home/clayton/grive/pics/0wE953282F-1713-2679-406D-285C8932B012.jpg'
p147
I26
tp148
g6
s(S'/home/clayton/grive/pics/6w70574034-301E-9568-EB56-389E0E002C5E.jpg'
p149
I51
tp150
g6
s(S'/home/clayton/grive/pics/3wDF2DC2D6-F1E3-1B71-20E2-467A671A3D60.jpg'
p151
I28
tp152
g3
s(S'/home/clayton/grive/pics/4m3489e795-35d9-4bc6-83c2-0b80c5b780ea.jpg'
p153
I10
tp154
g9
s(S'/home/clayton/grive/pics/3md99d5900-5461-41eb-adb1-8681a6885dc6.jpg'
p155
I36
tp156
g83
s(S'/home/clayton/grive/pics/4wF38C5939-5878-3826-255B-37EF8300E8D1.jpg'
p157
I51
tp158
g6
s(S'/home/clayton/grive/pics/6md99d5900-5461-41eb-adb1-8681a6885dc6.jpg'
p159
I43
tp160
g83
s(S'/home/clayton/grive/pics/1m6ce740af-da51-4c19-92ce-7b9d9adba5fe.jpg'
p161
I17
tp162
S'n'
p163
s(S'/home/clayton/grive/pics/3wD6ABCA51-AA30-AB83-36E3-3D933B925793.jpg'
p164
I5
tp165
g27
s(S'/home/clayton/grive/pics/0w9A37A263-9801-0A1A-312E-3334DD7F32AC.jpg'
p166
I63
tp167
g6
s(S'/home/clayton/grive/pics/3wA78D46C1-F503-3E91-F99D-6B2FA22B3D14.jpg'
p168
I35
tp169
g6
s(S'/home/clayton/grive/pics/1w422A3E39-00CD-54DC-F42A-332478449BD6.jpg'
p170
I83
tp171
g6
s(S'/home/clayton/grive/pics/1w7F7338BC-E565-8DED-FB80-46627677A6C7.jpg'
p172
I74
tp173
g3
s(S'/home/clayton/grive/pics/5m040789e6-8b61-484e-b935-203eeeaf5a7f.jpg'
p174
I72
tp175
g12
s(S'/home/clayton/grive/pics/6wC8D3294A-B9A8-6A3A-8331-465651FB65F4.jpg'
p176
I70
tp177
g6
s(S'/home/clayton/grive/pics/2wEE5485BA-9F02-B81F-7B8A-D865E20BE312.jpg'
p178
I73
tp179
g12
s(S'/home/clayton/grive/pics/0w42122DD0-1D98-3417-ED3C-3CD7325AEF4E.jpg'
p180
I42
tp181
g6
s(S'/home/clayton/grive/pics/5wBE6C87EF-3D62-189A-34DB-33F0A359A14F.jpg'
p182
I15
tp183
g6
s(S'/home/clayton/grive/pics/4wEE5FC257-9937-1847-8A4C-31E98B5E3AC3.jpg'
p184
I47
tp185
g6
s(S'/home/clayton/grive/pics/2w038FF51B-B514-1E4A-1F79-37ACE961D312.jpg'
p186
I56
tp187
g6
s(S'/home/clayton/grive/pics/3wA186136D-64B7-7288-372F-3843E2F6EAC4.jpg'
p188
I41
tp189
g6
s(S'/home/clayton/grive/pics/3w275D2B77-AD50-E6CD-0121-D80138F626AC.jpg'
p190
I42
tp191
g12
s(S'/home/clayton/grive/pics/6w77EDF533-C254-FD89-6404-4660A2F03302.jpg'
p192
I42
tp193
g6
s(S'/home/clayton/grive/pics/0w2FF168A3-54B0-C7D9-47C9-37FA318D713D.jpg'
p194
I11
tp195
g27
s(S'/home/clayton/grive/pics/6w57166D0D-8403-104C-6BEA-2F07DBC2E389.jpg'
p196
I10
tp197
g27
s(S'/home/clayton/grive/pics/4w9CF2D657-F38A-A867-1844-64AF3A43DEAA.jpg'
p198
I54
tp199
g3
s(S'/home/clayton/grive/pics/0w5F3E20F0-CA15-AB7C-C873-3329D70151F2.jpg'
p200
I38
tp201
g6
s(S'/home/clayton/grive/pics/5w4A42FC32-7901-26E1-A91B-33331AA34C92.jpg'
p202
I39
tp203
g6
s(S'/home/clayton/grive/pics/0happy11.JPG'
p204
I35
tp205
g6
s(S'/home/clayton/grive/pics/6wAEFC7C09-CD73-3B8E-A369-7AFA0E31AF3D.jpg'
p206
I33
tp207
g6
s(S'/home/clayton/grive/pics/5w0AAA0AC9-6F8F-E71E-133D-46E81C08DACC.jpg'
p208
I41
tp209
g6
s(S'/home/clayton/grive/pics/4wB7907848-2DA7-2CBC-9171-46E1D7C304D7.jpg'
p210
I51
tp211
g6
s(S'/home/clayton/grive/pics/0-Happy.JPG'
p212
I6
tp213
g27
s(S'/home/clayton/grive/pics/1m3a33b8ba-bfdc-4061-a7b3-4c7fcc6839b7.jpg'
p214
I84
tp215
g12
s(S'/home/clayton/grive/pics/3wB3B65A5B-6FD6-FB6B-DC2C-3797ABC3D83E.jpg'
p216
I43
tp217
g6
s(S'/home/clayton/grive/pics/3w01343164-B10C-A805-EF2F-2D0A02E780D0.jpg'
p218
I55
tp219
g6
s(g1
I11
tp220
g27
s(S'/home/clayton/grive/pics/6w3439D79B-2F14-0A7C-A485-3D9751A5715E.jpg'
p221
I27
tp222
g3
s(S'/home/clayton/grive/pics/5wC8A7AD15-B749-2EF7-395E-3567AFF409A3.jpg'
p223
I7
tp224
g27
s(S'/home/clayton/grive/pics/6m158a7b3d-0ea7-4403-ba3e-16b56aaa4db0.jpg'
p225
I54
tp226
g9
s(S'/home/clayton/grive/pics/1w04AB60B8-053D-0086-A395-4698C6ECDA34.jpg'
p227
I54
tp228
g3
s(S'/home/clayton/grive/pics/4m38b89e01-3e85-484d-b908-782035034769.jpg'
p229
I8
tp230
g9
s(S'/home/clayton/grive/pics/5wCFBE9FE8-526E-B206-585D-7A9FA92FD844.jpg'
p231
I71
tp232
g6
s(S'/home/clayton/grive/pics/2wD9E9B0A8-7D98-A0F3-9A06-37ECA03E6425.jpg'
p233
I27
tp234
g3
s(S'/home/clayton/grive/pics/6wD6ABCA51-AA30-AB83-36E3-3D933B925793.jpg'
p235
I4
tp236
g27
s(S'/home/clayton/grive/pics/1Snapshot_20130218_5.JPG'
p237
I53
tp238
g6
s(S'/home/clayton/grive/pics/6w45F00E26-EEF8-ADBC-B511-379A0FB86DFF.jpg'
p239
I9
tp240
g6
s(S'/home/clayton/grive/pics/0wA8290F86-C077-9F89-F9F7-464D6C6DEA5F.jpg'
p241
I26
tp242
g6
s(S'/home/clayton/grive/pics/1w30492B57-425C-19D5-B21A-38A9A06B20F8.jpg'
p243
I11
tp244
g6
s(S'/home/clayton/grive/pics/4m0792947c-37db-4047-bef9-7a582d6f6fca.jpg'
p245
I19
tp246
g12
s(S'/home/clayton/grive/pics/4wF6EF8C51-B792-9FCF-687D-3333BA797012.jpg'
p247
I28
tp248
g6
s(S'/home/clayton/grive/pics/1sad_david_bates.jpg'
p249
I4
tp250
g6
s(S'/home/clayton/grive/pics/3w62D19778-1AA6-13C2-004F-389AF747333D.jpg'
p251
I17
tp252
g6
s(S'/home/clayton/grive/pics/2m158a7b3d-0ea7-4403-ba3e-16b56aaa4db0.jpg'
p253
I44
tp254
g9
s(S'/home/clayton/grive/pics/2mbfafedbe-f2cf-4c12-b287-c50e7850c5eb.jpg'
p255
I35
tp256
g9
s(S'/home/clayton/grive/pics/6w6C9F7832-CE9D-15A0-5DA4-6B8CFF5E8490.jpg'
p257
I73
tp258
g6
s(S'/home/clayton/grive/pics/3w7B52AA0B-3547-4AAC-D109-389D5596BF39.jpg'
p259
I31
tp260
g6
s(S'/home/clayton/grive/pics/4md99d5900-5461-41eb-adb1-8681a6885dc6.jpg'
p261
I7
tp262
g62
s(g88
I4
tp263
g27
s(S'/home/clayton/grive/pics/5wF81457BB-C846-A3E9-4C02-DD6128BED15B.jpg'
p264
I135
tp265
g12
s(S'/home/clayton/grive/pics/3wD61ACB92-52ED-6679-0D80-38A0B91ACF94.jpg'
p266
I41
tp267
g6
s(S'/home/clayton/grive/pics/0w545D8371-906B-59FB-3297-3D9D8D822C99.jpg'
p268
I56
tp269
g6
s(S'/home/clayton/grive/pics/0wE0CA5A8E-D4F8-F93F-8845-CD71832C5BEC.jpg'
p270
I84
tp271
g9
s(S'/home/clayton/grive/pics/0wA186136D-64B7-7288-372F-3843E2F6EAC4.jpg'
p272
I53
tp273
g6
s(S'/home/clayton/grive/pics/2w2B02DD01-5BAB-ABA0-2EAF-3833D439A739.jpg'
p274
I133
tp275
g6
s(S'/home/clayton/grive/pics/4w9142C5B8-00C3-B41B-B5F7-7B04092215BC.jpg'
p276
I13
tp277
g6
s(S'/home/clayton/grive/pics/3Surprised.jpg (Case Conflict 2)'
p278
I37
tp279
g6
s(S'/home/clayton/grive/pics/4w45F00E26-EEF8-ADBC-B511-379A0FB86DFF.jpg'
p280
I13
tp281
g6
s(S'/home/clayton/grive/pics/4KuoScared.jpg'
p282
I107
tp283
g6
s(S'/home/clayton/grive/pics/6wF7EB9296-7FE8-1C37-2486-4CDB6B286E59.jpg'
p284
I74
tp285
g6
s(S'/home/clayton/grive/pics/5wDF2DC2D6-F1E3-1B71-20E2-467A671A3D60.jpg'
p286
I29
tp287
g6
s(S'/home/clayton/grive/pics/1wE953282F-1713-2679-406D-285C8932B012.jpg'
p288
I11
tp289
g3
s(S'/home/clayton/grive/pics/1w86213EB0-EFE5-91A5-6308-4CE43B9C4ABB.jpg'
p290
I47
tp291
g6
s(S'/home/clayton/grive/pics/1wF38C5939-5878-3826-255B-37EF8300E8D1.jpg'
p292
I26
tp293
g6
s(S'/home/clayton/grive/pics/5wD5BE1562-F05B-1AA8-6290-37EE9C424B0E.jpg'
p294
I53
tp295
g3
s(S'/home/clayton/grive/pics/4w9A37A263-9801-0A1A-312E-3334DD7F32AC.jpg'
p296
I50
tp297
g6
s(S'/home/clayton/grive/pics/3wE953282F-1713-2679-406D-285C8932B012.jpg'
p298
I21
tp299
g3
s(S'/home/clayton/grive/pics/5m3a33b8ba-bfdc-4061-a7b3-4c7fcc6839b7.jpg'
p300
I64
tp301
g12
s(g168
I11
tp302
g27
s(S'/home/clayton/grive/pics/3wD5BE1562-F05B-1AA8-6290-37EE9C424B0E.jpg'
p303
I26
tp304
g6
s(S'/home/clayton/grive/pics/1wAE00083F-0B9D-4EED-63B7-2757C366CB50.jpg'
p305
I70
tp306
g6
s(S'/home/clayton/grive/pics/2m9660a96e-a888-40cd-b380-7d3761693c17.jpg'
p307
I5
tp308
g62
s(S'/home/clayton/grive/pics/3DSCN0308.JPG'
p309
I69
tp310
g6
s(S'/home/clayton/grive/pics/6m3a33b8ba-bfdc-4061-a7b3-4c7fcc6839b7.jpg'
p311
I4
tp312
S's'
p313
s(g90
I42
tp314
g6
s(S'/home/clayton/grive/pics/4w2FF168A3-54B0-C7D9-47C9-37FA318D713D.jpg'
p315
I8
tp316
g27
s(S'/home/clayton/grive/pics/0w8039E961-EE34-7805-4B54-D80D2BE38F57.jpg'
p317
I13
tp318
g12
s(S'/home/clayton/grive/pics/0w86213EB0-EFE5-91A5-6308-4CE43B9C4ABB.jpg'
p319
I36
tp320
g6
s(S'/home/clayton/grive/pics/1w2C6C7917-E34A-87BF-D366-2849EADFBD8B.jpg'
p321
I35
tp322
g3
s(g261
I38
tp323
g83
s(g93
I86
tp324
g6
s(S'/home/clayton/grive/pics/6wA78D46C1-F503-3E91-F99D-6B2FA22B3D14.jpg'
p325
I66
tp326
g6
s(S'/home/clayton/grive/pics/2w157643A0-E4FE-5F90-C9B1-465764731874.jpg'
p327
I7
tp328
g3
s(S'/home/clayton/grive/pics/1wD61ACB92-52ED-6679-0D80-38A0B91ACF94.jpg'
p329
I64
tp330
g3
s(S'/home/clayton/grive/pics/4mfdc9ff7d-8480-4e52-940b-33d65b5f09d9.jpg'
p331
I58
tp332
g83
s(S'/home/clayton/grive/pics/2DSCN0310.JPG'
p333
I92
tp334
g3
s(S'/home/clayton/grive/pics/1wD5BE1562-F05B-1AA8-6290-37EE9C424B0E.jpg'
p335
I24
tp336
g6
s(S'/home/clayton/grive/pics/3wD445B589-5883-3783-A84A-29622D8DBC8C.jpg'
p337
I74
tp338
g6
s(S'/home/clayton/grive/pics/0w157643A0-E4FE-5F90-C9B1-465764731874.jpg'
p339
I29
tp340
g6
s(S'/home/clayton/grive/pics/5wE953282F-1713-2679-406D-285C8932B012.jpg'
p341
I18
tp342
g3
s(S'/home/clayton/grive/pics/4w3439D79B-2F14-0A7C-A485-3D9751A5715E.jpg'
p343
I25
tp344
g3
s(S'/home/clayton/grive/pics/5w9CF2D657-F38A-A867-1844-64AF3A43DEAA.jpg'
p345
I33
tp346
g6
s(g88
I9
tp347
g27
s(S'/home/clayton/grive/pics/5w9142C5B8-00C3-B41B-B5F7-7B04092215BC.jpg'
p348
I15
tp349
g3
s(S'/home/clayton/grive/pics/6wB75D3F87-A36C-1CFC-5730-28E28C577A75.jpg'
p350
I55
tp351
g3
s(S'/home/clayton/grive/pics/4w157643A0-E4FE-5F90-C9B1-465764731874.jpg'
p352
I29
tp353
g6
s(S'/home/clayton/grive/pics/6m38b89e01-3e85-484d-b908-782035034769.jpg'
p354
I39
tp355
g9
s(S'/home/clayton/grive/pics/0w4123FC40-659C-BBF1-A29E-29652EC92828.jpg'
p356
I15
tp357
g27
s(S'/home/clayton/grive/pics/3m8e9ff3d6-a4ff-4675-848b-314010102ee8.jpg'
p358
I48
tp359
g12
s(S'/home/clayton/grive/pics/6wF51ABC70-E908-AA82-8C29-D8B59FE8C62F.jpg'
p360
I55
tp361
g12
s(S'/home/clayton/grive/pics/4wAC2868E4-B636-2A84-4932-D85F939963F1.jpg'
p362
I33
tp363
g12
s(S'/home/clayton/grive/pics/1wB7907848-2DA7-2CBC-9171-46E1D7C304D7.jpg'
p364
I30
tp365
g6
s(S'/home/clayton/grive/pics/2wCFBE9FE8-526E-B206-585D-7A9FA92FD844.jpg'
p366
I74
tp367
g6
s(S'/home/clayton/grive/pics/3w0CC8EC66-FAA1-705C-0776-4AE9EA516A65.jpg'
p368
I64
tp369
g6
s(S'/home/clayton/grive/pics/4w656B02A8-518C-90F3-7234-38211A0CD399.jpg'
p370
I40
tp371
g6
s(S'/home/clayton/grive/pics/1w3EC88953-2C9A-08EE-D3A5-465D5B7072D4.jpg'
p372
I72
tp373
g6
s(S'/home/clayton/grive/pics/0w3F606B5D-77FB-F545-EEF4-36CCC8791888.jpg'
p374
I16
tp375
g27
s(S'/home/clayton/grive/pics/4w2B02DD01-5BAB-ABA0-2EAF-3833D439A739.jpg'
p376
I121
tp377
g6
s(S'/home/clayton/grive/pics/2w77EDF533-C254-FD89-6404-4660A2F03302.jpg'
p378
I9
tp379
g27
s(S'/home/clayton/grive/pics/1wEBD68548-E683-453C-76FA-387540224631.jpg'
p380
I5
tp381
g27
s(S'/home/clayton/grive/pics/0w9E129634-2C33-C86B-30F7-6B6F8AB2AF22.jpg'
p382
I72
tp383
g6
s(S'/home/clayton/grive/pics/3w3F606B5D-77FB-F545-EEF4-36CCC8791888.jpg'
p384
I35
tp385
g27
s(S'/home/clayton/grive/pics/0wBE3974B4-A678-56B4-9610-286BC7FB53FC.jpg'
p386
I85
tp387
g6
s(S'/home/clayton/grive/pics/6w3F606B5D-77FB-F545-EEF4-36CCC8791888.jpg'
p388
I21
tp389
g27
s(S'/home/clayton/grive/pics/1w7E85E5B5-F196-987E-51DD-2EC43C62E76D.jpg'
p390
I61
tp391
g6
s(S'/home/clayton/grive/pics/3wCFBE9FE8-526E-B206-585D-7A9FA92FD844.jpg'
p392
I57
tp393
g6
s(S'/home/clayton/grive/pics/0wD5BE1562-F05B-1AA8-6290-37EE9C424B0E.jpg'
p394
I20
tp395
g6
s(S'/home/clayton/grive/pics/0wAC2868E4-B636-2A84-4932-D85F939963F1.jpg'
p396
I20
tp397
g12
s(S'/home/clayton/grive/pics/2Angry.jpg (Case Conflict 2)'
p398
I62
tp399
g3
s(S'/home/clayton/grive/pics/2w45F00E26-EEF8-ADBC-B511-379A0FB86DFF.jpg'
p400
I30
tp401
g6
s(S'/home/clayton/grive/pics/0w1DA4F3B0-46AF-07D5-6E56-2A8D17618C41.jpg'
p402
I34
tp403
g6
s(S'/home/clayton/grive/pics/5m9340b0af-fe78-4190-bcf7-13abbdf650b9.jpg'
p404
I6
tp405
g313
s(S'/home/clayton/grive/pics/0wBE6C87EF-3D62-189A-34DB-33F0A359A14F.jpg'
p406
I8
tp407
g27
s(S'/home/clayton/grive/pics/3wD9E9B0A8-7D98-A0F3-9A06-37ECA03E6425.jpg'
p408
I43
tp409
g3
s(S'/home/clayton/grive/pics/3m158a7b3d-0ea7-4403-ba3e-16b56aaa4db0.jpg'
p410
I51
tp411
g83
s(S'/home/clayton/grive/pics/0wA17C2882-CBD3-D872-556E-45F7E2047628.jpg'
p412
I92
tp413
g6
s(S'/home/clayton/grive/pics/2w545D8371-906B-59FB-3297-3D9D8D822C99.jpg'
p414
I46
tp415
g6
s(S'/home/clayton/grive/pics/4wA186136D-64B7-7288-372F-3843E2F6EAC4.jpg'
p416
I60
tp417
g6
s(S'/home/clayton/grive/pics/3w8CE97341-98AC-5D5E-73AB-46736817D056.jpg'
p418
I14
tp419
g27
s(S'/home/clayton/grive/pics/3wEA81AD9F-C919-7319-BDCE-333C59C6579E.jpg'
p420
I29
tp421
g6
s(S'/home/clayton/grive/pics/6wEE5FC257-9937-1847-8A4C-31E98B5E3AC3.jpg'
p422
I37
tp423
g6
s(S'/home/clayton/grive/pics/3w6C9F7832-CE9D-15A0-5DA4-6B8CFF5E8490.jpg'
p424
I41
tp425
g6
s(S'/home/clayton/grive/pics/0w809F0A15-03D4-873B-62D0-6B3146FEE7CF.jpg'
p426
I67
tp427
g6
s(S'/home/clayton/grive/pics/5w24FD90A0-B0EF-2E69-7527-48907DFAB4FA.jpg'
p428
I8
tp429
g27
s(S'/home/clayton/grive/pics/0wF7EB9296-7FE8-1C37-2486-4CDB6B286E59.jpg'
p430
I101
tp431
g6
s(g184
I14
tp432
g27
s(S'/home/clayton/grive/pics/6m58c6be84-7243-4efb-b579-ce026defc3d2.jpg'
p433
I37
tp434
g9
s(S'/home/clayton/grive/pics/1wD6ABCA51-AA30-AB83-36E3-3D933B925793.jpg'
p435
I4
tp436
g6
s(S'/home/clayton/grive/pics/3mbfafedbe-f2cf-4c12-b287-c50e7850c5eb.jpg'
p437
I41
tp438
g9
s(S'/home/clayton/grive/pics/0w6D8B00F1-237C-5070-C5C5-2725674902D4.jpg'
p439
I68
tp440
g6
s(S'/home/clayton/grive/pics/2Snapshot_20130218_4.JPG'
p441
I64
tp442
g3
s(S'/home/clayton/grive/pics/1w157643A0-E4FE-5F90-C9B1-465764731874.jpg'
p443
I26
tp444
g6
s(S'/home/clayton/grive/pics/3wEFC295BD-AB8D-C93F-1AEF-332E960B6391.jpg'
p445
I23
tp446
g6
s(S'/home/clayton/grive/pics/6wF38C5939-5878-3826-255B-37EF8300E8D1.jpg'
p447
I47
tp448
g6
s(S'/home/clayton/grive/pics/1md99d5900-5461-41eb-adb1-8681a6885dc6.jpg'
p449
I60
tp450
g9
s(S'/home/clayton/grive/pics/0m3a33b8ba-bfdc-4061-a7b3-4c7fcc6839b7.jpg'
p451
I17
tp452
g12
s(S'/home/clayton/grive/pics/5w4123FC40-659C-BBF1-A29E-29652EC92828.jpg'
p453
I55
tp454
g6
s(S'/home/clayton/grive/pics/3Snapshot_20130218_3.JPG'
p455
I42
tp456
g6
s(S'/home/clayton/grive/pics/5w3F13F903-5652-1111-F8C4-28193F107980.jpg'
p457
I4
tp458
g27
s(S'/home/clayton/grive/pics/5wC89E1EA6-6B03-0107-19C6-312038C89CA1.jpg'
p459
I64
tp460
g3
s(S'/home/clayton/grive/pics/5w86213EB0-EFE5-91A5-6308-4CE43B9C4ABB.jpg'
p461
I56
tp462
g6
s(S'/home/clayton/grive/pics/5w0C837C12-99DE-6798-DCC0-6B372D9B14DF.jpg'
p463
I70
tp464
g3
s(S'/home/clayton/grive/pics/5wEFC295BD-AB8D-C93F-1AEF-332E960B6391.jpg'
p465
I24
tp466
g6
s(S'/home/clayton/grive/pics/2w30492B57-425C-19D5-B21A-38A9A06B20F8.jpg'
p467
I29
tp468
g6
s(S'/home/clayton/grive/pics/6wAC2868E4-B636-2A84-4932-D85F939963F1.jpg'
p469
I81
tp470
g12
s(S'/home/clayton/grive/pics/6w04AB60B8-053D-0086-A395-4698C6ECDA34.jpg'
p471
I41
tp472
g6
s(g233
I4
tp473
g27
s(S'/home/clayton/grive/pics/5w0A63D31C-0B59-BFF2-4F27-46B385316AD7.jpg'
p474
I27
tp475
g6
s(S'/home/clayton/grive/pics/1wD9E9B0A8-7D98-A0F3-9A06-37ECA03E6425.jpg'
p476
I52
tp477
g3
s(S'/home/clayton/grive/pics/3m040789e6-8b61-484e-b935-203eeeaf5a7f.jpg'
p478
I81
tp479
g12
s(S'/home/clayton/grive/pics/2w75B0A7BB-3879-FF92-CC05-37B01FC821E8.jpg'
p480
I43
tp481
g3
s(S'/home/clayton/grive/pics/2mfdc9ff7d-8480-4e52-940b-33d65b5f09d9.jpg'
p482
I25
tp483
g9
s(S'/home/clayton/grive/pics/4wFF66FA36-78E6-6508-EDF0-3686176BF53D.jpg'
p484
I11
tp485
g3
s(S'/home/clayton/grive/pics/4w77EDF533-C254-FD89-6404-4660A2F03302.jpg'
p486
I15
tp487
g3
s(S'/home/clayton/grive/pics/5w9FB993B7-8646-7117-CD23-27C2F4C7EC67.jpg'
p488
I117
tp489
g6
s(S'/home/clayton/grive/pics/3w3EC88953-2C9A-08EE-D3A5-465D5B7072D4.jpg'
p490
I59
tp491
g3
s(S'/home/clayton/grive/pics/4wF9A08F82-E468-659D-6E2A-4649DD6662AF.jpg'
p492
I5
tp493
g27
s(S'/home/clayton/grive/pics/0w66F66B26-FBE8-A425-CDA6-D0273FBE14F2.jpg'
p494
I36
tp495
g12
s(S'/home/clayton/grive/pics/2md4bfe2ba-2af3-4f65-822b-b1f180ce52a1.jpg'
p496
I27
tp497
g12
s(S'/home/clayton/grive/pics/6w7E85E5B5-F196-987E-51DD-2EC43C62E76D.jpg'
p498
I73
tp499
g6
s(S'/home/clayton/grive/pics/2wE91A57C8-8766-64BA-4E1F-33C5F731BCE4.jpg'
p500
I37
tp501
g3
s(S'/home/clayton/grive/pics/3w3439D79B-2F14-0A7C-A485-3D9751A5715E.jpg'
p502
I14
tp503
g6
s(S'/home/clayton/grive/pics/0wDF2DC2D6-F1E3-1B71-20E2-467A671A3D60.jpg'
p504
I4
tp505
g27
s(S'/home/clayton/grive/pics/2w656B02A8-518C-90F3-7234-38211A0CD399.jpg'
p506
I6
tp507
g27
s(g25
I8
tp508
g27
s(S'/home/clayton/grive/pics/3m81793c88-5a77-4c1a-96b9-19113f792758.jpg'
p509
I72
tp510
g9
s(S'/home/clayton/grive/pics/4wB6218480-F680-6013-04E0-38A57AE3C9A5.jpg'
p511
I58
tp512
g3
s(S'/home/clayton/grive/pics/4w7E85E5B5-F196-987E-51DD-2EC43C62E76D.jpg'
p513
I59
tp514
g6
s(S'/home/clayton/grive/pics/2wAEFC7C09-CD73-3B8E-A369-7AFA0E31AF3D.jpg'
p515
I45
tp516
g6
s(S'/home/clayton/grive/pics/5w75B0A7BB-3879-FF92-CC05-37B01FC821E8.jpg'
p517
I45
tp518
g6
s(S'/home/clayton/grive/pics/3w98D0D5C2-5A24-77C4-893C-389C780B22BF.jpg'
p519
I8
tp520
g6
s(S'/home/clayton/grive/pics/5w9A37A263-9801-0A1A-312E-3334DD7F32AC.jpg'
p521
I57
tp522
g6
s(S'/home/clayton/grive/pics/2wD445B589-5883-3783-A84A-29622D8DBC8C.jpg'
p523
I78
tp524
g6
s(S'/home/clayton/grive/pics/1wAC2868E4-B636-2A84-4932-D85F939963F1.jpg'
p525
I41
tp526
g12
s(S'/home/clayton/grive/pics/2w42122DD0-1D98-3417-ED3C-3CD7325AEF4E.jpg'
p527
I50
tp528
g6
s(S'/home/clayton/grive/pics/3w9FB993B7-8646-7117-CD23-27C2F4C7EC67.jpg'
p529
I105
tp530
g6
s(S'/home/clayton/grive/pics/0wB7907848-2DA7-2CBC-9171-46E1D7C304D7.jpg'
p531
I44
tp532
g6
s(S'/home/clayton/grive/pics/0happy7.JPG'
p533
I131
tp534
g6
s(S'/home/clayton/grive/pics/4KuoGlassesScared.jpg'
p535
I90
tp536
g3
s(S'/home/clayton/grive/pics/4wAE00083F-0B9D-4EED-63B7-2757C366CB50.jpg'
p537
I66
tp538
g3
s(S'/home/clayton/grive/pics/6wD9E9B0A8-7D98-A0F3-9A06-37ECA03E6425.jpg'
p539
I45
tp540
g6
s(S'/home/clayton/grive/pics/5md6e113df-509f-49d9-b0c7-905e86cc5df3.jpg'
p541
I21
tp542
g163
s(S'/home/clayton/grive/pics/5wA78D46C1-F503-3E91-F99D-6B2FA22B3D14.jpg'
p543
I77
tp544
g3
s(S'/home/clayton/grive/pics/6w6B887E6C-D9CE-E590-E3F0-6B34BF5BA23A.jpg'
p545
I28
tp546
g6
s(S'/home/clayton/grive/pics/1w3D74C8C9-3DC1-0E0C-4327-4CE1A9A76C25.jpg'
p547
I85
tp548
g6
s(S'/home/clayton/grive/pics/0w5D592E12-AEF9-B530-374E-3322B125D1A1.jpg'
p549
I65
tp550
g6
s(S'/home/clayton/grive/pics/6w2B02DD01-5BAB-ABA0-2EAF-3833D439A739.jpg'
p551
I129
tp552
g6
s(S'/home/clayton/grive/pics/4w1522DE41-3A6C-DEA0-CB4C-46E4E637BE61.jpg'
p553
I41
tp554
g6
s(S'/home/clayton/grive/pics/5wEED45041-BE05-1F78-5044-2EF641914EDD.jpg'
p555
I86
tp556
g6
s(S'/home/clayton/grive/pics/6w1F9D7616-B031-13BA-2CF1-332BB1E15DC2.jpg'
p557
I54
tp558
g6
s(S'/home/clayton/grive/pics/5m6ce740af-da51-4c19-92ce-7b9d9adba5fe.jpg'
p559
I35
tp560
g12
s(S'/home/clayton/grive/pics/6w3D74C8C9-3DC1-0E0C-4327-4CE1A9A76C25.jpg'
p561
I87
tp562
g3
s(S'/home/clayton/grive/pics/1w9CF2D657-F38A-A867-1844-64AF3A43DEAA.jpg'
p563
I24
tp564
g6
s(S'/home/clayton/grive/pics/5w1522DE41-3A6C-DEA0-CB4C-46E4E637BE61.jpg'
p565
I30
tp566
g6
s(S'/home/clayton/grive/pics/4scared54.jpg'
p567
I48
tp568
g3
s(S'/home/clayton/grive/pics/0w04AB60B8-053D-0086-A395-4698C6ECDA34.jpg'
p569
I39
tp570
g6
s(S'/home/clayton/grive/pics/5w9E129634-2C33-C86B-30F7-6B6F8AB2AF22.jpg'
p571
I73
tp572
g3
s(S'/home/clayton/grive/pics/2wC8A7AD15-B749-2EF7-395E-3567AFF409A3.jpg'
p573
I4
tp574
g27
s(S'/home/clayton/grive/pics/3wB327C73A-CBE4-4E6F-85BE-37EFF9F68B2E.jpg'
p575
I30
tp576
g3
s(S'/home/clayton/grive/pics/2w12EC627A-1192-EC96-EEC9-489DEAE24E0B.jpg'
p577
I38
tp578
g6
s(S'/home/clayton/grive/pics/3w4A42FC32-7901-26E1-A91B-33331AA34C92.jpg'
p579
I41
tp580
g6
s(S'/home/clayton/grive/pics/0wEFC295BD-AB8D-C93F-1AEF-332E960B6391.jpg'
p581
I36
tp582
g6
s(S'/home/clayton/grive/pics/1wFF66FA36-78E6-6508-EDF0-3686176BF53D.jpg'
p583
I18
tp584
g6
s(S'/home/clayton/grive/pics/5wCC78F689-E22B-23A4-2B55-3336F8A9B35C.jpg'
p585
I35
tp586
g3
s(S'/home/clayton/grive/pics/0w038FF51B-B514-1E4A-1F79-37ACE961D312.jpg'
p587
I50
tp588
g6
s(g131
I4
tp589
g27
s(g121
I7
tp590
g27
s(S'/home/clayton/grive/pics/6w0A63D31C-0B59-BFF2-4F27-46B385316AD7.jpg'
p591
I38
tp592
g6
s(S'/home/clayton/grive/pics/6wBE6C87EF-3D62-189A-34DB-33F0A359A14F.jpg'
p593
I10
tp594
g6
s(S'/home/clayton/grive/pics/0w0CC8EC66-FAA1-705C-0776-4AE9EA516A65.jpg'
p595
I4
tp596
g27
s(S'/home/clayton/grive/pics/1Sad.jpg'
p597
I57
tp598
g6
s(S'/home/clayton/grive/pics/6w9142C5B8-00C3-B41B-B5F7-7B04092215BC.jpg'
p599
I12
tp600
g6
s(g573
I48
tp601
g3
s(S'/home/clayton/grive/pics/3m3489e795-35d9-4bc6-83c2-0b80c5b780ea.jpg'
p602
I13
tp603
g9
s(S'/home/clayton/grive/pics/2w1522DE41-3A6C-DEA0-CB4C-46E4E637BE61.jpg'
p604
I5
tp605
g27
s(S'/home/clayton/grive/pics/1m6ccb14e5-001d-499c-9d77-979759f7986b.jpg'
p606
I18
tp607
g12
s(S'/home/clayton/grive/pics/3w3D74C8C9-3DC1-0E0C-4327-4CE1A9A76C25.jpg'
p608
I102
tp609
g6
s(S'/home/clayton/grive/pics/2wA17C2882-CBD3-D872-556E-45F7E2047628.jpg'
p610
I88
tp611
g3
s(S'/home/clayton/grive/pics/0wF9A08F82-E468-659D-6E2A-4649DD6662AF.jpg'
p612
I30
tp613
g6
s(S'/home/clayton/grive/pics/2m6ce740af-da51-4c19-92ce-7b9d9adba5fe.jpg'
p614
I22
tp615
g12
s(S'/home/clayton/grive/pics/0md99d5900-5461-41eb-adb1-8681a6885dc6.jpg'
p616
I4
tp617
g62
s(S'/home/clayton/grive/pics/5w99B8ED23-08A7-D462-5293-489B07663B77.jpg'
p618
I69
tp619
g6
s(S'/home/clayton/grive/pics/3m6ce740af-da51-4c19-92ce-7b9d9adba5fe.jpg'
p620
I26
tp621
g12
s(S'/home/clayton/grive/pics/2wF51ABC70-E908-AA82-8C29-D8B59FE8C62F.jpg'
p622
I49
tp623
g163
s(S'/home/clayton/grive/pics/1w4A42FC32-7901-26E1-A91B-33331AA34C92.jpg'
p624
I13
tp625
g6
s(S'/home/clayton/grive/pics/0w547FEF42-FCBE-B966-D617-2888E39F4498.jpg'
p626
I42
tp627
g6
s(S'/home/clayton/grive/pics/3wAC2868E4-B636-2A84-4932-D85F939963F1.jpg'
p628
I14
tp629
g12
s(S'/home/clayton/grive/pics/1-Sad.JPG'
p630
I110
tp631
g6
s(S'/home/clayton/grive/pics/5w275D2B77-AD50-E6CD-0121-D80138F626AC.jpg'
p632
I15
tp633
g163
s(S'/home/clayton/grive/pics/6w8039E961-EE34-7805-4B54-D80D2BE38F57.jpg'
p634
I11
tp635
g12
s(S'/home/clayton/grive/pics/2w2FF168A3-54B0-C7D9-47C9-37FA318D713D.jpg'
p636
I4
tp637
g27
s(S'/home/clayton/grive/pics/6w3EC88953-2C9A-08EE-D3A5-465D5B7072D4.jpg'
p638
I85
tp639
g6
s(S'/home/clayton/grive/pics/5mbfafedbe-f2cf-4c12-b287-c50e7850c5eb.jpg'
p640
I22
tp641
g9
s(S'/home/clayton/grive/pics/6-Neutral.JPG'
p642
I6
tp643
g27
s(S'/home/clayton/grive/pics/0happy4.JPG'
p644
I108
tp645
g6
s(S'/home/clayton/grive/pics/4wD5BE1562-F05B-1AA8-6290-37EE9C424B0E.jpg'
p646
I17
tp647
g3
s(S'/home/clayton/grive/pics/2w0C837C12-99DE-6798-DCC0-6B372D9B14DF.jpg'
p648
I68
tp649
g6
s(S'/home/clayton/grive/pics/4w7B52AA0B-3547-4AAC-D109-389D5596BF39.jpg'
p650
I6
tp651
g27
s(S'/home/clayton/grive/pics/6wEBD68548-E683-453C-76FA-387540224631.jpg'
p652
I47
tp653
g6
s(S'/home/clayton/grive/pics/4w42122DD0-1D98-3417-ED3C-3CD7325AEF4E.jpg'
p654
I43
tp655
g6
s(S'/home/clayton/grive/pics/1wC89E1EA6-6B03-0107-19C6-312038C89CA1.jpg'
p656
I67
tp657
g6
s(S'/home/clayton/grive/pics/3m5b216672-8484-4348-b9ab-3f0437fe53dc.jpg'
p658
I23
tp659
g163
s(S'/home/clayton/grive/pics/3w12EC627A-1192-EC96-EEC9-489DEAE24E0B.jpg'
p660
I59
tp661
g6
s(S'/home/clayton/grive/pics/4wBE6C87EF-3D62-189A-34DB-33F0A359A14F.jpg'
p662
I23
tp663
g6
s(S'/home/clayton/grive/pics/2w2C6C7917-E34A-87BF-D366-2849EADFBD8B.jpg'
p664
I22
tp665
g6
s(S'/home/clayton/grive/pics/1wB3B65A5B-6FD6-FB6B-DC2C-3797ABC3D83E.jpg'
p666
I41
tp667
g6
s(S'/home/clayton/grive/pics/3w5D592E12-AEF9-B530-374E-3322B125D1A1.jpg'
p668
I93
tp669
g3
s(S'/home/clayton/grive/pics/4w99B8ED23-08A7-D462-5293-489B07663B77.jpg'
p670
I52
tp671
g3
s(S'/home/clayton/grive/pics/2w99B8ED23-08A7-D462-5293-489B07663B77.jpg'
p672
I38
tp673
g3
s(S'/home/clayton/grive/pics/2w6D8B00F1-237C-5070-C5C5-2725674902D4.jpg'
p674
I67
tp675
g6
s(S'/home/clayton/grive/pics/6w4123FC40-659C-BBF1-A29E-29652EC92828.jpg'
p676
I76
tp677
g6
s(S'/home/clayton/grive/pics/1w4123FC40-659C-BBF1-A29E-29652EC92828.jpg'
p678
I60
tp679
g3
s(S'/home/clayton/grive/pics/3w77EDF533-C254-FD89-6404-4660A2F03302.jpg'
p680
I12
tp681
g27
s(S'/home/clayton/grive/pics/6wCADCAECA-D3E7-342A-07FA-4652ED88FBA9.jpg'
p682
I10
tp683
g6
s(S'/home/clayton/grive/pics/2w01343164-B10C-A805-EF2F-2D0A02E780D0.jpg'
p684
I106
tp685
g6
s(S'/home/clayton/grive/pics/0w77EDF533-C254-FD89-6404-4660A2F03302.jpg'
p686
I44
tp687
g6
s(S'/home/clayton/grive/pics/3m9340b0af-fe78-4190-bcf7-13abbdf650b9.jpg'
p688
I7
tp689
g313
s(S'/home/clayton/grive/pics/6w2C6C7917-E34A-87BF-D366-2849EADFBD8B.jpg'
p690
I30
tp691
g6
s(g194
I17
tp692
g6
s(S'/home/clayton/grive/pics/5wB7455899-8A91-0D14-67FB-3326BB8944DD.jpg'
p693
I17
tp694
g3
s(S'/home/clayton/grive/pics/3w656B02A8-518C-90F3-7234-38211A0CD399.jpg'
p695
I46
tp696
g3
s(S'/home/clayton/grive/pics/4wF7EB9296-7FE8-1C37-2486-4CDB6B286E59.jpg'
p697
I94
tp698
g6
s(S'/home/clayton/grive/pics/1wEA81AD9F-C919-7319-BDCE-333C59C6579E.jpg'
p699
I28
tp700
g6
s(S'/home/clayton/grive/pics/5w3ED8AF10-C2CD-9852-6CD0-4B1889141529.jpg'
p701
I4
tp702
g27
s(S'/home/clayton/grive/pics/0w7F7338BC-E565-8DED-FB80-46627677A6C7.jpg'
p703
I72
tp704
g6
s(S'/home/clayton/grive/pics/5m8e9ff3d6-a4ff-4675-848b-314010102ee8.jpg'
p705
I68
tp706
g163
s(S'/home/clayton/grive/pics/6wF81457BB-C846-A3E9-4C02-DD6128BED15B.jpg'
p707
I4
tp708
g313
s(S'/home/clayton/grive/pics/2w0A63D31C-0B59-BFF2-4F27-46B385316AD7.jpg'
p709
I31
tp710
g6
s(S'/home/clayton/grive/pics/2w3EC88953-2C9A-08EE-D3A5-465D5B7072D4.jpg'
p711
I80
tp712
g6
s(S'/home/clayton/grive/pics/1wB75D3F87-A36C-1CFC-5730-28E28C577A75.jpg'
p713
I23
tp714
g3
s(S'/home/clayton/grive/pics/2w4123FC40-659C-BBF1-A29E-29652EC92828.jpg'
p715
I18
tp716
g27
s(S'/home/clayton/grive/pics/1m53633fb0-91e3-4336-8db7-0f2ed20929f7.jpg'
p717
I32
tp718
g9
s(S'/home/clayton/grive/pics/3w04AB60B8-053D-0086-A395-4698C6ECDA34.jpg'
p719
I32
tp720
g6
s(S'/home/clayton/grive/pics/1m9340b0af-fe78-4190-bcf7-13abbdf650b9.jpg'
p721
I6
tp722
g313
s(S'/home/clayton/grive/pics/0KuoHappy.jpg'
p723
I99
tp724
g6
s(S'/home/clayton/grive/pics/6wAE00083F-0B9D-4EED-63B7-2757C366CB50.jpg'
p725
I64
tp726
g6
s(S'/home/clayton/grive/pics/5m5b216672-8484-4348-b9ab-3f0437fe53dc.jpg'
p727
I25
tp728
g12
s(S'/home/clayton/grive/pics/2KuoAngry.jpg'
p729
I127
tp730
g3
s(S'/home/clayton/grive/pics/4w01343164-B10C-A805-EF2F-2D0A02E780D0.jpg'
p731
I84
tp732
g3
s(S'/home/clayton/grive/pics/3w57166D0D-8403-104C-6BEA-2F07DBC2E389.jpg'
p733
I34
tp734
g3
s(S'/home/clayton/grive/pics/4m9340b0af-fe78-4190-bcf7-13abbdf650b9.jpg'
p735
I21
tp736
g313
s(S'/home/clayton/grive/pics/6w422A3E39-00CD-54DC-F42A-332478449BD6.jpg'
p737
I81
tp738
g6
s(g4
I14
tp739
g27
s(g115
I106
tp740
g3
s(S'/home/clayton/grive/pics/1wA186136D-64B7-7288-372F-3843E2F6EAC4.jpg'
p741
I58
tp742
g6
s(S'/home/clayton/grive/pics/1w7B52AA0B-3547-4AAC-D109-389D5596BF39.jpg'
p743
I20
tp744
g6
s(S'/home/clayton/grive/pics/6md6e113df-509f-49d9-b0c7-905e86cc5df3.jpg'
p745
I27
tp746
g12
s(S'/home/clayton/grive/pics/5wEBD68548-E683-453C-76FA-387540224631.jpg'
p747
I4
tp748
g27
s(S'/home/clayton/grive/pics/0w3AC58273-1249-F4C2-3A1C-289D10094EB9.jpg'
p749
I18
tp750
g27
s(S'/home/clayton/grive/pics/5w3F606B5D-77FB-F545-EEF4-36CCC8791888.jpg'
p751
I15
tp752
g27
s(S'/home/clayton/grive/pics/4w0AAA0AC9-6F8F-E71E-133D-46E81C08DACC.jpg'
p753
I27
tp754
g6
s(S'/home/clayton/grive/pics/1w1F9D7616-B031-13BA-2CF1-332BB1E15DC2.jpg'
p755
I108
tp756
g3
s(S'/home/clayton/grive/pics/4m53633fb0-91e3-4336-8db7-0f2ed20929f7.jpg'
p757
I11
tp758
g9
s(S'/home/clayton/grive/pics/4w6C9F7832-CE9D-15A0-5DA4-6B8CFF5E8490.jpg'
p759
I67
tp760
g3
s(S'/home/clayton/grive/pics/5w7E85E5B5-F196-987E-51DD-2EC43C62E76D.jpg'
p761
I72
tp762
g6
s(S'/home/clayton/grive/pics/6w038FF51B-B514-1E4A-1F79-37ACE961D312.jpg'
p763
I45
tp764
g6
s(g642
I103
tp765
g6
s(S'/home/clayton/grive/pics/5w70574034-301E-9568-EB56-389E0E002C5E.jpg'
p766
I45
tp767
g3
s(S'/home/clayton/grive/pics/6m9340b0af-fe78-4190-bcf7-13abbdf650b9.jpg'
p768
I15
tp769
g313
s(S'/home/clayton/grive/pics/5w57166D0D-8403-104C-6BEA-2F07DBC2E389.jpg'
p770
I41
tp771
g6
s(S'/home/clayton/grive/pics/4-Scared.JPG'
p772
I8
tp773
g27
s(S'/home/clayton/grive/pics/0w12EC627A-1192-EC96-EEC9-489DEAE24E0B.jpg'
p774
I48
tp775
g6
s(S'/home/clayton/grive/pics/4wAEFC7C09-CD73-3B8E-A369-7AFA0E31AF3D.jpg'
p776
I45
tp777
g3
s(S'/home/clayton/grive/pics/3w2FF168A3-54B0-C7D9-47C9-37FA318D713D.jpg'
p778
I4
tp779
g6
s(S'/home/clayton/grive/pics/4scared.jpg'
p780
I64
tp781
g6
s(g695
I7
tp782
g27
s(S'/home/clayton/grive/pics/2w3F606B5D-77FB-F545-EEF4-36CCC8791888.jpg'
p783
I6
tp784
g27
s(S'/home/clayton/grive/pics/3w0D1FB1C2-D30A-E25F-2EBB-27E9151B697F.jpg'
p785
I20
tp786
g6
s(S'/home/clayton/grive/pics/1w11C902A3-3D0A-1956-0538-6B9806AA4F9F.jpg'
p787
I64
tp788
g6
s(S'/home/clayton/grive/pics/5w45F00E26-EEF8-ADBC-B511-379A0FB86DFF.jpg'
p789
I13
tp790
g6
s(S'/home/clayton/grive/pics/6wDF2DC2D6-F1E3-1B71-20E2-467A671A3D60.jpg'
p791
I4
tp792
g27
s(S'/home/clayton/grive/pics/2w5F3E20F0-CA15-AB7C-C873-3329D70151F2.jpg'
p793
I36
tp794
g6
s(S'/home/clayton/grive/pics/0w9142C5B8-00C3-B41B-B5F7-7B04092215BC.jpg'
p795
I20
tp796
g6
s(S'/home/clayton/grive/pics/5w6A3CAB4F-95AC-25CB-4CD4-2D0EA445F376.jpg'
p797
I48
tp798
g3
s(S'/home/clayton/grive/pics/3wB7907848-2DA7-2CBC-9171-46E1D7C304D7.jpg'
p799
I21
tp800
g6
s(S'/home/clayton/grive/pics/2wFF66FA36-78E6-6508-EDF0-3686176BF53D.jpg'
p801
I20
tp802
g6
s(S'/home/clayton/grive/pics/6md4bfe2ba-2af3-4f65-822b-b1f180ce52a1.jpg'
p803
I25
tp804
g12
s(S'/home/clayton/grive/pics/0happy5.JPG'
p805
I98
tp806
g6
s(S'/home/clayton/grive/pics/1wC8A7AD15-B749-2EF7-395E-3567AFF409A3.jpg'
p807
I13
tp808
g27
s(g368
I4
tp809
g27
s(S'/home/clayton/grive/pics/1KuoGlassesSad.jpg'
p810
I60
tp811
g6
s(S'/home/clayton/grive/pics/4w4ACD6E21-0751-DEA6-DB60-2F0500DBF231.jpg'
p812
I111
tp813
g6
s(S'/home/clayton/grive/pics/0w1F9D7616-B031-13BA-2CF1-332BB1E15DC2.jpg'
p814
I94
tp815
g6
s(S'/home/clayton/grive/pics/0m040789e6-8b61-484e-b935-203eeeaf5a7f.jpg'
p816
I79
tp817
g12
s(S'/home/clayton/grive/pics/1m9660a96e-a888-40cd-b380-7d3761693c17.jpg'
p818
I61
tp819
g83
s(S'/home/clayton/grive/pics/4w038FF51B-B514-1E4A-1F79-37ACE961D312.jpg'
p820
I39
tp821
g6
s(S'/home/clayton/grive/pics/4wF9371CDA-417F-992A-A6BC-DD6373EF9014.jpg'
p822
I55
tp823
g163
s(g506
I4
tp824
g27
s(g264
I13
tp825
g313
s(S'/home/clayton/grive/pics/0w6B887E6C-D9CE-E590-E3F0-6B34BF5BA23A.jpg'
p826
I18
tp827
g6
s(S'/home/clayton/grive/pics/2w4ACD6E21-0751-DEA6-DB60-2F0500DBF231.jpg'
p828
I99
tp829
g6
s(S'/home/clayton/grive/pics/6mfdc9ff7d-8480-4e52-940b-33d65b5f09d9.jpg'
p830
I48
tp831
g9
s(g688
I5
tp832
g313
s(S'/home/clayton/grive/pics/0w275D2B77-AD50-E6CD-0121-D80138F626AC.jpg'
p833
I54
tp834
g12
s(S'/home/clayton/grive/pics/2wF38C5939-5878-3826-255B-37EF8300E8D1.jpg'
p835
I45
tp836
g6
s(g406
I6
tp837
g6
s(S'/home/clayton/grive/pics/1wE91A57C8-8766-64BA-4E1F-33C5F731BCE4.jpg'
p838
I28
tp839
g6
s(S'/home/clayton/grive/pics/4wEBD68548-E683-453C-76FA-387540224631.jpg'
p840
I31
tp841
g6
s(S'/home/clayton/grive/pics/3w157643A0-E4FE-5F90-C9B1-465764731874.jpg'
p842
I10
tp843
g6
s(S'/home/clayton/grive/pics/0wEE5FC257-9937-1847-8A4C-31E98B5E3AC3.jpg'
p844
I68
tp845
g6
s(S'/home/clayton/grive/pics/1w0C837C12-99DE-6798-DCC0-6B372D9B14DF.jpg'
p846
I75
tp847
g6
s(S'/home/clayton/grive/pics/3w5F3E20F0-CA15-AB7C-C873-3329D70151F2.jpg'
p848
I28
tp849
g6
s(S'/home/clayton/grive/pics/3wA8290F86-C077-9F89-F9F7-464D6C6DEA5F.jpg'
p850
I43
tp851
g6
s(S'/home/clayton/grive/pics/1w9A37A263-9801-0A1A-312E-3334DD7F32AC.jpg'
p852
I40
tp853
g6
s(g707
I8
tp854
g313
s(S'/home/clayton/grive/pics/4wEA81AD9F-C919-7319-BDCE-333C59C6579E.jpg'
p855
I24
tp856
g6
s(S'/home/clayton/grive/pics/6wE0CA5A8E-D4F8-F93F-8845-CD71832C5BEC.jpg'
p857
I92
tp858
g9
s(S'/home/clayton/grive/pics/3w66F66B26-FBE8-A425-CDA6-D0273FBE14F2.jpg'
p859
I50
tp860
g12
s(g604
I30
tp861
g6
s(S'/home/clayton/grive/pics/1md6e113df-509f-49d9-b0c7-905e86cc5df3.jpg'
p862
I46
tp863
g12
s(S'/home/clayton/grive/pics/0wCC78F689-E22B-23A4-2B55-3336F8A9B35C.jpg'
p864
I53
tp865
g6
s(S'/home/clayton/grive/pics/1m158a7b3d-0ea7-4403-ba3e-16b56aaa4db0.jpg'
p866
I7
tp867
g9
s(S'/home/clayton/grive/pics/1wA17C2882-CBD3-D872-556E-45F7E2047628.jpg'
p868
I9
tp869
g27
s(S'/home/clayton/grive/pics/0w422A3E39-00CD-54DC-F42A-332478449BD6.jpg'
p870
I102
tp871
g6
s(S'/home/clayton/grive/pics/6wCFBE9FE8-526E-B206-585D-7A9FA92FD844.jpg'
p872
I59
tp873
g6
s(g435
I8
tp874
g27
s(g705
I4
tp875
g313
s(g707
I123
tp876
g12
s(S'/home/clayton/grive/pics/4wCADCAECA-D3E7-342A-07FA-4652ED88FBA9.jpg'
p877
I26
tp878
g3
s(S'/home/clayton/grive/pics/2wEE5FC257-9937-1847-8A4C-31E98B5E3AC3.jpg'
p879
I5
tp880
g27
s(S'/home/clayton/grive/pics/3w75A71932-7631-6493-AA4D-CD72B83F1138.jpg'
p881
I30
tp882
g9
s(S'/home/clayton/grive/pics/3wB6218480-F680-6013-04E0-38A57AE3C9A5.jpg'
p883
I43
tp884
g6
s(S'/home/clayton/grive/pics/0w9D75EFDC-3AE6-E0D7-C7F4-28316CCF01BA.jpg'
p885
I114
tp886
g6
s(S'/home/clayton/grive/pics/0wD6ABCA51-AA30-AB83-36E3-3D933B925793.jpg'
p887
I9
tp888
g27
s(S'/home/clayton/grive/pics/2md99d5900-5461-41eb-adb1-8681a6885dc6.jpg'
p889
I46
tp890
g83
s(S'/home/clayton/grive/pics/3w3AC58273-1249-F4C2-3A1C-289D10094EB9.jpg'
p891
I88
tp892
g6
s(S'/home/clayton/grive/pics/3w1522DE41-3A6C-DEA0-CB4C-46E4E637BE61.jpg'
p893
I21
tp894
g6
s(g749
I135
tp895
g6
s(S'/home/clayton/grive/pics/3wFF66FA36-78E6-6508-EDF0-3686176BF53D.jpg'
p896
I15
tp897
g6
s(S'/home/clayton/grive/pics/6wF9371CDA-417F-992A-A6BC-DD6373EF9014.jpg'
p898
I57
tp899
g12
s(S'/home/clayton/grive/pics/2wF9371CDA-417F-992A-A6BC-DD6373EF9014.jpg'
p900
I20
tp901
g12
s(S'/home/clayton/grive/pics/6DSCN0303.JPG'
p902
I82
tp903
g6
s(S'/home/clayton/grive/pics/0w0C837C12-99DE-6798-DCC0-6B372D9B14DF.jpg'
p904
I80
tp905
g6
s(S'/home/clayton/grive/pics/0Happy.jpg'
p906
I60
tp907
g6
s(S'/home/clayton/grive/pics/6m6ce740af-da51-4c19-92ce-7b9d9adba5fe.jpg'
p908
I18
tp909
g12
s(S'/home/clayton/grive/pics/6wE953282F-1713-2679-406D-285C8932B012.jpg'
p910
I23
tp911
g6
s(S'/home/clayton/grive/pics/0w3ED8AF10-C2CD-9852-6CD0-4B1889141529.jpg'
p912
I26
tp913
g6
s(g527
I11
tp914
g27
s(S'/home/clayton/grive/pics/2w455E62E6-5EAF-9986-F10E-383E9405062F.jpg'
p915
I73
tp916
g6
s(S'/home/clayton/grive/pics/0m5b216672-8484-4348-b9ab-3f0437fe53dc.jpg'
p917
I127
tp918
g12
s(S'/home/clayton/grive/pics/0md6e113df-509f-49d9-b0c7-905e86cc5df3.jpg'
p919
I4
tp920
g313
s(S'/home/clayton/grive/pics/6w0CC8EC66-FAA1-705C-0776-4AE9EA516A65.jpg'
p921
I4
tp922
g27
s(S'/home/clayton/grive/pics/5w157643A0-E4FE-5F90-C9B1-465764731874.jpg'
p923
I17
tp924
g6
s(S'/home/clayton/grive/pics/0wEBD68548-E683-453C-76FA-387540224631.jpg'
p925
I33
tp926
g6
s(g109
I8
tp927
g27
s(S'/home/clayton/grive/pics/4w75B0A7BB-3879-FF92-CC05-37B01FC821E8.jpg'
p928
I31
tp929
g3
s(S'/home/clayton/grive/pics/0w3439D79B-2F14-0A7C-A485-3D9751A5715E.jpg'
p930
I35
tp931
g6
s(S'/home/clayton/grive/pics/1wCADCAECA-D3E7-342A-07FA-4652ED88FBA9.jpg'
p932
I14
tp933
g3
s(g879
I26
tp934
g6
s(g616
I6
tp935
g62
s(S'/home/clayton/grive/pics/2wB7455899-8A91-0D14-67FB-3326BB8944DD.jpg'
p936
I72
tp937
g6
s(S'/home/clayton/grive/pics/0wEED45041-BE05-1F78-5044-2EF641914EDD.jpg'
p938
I85
tp939
g6
s(S'/home/clayton/grive/pics/5w3AC58273-1249-F4C2-3A1C-289D10094EB9.jpg'
p940
I8
tp941
g27
s(S'/home/clayton/grive/pics/4w75A71932-7631-6493-AA4D-CD72B83F1138.jpg'
p942
I61
tp943
g9
s(g816
I5
tp944
g313
s(S'/home/clayton/grive/pics/0KuoHappy2.jpg'
p945
I112
tp946
g6
s(S'/home/clayton/grive/pics/4w70574034-301E-9568-EB56-389E0E002C5E.jpg'
p947
I36
tp948
g6
s(S'/home/clayton/grive/pics/1wF81457BB-C846-A3E9-4C02-DD6128BED15B.jpg'
p949
I91
tp950
g163
s(S'/home/clayton/grive/pics/0wB75D3F87-A36C-1CFC-5730-28E28C577A75.jpg'
p951
I74
tp952
g6
s(g940
I110
tp953
g6
s(S'/home/clayton/grive/pics/5m81793c88-5a77-4c1a-96b9-19113f792758.jpg'
p954
I57
tp955
g9
s(S'/home/clayton/grive/pics/3w42122DD0-1D98-3417-ED3C-3CD7325AEF4E.jpg'
p956
I35
tp957
g6
s(S'/home/clayton/grive/pics/3wF38C5939-5878-3826-255B-37EF8300E8D1.jpg'
p958
I30
tp959
g6
s(S'/home/clayton/grive/pics/4w30492B57-425C-19D5-B21A-38A9A06B20F8.jpg'
p960
I38
tp961
g6
s(S'/home/clayton/grive/pics/6wFA3A2A73-D799-1F82-B7C9-6B922E50F6D3.jpg'
p962
I57
tp963
g6
s(S'/home/clayton/grive/pics/0wAE00083F-0B9D-4EED-63B7-2757C366CB50.jpg'
p964
I69
tp965
g6
s(S'/home/clayton/grive/pics/4wCFBE9FE8-526E-B206-585D-7A9FA92FD844.jpg'
p966
I60
tp967
g6
s(S'/home/clayton/grive/pics/2w275D2B77-AD50-E6CD-0121-D80138F626AC.jpg'
p968
I8
tp969
g12
s(S'/home/clayton/grive/pics/5w30492B57-425C-19D5-B21A-38A9A06B20F8.jpg'
p970
I18
tp971
g6
s(g408
I6
tp972
g27
s(g504
I5
tp973
g27
s(S'/home/clayton/grive/pics/5w2FF168A3-54B0-C7D9-47C9-37FA318D713D.jpg'
p974
I20
tp975
g6
s(S'/home/clayton/grive/pics/6Neutral.jpg'
p976
I78
tp977
g6
s(S'/home/clayton/grive/pics/1w6A3CAB4F-95AC-25CB-4CD4-2D0EA445F376.jpg'
p978
I54
tp979
g6
s(S'/home/clayton/grive/pics/0wCADCAECA-D3E7-342A-07FA-4652ED88FBA9.jpg'
p980
I4
tp981
g6
s(S'/home/clayton/grive/pics/6m5b216672-8484-4348-b9ab-3f0437fe53dc.jpg'
p982
I24
tp983
g12
s(S'/home/clayton/grive/pics/3w11C902A3-3D0A-1956-0538-6B9806AA4F9F.jpg'
p984
I37
tp985
g6
s(S'/home/clayton/grive/pics/3wC89E1EA6-6B03-0107-19C6-312038C89CA1.jpg'
p986
I52
tp987
g6
s(S'/home/clayton/grive/pics/6m040789e6-8b61-484e-b935-203eeeaf5a7f.jpg'
p988
I86
tp989
g12
s(S'/home/clayton/grive/pics/1w3ED8AF10-C2CD-9852-6CD0-4B1889141529.jpg'
p990
I19
tp991
g3
s(S'/home/clayton/grive/pics/6mbfafedbe-f2cf-4c12-b287-c50e7850c5eb.jpg'
p992
I41
tp993
g9
s(S'/home/clayton/grive/pics/6w3F13F903-5652-1111-F8C4-28193F107980.jpg'
p994
I9
tp995
g27
s(S'/home/clayton/grive/pics/3wEBD68548-E683-453C-76FA-387540224631.jpg'
p996
I47
tp997
g6
s(S'/home/clayton/grive/pics/2wB3B65A5B-6FD6-FB6B-DC2C-3797ABC3D83E.jpg'
p998
I58
tp999
g3
s(g715
I52
tp1000
g3
s(S'/home/clayton/grive/pics/0wD2C8420A-CA69-4783-1899-278856A49F4B.jpg'
p1001
I28
tp1002
g6
s(S'/home/clayton/grive/pics/5wAE00083F-0B9D-4EED-63B7-2757C366CB50.jpg'
p1003
I70
tp1004
g6
s(S'/home/clayton/grive/pics/1w0D1FB1C2-D30A-E25F-2EBB-27E9151B697F.jpg'
p1005
I15
tp1006
g3
s(S'/home/clayton/grive/pics/0wFA3A2A73-D799-1F82-B7C9-6B922E50F6D3.jpg'
p1007
I79
tp1008
g6
s(S'/home/clayton/grive/pics/3w5465E952-2333-F4F0-922E-D82211FE562D.jpg'
p1009
I44
tp1010
g12
s(S'/home/clayton/grive/pics/6wB3B65A5B-6FD6-FB6B-DC2C-3797ABC3D83E.jpg'
p1011
I35
tp1012
g6
s(S'/home/clayton/grive/pics/0m8e9ff3d6-a4ff-4675-848b-314010102ee8.jpg'
p1013
I47
tp1014
g12
s(S'/home/clayton/grive/pics/6wE91A57C8-8766-64BA-4E1F-33C5F731BCE4.jpg'
p1015
I44
tp1016
g6
s(S'/home/clayton/grive/pics/1w24FD90A0-B0EF-2E69-7527-48907DFAB4FA.jpg'
p1017
I18
tp1018
g6
s(S'/home/clayton/grive/pics/6w4ACD6E21-0751-DEA6-DB60-2F0500DBF231.jpg'
p1019
I118
tp1020
g6
s(S'/home/clayton/grive/pics/5wA186136D-64B7-7288-372F-3843E2F6EAC4.jpg'
p1021
I64
tp1022
g6
s(S'/home/clayton/grive/pics/3w7F7338BC-E565-8DED-FB80-46627677A6C7.jpg'
p1023
I66
tp1024
g3
s(S'/home/clayton/grive/pics/2w9DC9791F-43FF-A0F2-136E-27278922DE8B.jpg'
p1025
I18
tp1026
g6
s(S'/home/clayton/grive/pics/3w9CF2D657-F38A-A867-1844-64AF3A43DEAA.jpg'
p1027
I26
tp1028
g6
s(S'/home/clayton/grive/pics/1w57166D0D-8403-104C-6BEA-2F07DBC2E389.jpg'
p1029
I35
tp1030
g6
s(S'/home/clayton/grive/pics/3wF6EF8C51-B792-9FCF-687D-3333BA797012.jpg'
p1031
I33
tp1032
g6
s(S'/home/clayton/grive/pics/1w0A63D31C-0B59-BFF2-4F27-46B385316AD7.jpg'
p1033
I34
tp1034
g3
s(S'/home/clayton/grive/pics/1w2FF168A3-54B0-C7D9-47C9-37FA318D713D.jpg'
p1035
I7
tp1036
g6
s(g602
I16
tp1037
g62
s(S'/home/clayton/grive/pics/2-Angry.JPG'
p1038
I122
tp1039
g6
s(S'/home/clayton/grive/pics/5w75A71932-7631-6493-AA4D-CD72B83F1138.jpg'
p1040
I75
tp1041
g9
s(S'/home/clayton/grive/pics/6w9D75EFDC-3AE6-E0D7-C7F4-28316CCF01BA.jpg'
p1042
I109
tp1043
g6
s(S'/home/clayton/grive/pics/0m58c6be84-7243-4efb-b579-ce026defc3d2.jpg'
p1044
I25
tp1045
g9
s(S'/home/clayton/grive/pics/6wCC78F689-E22B-23A4-2B55-3336F8A9B35C.jpg'
p1046
I31
tp1047
g6
s(g492
I6
tp1048
g27
s(S'/home/clayton/grive/pics/4wDF2DC2D6-F1E3-1B71-20E2-467A671A3D60.jpg'
p1049
I5
tp1050
g27
s(S'/home/clayton/grive/pics/1w3AC58273-1249-F4C2-3A1C-289D10094EB9.jpg'
p1051
I109
tp1052
g6
s(S'/home/clayton/grive/pics/5m38b89e01-3e85-484d-b908-782035034769.jpg'
p1053
I23
tp1054
g9
s(S'/home/clayton/grive/pics/5w2B02DD01-5BAB-ABA0-2EAF-3833D439A739.jpg'
p1055
I118
tp1056
g6
s(S'/home/clayton/grive/pics/0happy1.JPG'
p1057
I90
tp1058
g6
s(g362
I37
tp1059
g12
s(S'/home/clayton/grive/pics/6wBE3974B4-A678-56B4-9610-286BC7FB53FC.jpg'
p1060
I80
tp1061
g6
s(S'/home/clayton/grive/pics/2m81793c88-5a77-4c1a-96b9-19113f792758.jpg'
p1062
I42
tp1063
g9
s(S'/home/clayton/grive/pics/6neutral2.jpg'
p1064
I17
tp1065
g27
s(g451
I6
tp1066
g313
s(S'/home/clayton/grive/pics/4m040789e6-8b61-484e-b935-203eeeaf5a7f.jpg'
p1067
I74
tp1068
g12
s(S'/home/clayton/grive/pics/1w455E62E6-5EAF-9986-F10E-383E9405062F.jpg'
p1069
I54
tp1070
g6
s(S'/home/clayton/grive/pics/4wE953282F-1713-2679-406D-285C8932B012.jpg'
p1071
I11
tp1072
g3
s(S'/home/clayton/grive/pics/5wD445B589-5883-3783-A84A-29622D8DBC8C.jpg'
p1073
I95
tp1074
g6
s(S'/home/clayton/grive/pics/5w1F9D7616-B031-13BA-2CF1-332BB1E15DC2.jpg'
p1075
I66
tp1076
g6
s(S'/home/clayton/grive/pics/2m6ccb14e5-001d-499c-9d77-979759f7986b.jpg'
p1077
I24
tp1078
g12
s(g1
I4
tp1079
g27
s(S'/home/clayton/grive/pics/6wC89E1EA6-6B03-0107-19C6-312038C89CA1.jpg'
p1080
I83
tp1081
g6
s(S'/home/clayton/grive/pics/1wBE6C87EF-3D62-189A-34DB-33F0A359A14F.jpg'
p1082
I19
tp1083
g3
s(S'/home/clayton/grive/pics/2md6e113df-509f-49d9-b0c7-905e86cc5df3.jpg'
p1084
I31
tp1085
g163
s(S'/home/clayton/grive/pics/0wD9E9B0A8-7D98-A0F3-9A06-37ECA03E6425.jpg'
p1086
I34
tp1087
g6
s(S'/home/clayton/grive/pics/5w42122DD0-1D98-3417-ED3C-3CD7325AEF4E.jpg'
p1088
I46
tp1089
g6
s(g791
I32
tp1090
g6
s(S'/home/clayton/grive/pics/4w10F317F3-9F1E-F59C-B335-38A8ADEE47AF.jpg'
p1091
I38
tp1092
g6
s(S'/home/clayton/grive/pics/4w3ED8AF10-C2CD-9852-6CD0-4B1889141529.jpg'
p1093
I11
tp1094
g6
s(S'/home/clayton/grive/pics/2w98D0D5C2-5A24-77C4-893C-389C780B22BF.jpg'
p1095
I39
tp1096
g6
s(g60
I31
tp1097
g9
s(S'/home/clayton/grive/pics/4m58c6be84-7243-4efb-b579-ce026defc3d2.jpg'
p1098
I23
tp1099
g9
s(S'/home/clayton/grive/pics/3w2C6C7917-E34A-87BF-D366-2849EADFBD8B.jpg'
p1100
I11
tp1101
g27
s(S'/home/clayton/grive/pics/2m3a33b8ba-bfdc-4061-a7b3-4c7fcc6839b7.jpg'
p1102
I96
tp1103
g12
s(S'/home/clayton/grive/pics/0m81793c88-5a77-4c1a-96b9-19113f792758.jpg'
p1104
I6
tp1105
g62
s(S'/home/clayton/grive/pics/2wE0CA5A8E-D4F8-F93F-8845-CD71832C5BEC.jpg'
p1106
I97
tp1107
g9
s(S'/home/clayton/grive/pics/1md4bfe2ba-2af3-4f65-822b-b1f180ce52a1.jpg'
p1108
I14
tp1109
g12
s(S'/home/clayton/grive/pics/0w6C9F7832-CE9D-15A0-5DA4-6B8CFF5E8490.jpg'
p1110
I64
tp1111
g6
s(S'/home/clayton/grive/pics/4w1F9D7616-B031-13BA-2CF1-332BB1E15DC2.jpg'
p1112
I39
tp1113
g6
s(S'/home/clayton/grive/pics/5wF9A08F82-E468-659D-6E2A-4649DD6662AF.jpg'
p1114
I39
tp1115
g6
s(S'/home/clayton/grive/pics/4m18d993d2-3c00-433c-8be0-d106d508d053.jpg'
p1116
I8
tp1117
g313
s(S'/home/clayton/grive/pics/4wB327C73A-CBE4-4E6F-85BE-37EFF9F68B2E.jpg'
p1118
I11
tp1119
g27
s(S'/home/clayton/grive/pics/3wEE5FC257-9937-1847-8A4C-31E98B5E3AC3.jpg'
p1120
I32
tp1121
g3
s(S'/home/clayton/grive/pics/3wEE5485BA-9F02-B81F-7B8A-D865E20BE312.jpg'
p1122
I25
tp1123
g12
s(S'/home/clayton/grive/pics/4wA17C2882-CBD3-D872-556E-45F7E2047628.jpg'
p1124
I83
tp1125
g6
s(S'/home/clayton/grive/pics/3wF9371CDA-417F-992A-A6BC-DD6373EF9014.jpg'
p1126
I50
tp1127
g12
s(g178
I63
tp1128
g12
s(S'/home/clayton/grive/pics/1w98D0D5C2-5A24-77C4-893C-389C780B22BF.jpg'
p1129
I29
tp1130
g3
s(S'/home/clayton/grive/pics/1wE0CA5A8E-D4F8-F93F-8845-CD71832C5BEC.jpg'
p1131
I85
tp1132
g9
s(S'/home/clayton/grive/pics/3w10F317F3-9F1E-F59C-B335-38A8ADEE47AF.jpg'
p1133
I66
tp1134
g6
s(S'/home/clayton/grive/pics/1w2C9F8C42-E900-B747-C962-465A32A9CCE7.jpg'
p1135
I4
tp1136
g3
s(S'/home/clayton/grive/pics/5wEE5485BA-9F02-B81F-7B8A-D865E20BE312.jpg'
p1137
I54
tp1138
g12
s(S'/home/clayton/grive/pics/0happy3.JPG'
p1139
I36
tp1140
g6
s(S'/home/clayton/grive/pics/6w86213EB0-EFE5-91A5-6308-4CE43B9C4ABB.jpg'
p1141
I48
tp1142
g6
s(S'/home/clayton/grive/pics/0w98D0D5C2-5A24-77C4-893C-389C780B22BF.jpg'
p1143
I53
tp1144
g6
s(S'/home/clayton/grive/pics/5w5D592E12-AEF9-B530-374E-3322B125D1A1.jpg'
p1145
I94
tp1146
g3
s(S'/home/clayton/grive/pics/6wB7907848-2DA7-2CBC-9171-46E1D7C304D7.jpg'
p1147
I37
tp1148
g6
s(S'/home/clayton/grive/pics/3wD2C8420A-CA69-4783-1899-278856A49F4B.jpg'
p1149
I20
tp1150
g6
s(S'/home/clayton/grive/pics/0w01343164-B10C-A805-EF2F-2D0A02E780D0.jpg'
p1151
I72
tp1152
g6
s(S'/home/clayton/grive/pics/4wC8D3294A-B9A8-6A3A-8331-465651FB65F4.jpg'
p1153
I85
tp1154
g6
s(S'/home/clayton/grive/pics/0wFF66FA36-78E6-6508-EDF0-3686176BF53D.jpg'
p1155
I15
tp1156
g6
s(g115
I8
tp1157
g27
s(S'/home/clayton/grive/pics/2w1F9D7616-B031-13BA-2CF1-332BB1E15DC2.jpg'
p1158
I102
tp1159
g6
s(S'/home/clayton/grive/pics/2wF6EF8C51-B792-9FCF-687D-3333BA797012.jpg'
p1160
I26
tp1161
g6
s(S'/home/clayton/grive/pics/6w4A42FC32-7901-26E1-A91B-33331AA34C92.jpg'
p1162
I37
tp1163
g6
s(S'/home/clayton/grive/pics/2w24FD90A0-B0EF-2E69-7527-48907DFAB4FA.jpg'
p1164
I34
tp1165
g3
s(S'/home/clayton/grive/pics/1wEFC295BD-AB8D-C93F-1AEF-332E960B6391.jpg'
p1166
I25
tp1167
g6
s(S'/home/clayton/grive/pics/5wA17C2882-CBD3-D872-556E-45F7E2047628.jpg'
p1168
I74
tp1169
g6
s(S'/home/clayton/grive/pics/3w9A37A263-9801-0A1A-312E-3334DD7F32AC.jpg'
p1170
I66
tp1171
g6
s(S'/home/clayton/grive/pics/1wB6218480-F680-6013-04E0-38A57AE3C9A5.jpg'
p1172
I65
tp1173
g6
s(g356
I49
tp1174
g6
s(S'/home/clayton/grive/pics/1wFA3A2A73-D799-1F82-B7C9-6B922E50F6D3.jpg'
p1175
I64
tp1176
g6
s(S'/home/clayton/grive/pics/4w9DC9791F-43FF-A0F2-136E-27278922DE8B.jpg'
p1177
I14
tp1178
g3
s(S'/home/clayton/grive/pics/6neutral1.JPG'
p1179
I122
tp1180
g6
s(S'/home/clayton/grive/pics/4wEFC295BD-AB8D-C93F-1AEF-332E960B6391.jpg'
p1181
I27
tp1182
g6
s(S'/home/clayton/grive/pics/6w7B52AA0B-3547-4AAC-D109-389D5596BF39.jpg'
p1183
I20
tp1184
g6
s(S'/home/clayton/grive/pics/5w3D74C8C9-3DC1-0E0C-4327-4CE1A9A76C25.jpg'
p1185
I79
tp1186
g3
s(S'/home/clayton/grive/pics/5wA8290F86-C077-9F89-F9F7-464D6C6DEA5F.jpg'
p1187
I29
tp1188
g6
s(S'/home/clayton/grive/pics/4w0C837C12-99DE-6798-DCC0-6B372D9B14DF.jpg'
p1189
I78
tp1190
g3
s(S'/home/clayton/grive/pics/5md4bfe2ba-2af3-4f65-822b-b1f180ce52a1.jpg'
p1191
I49
tp1192
g12
s(S'/home/clayton/grive/pics/2wB327C73A-CBE4-4E6F-85BE-37EFF9F68B2E.jpg'
p1193
I4
tp1194
g27
s(S'/home/clayton/grive/pics/4w3D74C8C9-3DC1-0E0C-4327-4CE1A9A76C25.jpg'
p1195
I73
tp1196
g6
s(S'/home/clayton/grive/pics/4w547FEF42-FCBE-B966-D617-2888E39F4498.jpg'
p1197
I44
tp1198
g3
s(S'/home/clayton/grive/pics/2wF7EB9296-7FE8-1C37-2486-4CDB6B286E59.jpg'
p1199
I64
tp1200
g6
s(S'/home/clayton/grive/pics/2wEFC295BD-AB8D-C93F-1AEF-332E960B6391.jpg'
p1201
I29
tp1202
g6
s(S'/home/clayton/grive/pics/5wAC2868E4-B636-2A84-4932-D85F939963F1.jpg'
p1203
I64
tp1204
g12
s(S'/home/clayton/grive/pics/2Angry.jpg'
p1205
I58
tp1206
g6
s(S'/home/clayton/grive/pics/4md4bfe2ba-2af3-4f65-822b-b1f180ce52a1.jpg'
p1207
I13
tp1208
g313
s(S'/home/clayton/grive/pics/0w6A3CAB4F-95AC-25CB-4CD4-2D0EA445F376.jpg'
p1209
I71
tp1210
g6
s(S'/home/clayton/grive/pics/2m58c6be84-7243-4efb-b579-ce026defc3d2.jpg'
p1211
I35
tp1212
g9
s(S'/home/clayton/grive/pics/4Snapshot_20130218_2.JPG'
p1213
I56
tp1214
g6
s(S'/home/clayton/grive/pics/2wD2C8420A-CA69-4783-1899-278856A49F4B.jpg'
p1215
I27
tp1216
g3
s(S'/home/clayton/grive/pics/1wCC78F689-E22B-23A4-2B55-3336F8A9B35C.jpg'
p1217
I44
tp1218
g6
s(S'/home/clayton/grive/pics/0happy8.JPG'
p1219
I15
tp1220
g6
s(S'/home/clayton/grive/pics/0wF9371CDA-417F-992A-A6BC-DD6373EF9014.jpg'
p1221
I25
tp1222
g163
s(S'/home/clayton/grive/pics/4wB75D3F87-A36C-1CFC-5730-28E28C577A75.jpg'
p1223
I68
tp1224
g3
s(S'/home/clayton/grive/pics/3md6e113df-509f-49d9-b0c7-905e86cc5df3.jpg'
p1225
I5
tp1226
g313
s(S'/home/clayton/grive/pics/4w6D8B00F1-237C-5070-C5C5-2725674902D4.jpg'
p1227
I82
tp1228
g6
s(S'/home/clayton/grive/pics/6wEED45041-BE05-1F78-5044-2EF641914EDD.jpg'
p1229
I69
tp1230
g6
s(S'/home/clayton/grive/pics/0wCFBE9FE8-526E-B206-585D-7A9FA92FD844.jpg'
p1231
I74
tp1232
g6
s(g793
I6
tp1233
g27
s(S'/home/clayton/grive/pics/0m6ccb14e5-001d-499c-9d77-979759f7986b.jpg'
p1234
I19
tp1235
g12
s(S'/home/clayton/grive/pics/3w30492B57-425C-19D5-B21A-38A9A06B20F8.jpg'
p1236
I35
tp1237
g3
s(g223
I50
tp1238
g6
s(S'/home/clayton/grive/pics/4m9660a96e-a888-40cd-b380-7d3761693c17.jpg'
p1239
I99
tp1240
g83
s(S'/home/clayton/grive/pics/0wE91A57C8-8766-64BA-4E1F-33C5F731BCE4.jpg'
p1241
I36
tp1242
g6
s(S'/home/clayton/grive/pics/5wF9371CDA-417F-992A-A6BC-DD6373EF9014.jpg'
p1243
I61
tp1244
g163
s(S'/home/clayton/grive/pics/4wEE5485BA-9F02-B81F-7B8A-D865E20BE312.jpg'
p1245
I34
tp1246
g163
s(g616
I62
tp1247
g9
s(g54
I73
tp1248
g12
s(S'/home/clayton/grive/pics/4w0A63D31C-0B59-BFF2-4F27-46B385316AD7.jpg'
p1249
I31
tp1250
g6
s(S'/home/clayton/grive/pics/2wB6218480-F680-6013-04E0-38A57AE3C9A5.jpg'
p1251
I82
tp1252
g3
s(S'/home/clayton/grive/pics/2wCADCAECA-D3E7-342A-07FA-4652ED88FBA9.jpg'
p1253
I5
tp1254
g27
s(S'/home/clayton/grive/pics/2w7B52AA0B-3547-4AAC-D109-389D5596BF39.jpg'
p1255
I11
tp1256
g6
s(S'/home/clayton/grive/pics/4m5b216672-8484-4348-b9ab-3f0437fe53dc.jpg'
p1257
I7
tp1258
g12
s(S'/home/clayton/grive/pics/0wF38C5939-5878-3826-255B-37EF8300E8D1.jpg'
p1259
I27
tp1260
g6
s(S'/home/clayton/grive/pics/3w24FD90A0-B0EF-2E69-7527-48907DFAB4FA.jpg'
p1261
I35
tp1262
g27
s(S'/home/clayton/grive/pics/1m0792947c-37db-4047-bef9-7a582d6f6fca.jpg'
p1263
I5
tp1264
g313
s(S'/home/clayton/grive/pics/2w11C902A3-3D0A-1956-0538-6B9806AA4F9F.jpg'
p1265
I55
tp1266
g6
s(S'/home/clayton/grive/pics/0happy9.JPG'
p1267
I14
tp1268
g6
s(S'/home/clayton/grive/pics/2w04AB60B8-053D-0086-A395-4698C6ECDA34.jpg'
p1269
I60
tp1270
g3
s(S'/home/clayton/grive/pics/4m158a7b3d-0ea7-4403-ba3e-16b56aaa4db0.jpg'
p1271
I48
tp1272
g9
s(S'/home/clayton/grive/pics/2m18d993d2-3c00-433c-8be0-d106d508d053.jpg'
p1273
I30
tp1274
g12
s(S'/home/clayton/grive/pics/1m18d993d2-3c00-433c-8be0-d106d508d053.jpg'
p1275
I34
tp1276
g12
s(S'/home/clayton/grive/pics/1w42122DD0-1D98-3417-ED3C-3CD7325AEF4E.jpg'
p1277
I44
tp1278
g6
s(S'/home/clayton/grive/pics/4wD9E9B0A8-7D98-A0F3-9A06-37ECA03E6425.jpg'
p1279
I55
tp1280
g6
s(S'/home/clayton/grive/pics/3w45F00E26-EEF8-ADBC-B511-379A0FB86DFF.jpg'
p1281
I19
tp1282
g6
s(S'/home/clayton/grive/pics/2wB7907848-2DA7-2CBC-9171-46E1D7C304D7.jpg'
p1283
I33
tp1284
g3
s(S'/home/clayton/grive/pics/5w66F66B26-FBE8-A425-CDA6-D0273FBE14F2.jpg'
p1285
I36
tp1286
g12
s(S'/home/clayton/grive/pics/0w9CF2D657-F38A-A867-1844-64AF3A43DEAA.jpg'
p1287
I22
tp1288
g6
s(S'/home/clayton/grive/pics/5wB6218480-F680-6013-04E0-38A57AE3C9A5.jpg'
p1289
I43
tp1290
g6
s(S'/home/clayton/grive/pics/1w0AAA0AC9-6F8F-E71E-133D-46E81C08DACC.jpg'
p1291
I43
tp1292
g3
s(S'/home/clayton/grive/pics/4w422A3E39-00CD-54DC-F42A-332478449BD6.jpg'
p1293
I70
tp1294
g3
s(S'/home/clayton/grive/pics/3wF9A08F82-E468-659D-6E2A-4649DD6662AF.jpg'
p1295
I28
tp1296
g6
s(S'/home/clayton/grive/pics/2m38b89e01-3e85-484d-b908-782035034769.jpg'
p1297
I41
tp1298
g9
s(S'/home/clayton/grive/pics/1wF6EF8C51-B792-9FCF-687D-3333BA797012.jpg'
p1299
I39
tp1300
g3
s(S'/home/clayton/grive/pics/3w70574034-301E-9568-EB56-389E0E002C5E.jpg'
p1301
I50
tp1302
g3
s(S'/home/clayton/grive/pics/0wF6EF8C51-B792-9FCF-687D-3333BA797012.jpg'
p1303
I54
tp1304
g6
s(g1203
I52
tp1305
g12
s(S'/home/clayton/grive/pics/0m6ce740af-da51-4c19-92ce-7b9d9adba5fe.jpg'
p1306
I24
tp1307
g12
s(g917
I5
tp1308
g313
s(S'/home/clayton/grive/pics/3w422A3E39-00CD-54DC-F42A-332478449BD6.jpg'
p1309
I71
tp1310
g6
s(g504
I27
tp1311
g6
s(g309
I4
tp1312
g27
s(S'/home/clayton/grive/pics/1mbfafedbe-f2cf-4c12-b287-c50e7850c5eb.jpg'
p1313
I85
tp1314
g9
s(S'/home/clayton/grive/pics/1KuoSad.jpg'
p1315
I92
tp1316
g6
s(S'/home/clayton/grive/pics/5w2C9F8C42-E900-B747-C962-465A32A9CCE7.jpg'
p1317
I42
tp1318
g3
s(S'/home/clayton/grive/pics/2angry1.jpg'
p1319
I62
tp1320
g6
s(S'/home/clayton/grive/pics/0m18d993d2-3c00-433c-8be0-d106d508d053.jpg'
p1321
I27
tp1322
g12
s(S'/home/clayton/grive/pics/6w5D592E12-AEF9-B530-374E-3322B125D1A1.jpg'
p1323
I83
tp1324
g6
s(S'/home/clayton/grive/pics/0wB327C73A-CBE4-4E6F-85BE-37EFF9F68B2E.jpg'
p1325
I24
tp1326
g6
s(S'/home/clayton/grive/pics/5w2C6C7917-E34A-87BF-D366-2849EADFBD8B.jpg'
p1327
I27
tp1328
g6
s(S'/home/clayton/grive/pics/1w66F66B26-FBE8-A425-CDA6-D0273FBE14F2.jpg'
p1329
I15
tp1330
g12
s(S'/home/clayton/grive/pics/1wF9371CDA-417F-992A-A6BC-DD6373EF9014.jpg'
p1331
I42
tp1332
g12
s(S'/home/clayton/grive/pics/2wA186136D-64B7-7288-372F-3843E2F6EAC4.jpg'
p1333
I60
tp1334
g6
s(S'/home/clayton/grive/pics/4w1DA4F3B0-46AF-07D5-6E56-2A8D17618C41.jpg'
p1335
I54
tp1336
g6
s(S'/home/clayton/grive/pics/4w0D1FB1C2-D30A-E25F-2EBB-27E9151B697F.jpg'
p1337
I23
tp1338
g3
s(S'/home/clayton/grive/pics/3wF81457BB-C846-A3E9-4C02-DD6128BED15B.jpg'
p1339
I68
tp1340
g12
s(S'/home/clayton/grive/pics/5w422A3E39-00CD-54DC-F42A-332478449BD6.jpg'
p1341
I87
tp1342
g6
s(S'/home/clayton/grive/pics/1Sad.jpg (Case Conflict 1)'
p1343
I60
tp1344
g6
s(S'/home/clayton/grive/pics/0w9DC9791F-43FF-A0F2-136E-27278922DE8B.jpg'
p1345
I26
tp1346
g6
s(g469
I53
tp1347
g12
s(S'/home/clayton/grive/pics/2w2C9F8C42-E900-B747-C962-465A32A9CCE7.jpg'
p1348
I56
tp1349
g3
s(g778
I5
tp1350
g27
s(g315
I7
tp1351
g3
s(g1147
I4
tp1352
g27
s(S'/home/clayton/grive/pics/3m18d993d2-3c00-433c-8be0-d106d508d053.jpg'
p1353
I14
tp1354
g313
s(S'/home/clayton/grive/pics/1w45F00E26-EEF8-ADBC-B511-379A0FB86DFF.jpg'
p1355
I27
tp1356
g6
s(S'/home/clayton/grive/pics/0m3489e795-35d9-4bc6-83c2-0b80c5b780ea.jpg'
p1357
I30
tp1358
g9
s(g636
I11
tp1359
g6
s(S'/home/clayton/grive/pics/6w7F7338BC-E565-8DED-FB80-46627677A6C7.jpg'
p1360
I86
tp1361
g6
s(S'/home/clayton/grive/pics/3w0AAA0AC9-6F8F-E71E-133D-46E81C08DACC.jpg'
p1362
I42
tp1363
g3
s(S'/home/clayton/grive/pics/6w0D1FB1C2-D30A-E25F-2EBB-27E9151B697F.jpg'
p1364
I26
tp1365
g3
s(S'/home/clayton/grive/pics/2w3F13F903-5652-1111-F8C4-28193F107980.jpg'
p1366
I5
tp1367
g27
s(S'/home/clayton/grive/pics/2w5465E952-2333-F4F0-922E-D82211FE562D.jpg'
p1368
I18
tp1369
g12
s(S'/home/clayton/grive/pics/0w7B52AA0B-3547-4AAC-D109-389D5596BF39.jpg'
p1370
I34
tp1371
g6
s(S'/home/clayton/grive/pics/5w5F3E20F0-CA15-AB7C-C873-3329D70151F2.jpg'
p1372
I67
tp1373
g6
s(S'/home/clayton/grive/pics/1wDF2DC2D6-F1E3-1B71-20E2-467A671A3D60.jpg'
p1374
I26
tp1375
g6
s(g492
I4
tp1376
g6
s(S'/home/clayton/grive/pics/2w75A71932-7631-6493-AA4D-CD72B83F1138.jpg'
p1377
I97
tp1378
g9
s(S'/home/clayton/grive/pics/4w7F7338BC-E565-8DED-FB80-46627677A6C7.jpg'
p1379
I72
tp1380
g3
s(S'/home/clayton/grive/pics/3wCC78F689-E22B-23A4-2B55-3336F8A9B35C.jpg'
p1381
I31
tp1382
g6
s(g311
I75
tp1383
g12
s(S'/home/clayton/grive/pics/1w75A71932-7631-6493-AA4D-CD72B83F1138.jpg'
p1384
I64
tp1385
g9
s(g525
I78
tp1386
g12
s(S'/home/clayton/grive/pics/4w6B887E6C-D9CE-E590-E3F0-6B34BF5BA23A.jpg'
p1387
I20
tp1388
g3
s(S'/home/clayton/grive/pics/6m3489e795-35d9-4bc6-83c2-0b80c5b780ea.jpg'
p1389
I24
tp1390
g9
s(S'/home/clayton/grive/pics/2wF81457BB-C846-A3E9-4C02-DD6128BED15B.jpg'
p1391
I113
tp1392
g163
s(S'/home/clayton/grive/pics/2wA78D46C1-F503-3E91-F99D-6B2FA22B3D14.jpg'
p1393
I82
tp1394
g6
s(S'/home/clayton/grive/pics/4w3F606B5D-77FB-F545-EEF4-36CCC8791888.jpg'
p1395
I24
tp1396
g27
s(S'/home/clayton/grive/pics/6wF6EF8C51-B792-9FCF-687D-3333BA797012.jpg'
p1397
I30
tp1398
g6
s(S'/home/clayton/grive/pics/2wCC78F689-E22B-23A4-2B55-3336F8A9B35C.jpg'
p1399
I55
tp1400
g6
s(g1007
I6
tp1401
g27
s(S'/home/clayton/grive/pics/4wEED45041-BE05-1F78-5044-2EF641914EDD.jpg'
p1402
I78
tp1403
g3
s(S'/home/clayton/grive/pics/1w9DC9791F-43FF-A0F2-136E-27278922DE8B.jpg'
p1404
I19
tp1405
g3
s(S'/home/clayton/grive/pics/4w275D2B77-AD50-E6CD-0121-D80138F626AC.jpg'
p1406
I47
tp1407
g12
s(S'/home/clayton/grive/pics/1w8039E961-EE34-7805-4B54-D80D2BE38F57.jpg'
p1408
I13
tp1409
g163
s(S'/home/clayton/grive/pics/1w2B02DD01-5BAB-ABA0-2EAF-3833D439A739.jpg'
p1410
I117
tp1411
g6
s(S'/home/clayton/grive/pics/0w75A71932-7631-6493-AA4D-CD72B83F1138.jpg'
p1412
I78
tp1413
g9
s(S'/home/clayton/grive/pics/3m3a33b8ba-bfdc-4061-a7b3-4c7fcc6839b7.jpg'
p1414
I75
tp1415
g12
s(S'/home/clayton/grive/pics/0m38b89e01-3e85-484d-b908-782035034769.jpg'
p1416
I32
tp1417
g9
s(S'/home/clayton/grive/pics/1w547FEF42-FCBE-B966-D617-2888E39F4498.jpg'
p1418
I45
tp1419
g6
s(S'/home/clayton/grive/pics/5m6ccb14e5-001d-499c-9d77-979759f7986b.jpg'
p1420
I39
tp1421
g12
s(S'/home/clayton/grive/pics/5w9DC9791F-43FF-A0F2-136E-27278922DE8B.jpg'
p1422
I25
tp1423
g3
s(S'/home/clayton/grive/pics/5w545D8371-906B-59FB-3297-3D9D8D822C99.jpg'
p1424
I24
tp1425
g3
s(S'/home/clayton/grive/pics/5wD61ACB92-52ED-6679-0D80-38A0B91ACF94.jpg'
p1426
I59
tp1427
g6
s(S'/home/clayton/grive/pics/5wFA3A2A73-D799-1F82-B7C9-6B922E50F6D3.jpg'
p1428
I54
tp1429
g6
s(S'/home/clayton/grive/pics/6wB6218480-F680-6013-04E0-38A57AE3C9A5.jpg'
p1430
I67
tp1431
g6
s(S'/home/clayton/grive/pics/0w99B8ED23-08A7-D462-5293-489B07663B77.jpg'
p1432
I65
tp1433
g6
s(S'/home/clayton/grive/pics/1w9E129634-2C33-C86B-30F7-6B6F8AB2AF22.jpg'
p1434
I40
tp1435
g6
s(S'/home/clayton/grive/pics/2wD174FE9B-6632-6EBB-E135-9EFF44352093.jpg'
p1436
I117
tp1437
g9
s(S'/home/clayton/grive/pics/5w547FEF42-FCBE-B966-D617-2888E39F4498.jpg'
p1438
I56
tp1439
g6
s(S'/home/clayton/grive/pics/0wC8A7AD15-B749-2EF7-395E-3567AFF409A3.jpg'
p1440
I46
tp1441
g6
s(g101
I5
tp1442
g27
s(S'/home/clayton/grive/pics/1wD174FE9B-6632-6EBB-E135-9EFF44352093.jpg'
p1443
I87
tp1444
g9
s(S'/home/clayton/grive/pics/0happy10.JPG'
p1445
I88
tp1446
g6
s(S'/home/clayton/grive/pics/6wA186136D-64B7-7288-372F-3843E2F6EAC4.jpg'
p1447
I58
tp1448
g6
s(g1193
I49
tp1449
g6
s(S'/home/clayton/grive/pics/3wB75D3F87-A36C-1CFC-5730-28E28C577A75.jpg'
p1450
I45
tp1451
g6
s(S'/home/clayton/grive/pics/2w9E129634-2C33-C86B-30F7-6B6F8AB2AF22.jpg'
p1452
I81
tp1453
g6
s(S'/home/clayton/grive/pics/1w10F317F3-9F1E-F59C-B335-38A8ADEE47AF.jpg'
p1454
I55
tp1455
g6
s(S'/home/clayton/grive/pics/4w24FD90A0-B0EF-2E69-7527-48907DFAB4FA.jpg'
p1456
I33
tp1457
g6
s(S'/home/clayton/grive/pics/1wEE5FC257-9937-1847-8A4C-31E98B5E3AC3.jpg'
p1458
I5
tp1459
g27
s(g10
I50
tp1460
g12
s(S'/home/clayton/grive/pics/5wB3B65A5B-6FD6-FB6B-DC2C-3797ABC3D83E.jpg'
p1461
I60
tp1462
g6
s(S'/home/clayton/grive/pics/6w5F3E20F0-CA15-AB7C-C873-3329D70151F2.jpg'
p1463
I55
tp1464
g6
s(S'/home/clayton/grive/pics/2wA8290F86-C077-9F89-F9F7-464D6C6DEA5F.jpg'
p1465
I56
tp1466
g6
s(S'/home/clayton/grive/pics/1wEE5485BA-9F02-B81F-7B8A-D865E20BE312.jpg'
p1467
I53
tp1468
g12
s(S'/home/clayton/grive/pics/0wF51ABC70-E908-AA82-8C29-D8B59FE8C62F.jpg'
p1469
I55
tp1470
g163
s(g1467
I57
tp1471
g12
s(S'/home/clayton/grive/pics/3w75B0A7BB-3879-FF92-CC05-37B01FC821E8.jpg'
p1472
I54
tp1473
g3
s(S'/home/clayton/grive/pics/6w6D8B00F1-237C-5070-C5C5-2725674902D4.jpg'
p1474
I75
tp1475
g6
s(S'/home/clayton/grive/pics/3wB7455899-8A91-0D14-67FB-3326BB8944DD.jpg'
p1476
I62
tp1477
g6
s(S'/home/clayton/grive/pics/0w4ACD6E21-0751-DEA6-DB60-2F0500DBF231.jpg'
p1478
I110
tp1479
g6
s(S'/home/clayton/grive/pics/4wCC78F689-E22B-23A4-2B55-3336F8A9B35C.jpg'
p1480
I39
tp1481
g6
s(S'/home/clayton/grive/pics/6w99B8ED23-08A7-D462-5293-489B07663B77.jpg'
p1482
I53
tp1483
g6
s(S'/home/clayton/grive/pics/5w01343164-B10C-A805-EF2F-2D0A02E780D0.jpg'
p1484
I87
tp1485
g3
s(g1348
I4
tp1486
g27
s(S'/home/clayton/grive/pics/5w6D37274F-6971-2063-C29B-4671208BF5AE.jpg'
p1487
I7
tp1488
g27
s(S'/home/clayton/grive/pics/1w9FB993B7-8646-7117-CD23-27C2F4C7EC67.jpg'
p1489
I116
tp1490
g6
s(S'/home/clayton/grive/pics/3w4123FC40-659C-BBF1-A29E-29652EC92828.jpg'
p1491
I71
tp1492
g6
s(S'/home/clayton/grive/pics/4m81793c88-5a77-4c1a-96b9-19113f792758.jpg'
p1493
I64
tp1494
g9
s(S'/home/clayton/grive/pics/6wD174FE9B-6632-6EBB-E135-9EFF44352093.jpg'
p1495
I105
tp1496
g9
s(g307
I4
tp1497
g62
s(S'/home/clayton/grive/pics/3w4ACD6E21-0751-DEA6-DB60-2F0500DBF231.jpg'
p1498
I88
tp1499
g6
s(S'/home/clayton/grive/pics/2w3AC58273-1249-F4C2-3A1C-289D10094EB9.jpg'
p1500
I102
tp1501
g6
s(S'/home/clayton/grive/pics/2w5D592E12-AEF9-B530-374E-3322B125D1A1.jpg'
p1502
I84
tp1503
g3
s(S'/home/clayton/grive/pics/6w75B0A7BB-3879-FF92-CC05-37B01FC821E8.jpg'
p1504
I50
tp1505
g6
s(g1049
I43
tp1506
g3
s(S'/home/clayton/grive/pics/0w70574034-301E-9568-EB56-389E0E002C5E.jpg'
p1507
I52
tp1508
g6
s(g188
I9
tp1509
g27
s(S'/home/clayton/grive/pics/0DSCN0305.JPG'
p1510
I82
tp1511
g6
s(S'/home/clayton/grive/pics/1w3F606B5D-77FB-F545-EEF4-36CCC8791888.jpg'
p1512
I19
tp1513
g27
s(S'/home/clayton/grive/pics/5md99d5900-5461-41eb-adb1-8681a6885dc6.jpg'
p1514
I35
tp1515
g83
s(S'/home/clayton/grive/pics/4m6ce740af-da51-4c19-92ce-7b9d9adba5fe.jpg'
p1516
I15
tp1517
g163
s(S'/home/clayton/grive/pics/6m8e9ff3d6-a4ff-4675-848b-314010102ee8.jpg'
p1518
I50
tp1519
g12
s(g506
I57
tp1520
g6
s(S'/home/clayton/grive/pics/0w1522DE41-3A6C-DEA0-CB4C-46E4E637BE61.jpg'
p1521
I34
tp1522
g6
s(S'/home/clayton/grive/pics/3mfdc9ff7d-8480-4e52-940b-33d65b5f09d9.jpg'
p1523
I41
tp1524
g83
s(g688
I10
tp1525
g313
s(S'/home/clayton/grive/pics/0w57166D0D-8403-104C-6BEA-2F07DBC2E389.jpg'
p1526
I23
tp1527
g3
s(S'/home/clayton/grive/pics/2w9A37A263-9801-0A1A-312E-3334DD7F32AC.jpg'
p1528
I36
tp1529
g6
s(S'/home/clayton/grive/pics/5m58c6be84-7243-4efb-b579-ce026defc3d2.jpg'
p1530
I45
tp1531
g9
s(g772
I71
tp1532
g3
s(S'/home/clayton/grive/pics/3m6ccb14e5-001d-499c-9d77-979759f7986b.jpg'
p1533
I11
tp1534
g12
s(S'/home/clayton/grive/pics/3wF7EB9296-7FE8-1C37-2486-4CDB6B286E59.jpg'
p1535
I82
tp1536
g6
s(S'/home/clayton/grive/pics/1m040789e6-8b61-484e-b935-203eeeaf5a7f.jpg'
p1537
I68
tp1538
g12
s(S'/home/clayton/grive/pics/2Angry.jpg (Case Conflict 1)'
p1539
I54
tp1540
g6
s(S'/home/clayton/grive/pics/0w24FD90A0-B0EF-2E69-7527-48907DFAB4FA.jpg'
p1541
I10
tp1542
g6
s(S'/home/clayton/grive/pics/2w9D75EFDC-3AE6-E0D7-C7F4-28316CCF01BA.jpg'
p1543
I92
tp1544
g6
s(S'/home/clayton/grive/pics/3KuoSurprised.jpg'
p1545
I95
tp1546
g6
s(S'/home/clayton/grive/pics/4wA78D46C1-F503-3E91-F99D-6B2FA22B3D14.jpg'
p1547
I62
tp1548
g6
s(S'/home/clayton/grive/pics/6w11C902A3-3D0A-1956-0538-6B9806AA4F9F.jpg'
p1549
I60
tp1550
g6
s(g1458
I22
tp1551
g6
s(S'/home/clayton/grive/pics/0happy2.JPG'
p1552
I72
tp1553
g6
s(S'/home/clayton/grive/pics/4mbfafedbe-f2cf-4c12-b287-c50e7850c5eb.jpg'
p1554
I54
tp1555
g9
s(S'/home/clayton/grive/pics/2wD61ACB92-52ED-6679-0D80-38A0B91ACF94.jpg'
p1556
I65
tp1557
g6
s(g36
I9
tp1558
g27
s(S'/home/clayton/grive/pics/1wB327C73A-CBE4-4E6F-85BE-37EFF9F68B2E.jpg'
p1559
I38
tp1560
g3
s(S'/home/clayton/grive/pics/5wCADCAECA-D3E7-342A-07FA-4652ED88FBA9.jpg'
p1561
I4
tp1562
g27
s(S'/home/clayton/grive/pics/2w6C9F7832-CE9D-15A0-5DA4-6B8CFF5E8490.jpg'
p1563
I66
tp1564
g6
s(S'/home/clayton/grive/pics/4w3AC58273-1249-F4C2-3A1C-289D10094EB9.jpg'
p1565
I110
tp1566
g6
s(g32
I24
tp1567
g6
s(S'/home/clayton/grive/pics/4w11C902A3-3D0A-1956-0538-6B9806AA4F9F.jpg'
p1568
I50
tp1569
g3
s(S'/home/clayton/grive/pics/5w3EC88953-2C9A-08EE-D3A5-465D5B7072D4.jpg'
p1570
I97
tp1571
g6
s(S'/home/clayton/grive/pics/1w6C9F7832-CE9D-15A0-5DA4-6B8CFF5E8490.jpg'
p1572
I67
tp1573
g3
s(S'/home/clayton/grive/pics/4w9E129634-2C33-C86B-30F7-6B6F8AB2AF22.jpg'
p1574
I64
tp1575
g3
s(S'/home/clayton/grive/pics/0w4A42FC32-7901-26E1-A91B-33331AA34C92.jpg'
p1576
I43
tp1577
g6
s(S'/home/clayton/grive/pics/4w57166D0D-8403-104C-6BEA-2F07DBC2E389.jpg'
p1578
I14
tp1579
g6
s(S'/home/clayton/grive/pics/5mfdc9ff7d-8480-4e52-940b-33d65b5f09d9.jpg'
p1580
I66
tp1581
g9
s(S'/home/clayton/grive/pics/5wD174FE9B-6632-6EBB-E135-9EFF44352093.jpg'
p1582
I81
tp1583
g9
s(S'/home/clayton/grive/pics/5wEA81AD9F-C919-7319-BDCE-333C59C6579E.jpg'
p1584
I28
tp1585
g3
s(S'/home/clayton/grive/pics/2wAE00083F-0B9D-4EED-63B7-2757C366CB50.jpg'
p1586
I73
tp1587
g3
s(g453
I23
tp1588
g27
s(S'/home/clayton/grive/pics/6m0792947c-37db-4047-bef9-7a582d6f6fca.jpg'
p1589
I9
tp1590
g12
s(g406
I19
tp1591
g27
s(S'/home/clayton/grive/pics/3w1F9D7616-B031-13BA-2CF1-332BB1E15DC2.jpg'
p1592
I42
tp1593
g3
s(S'/home/clayton/grive/pics/0wEA81AD9F-C919-7319-BDCE-333C59C6579E.jpg'
p1594
I38
tp1595
g6
s(S'/home/clayton/grive/pics/0w3EC88953-2C9A-08EE-D3A5-465D5B7072D4.jpg'
p1596
I97
tp1597
g6
s(g960
I4
tp1598
g27
s(S'/home/clayton/grive/pics/1w5F3E20F0-CA15-AB7C-C873-3329D70151F2.jpg'
p1599
I37
tp1600
g3
s(S'/home/clayton/grive/pics/3w7E85E5B5-F196-987E-51DD-2EC43C62E76D.jpg'
p1601
I42
tp1602
g6
s(g77
I131
tp1603
g3
s(S'/home/clayton/grive/pics/3w0A63D31C-0B59-BFF2-4F27-46B385316AD7.jpg'
p1604
I25
tp1605
g6
s(g676
I36
tp1606
g27
s(S'/home/clayton/grive/pics/6KuoNeutral.jpg'
p1607
I118
tp1608
g6
s(S'/home/clayton/grive/pics/5w455E62E6-5EAF-9986-F10E-383E9405062F.jpg'
p1609
I68
tp1610
g6
s(S'/home/clayton/grive/pics/1w70574034-301E-9568-EB56-389E0E002C5E.jpg'
p1611
I57
tp1612
g6
s(S'/home/clayton/grive/pics/2w3D74C8C9-3DC1-0E0C-4327-4CE1A9A76C25.jpg'
p1613
I73
tp1614
g6
s(g212
I97
tp1615
g6
s(S'/home/clayton/grive/pics/3wBE3974B4-A678-56B4-9610-286BC7FB53FC.jpg'
p1616
I38
tp1617
g6
s(S'/home/clayton/grive/pics/2w62D19778-1AA6-13C2-004F-389AF747333D.jpg'
p1618
I46
tp1619
g6
s(g807
I5
tp1620
g27
s(S'/home/clayton/grive/pics/5w5465E952-2333-F4F0-922E-D82211FE562D.jpg'
p1621
I7
tp1622
g313
s(S'/home/clayton/grive/pics/1wC8D3294A-B9A8-6A3A-8331-465651FB65F4.jpg'
p1623
I72
tp1624
g6
s(S'/home/clayton/grive/pics/4w5465E952-2333-F4F0-922E-D82211FE562D.jpg'
p1625
I19
tp1626
g163
s(S'/home/clayton/grive/pics/5w11C902A3-3D0A-1956-0538-6B9806AA4F9F.jpg'
p1627
I52
tp1628
g3
s(g1064
I8
tp1629
g6
s(S'/home/clayton/grive/pics/6w545D8371-906B-59FB-3297-3D9D8D822C99.jpg'
p1630
I50
tp1631
g6
s(S'/home/clayton/grive/pics/6w1DA4F3B0-46AF-07D5-6E56-2A8D17618C41.jpg'
p1632
I65
tp1633
g6
s(S'/home/clayton/grive/pics/6w809F0A15-03D4-873B-62D0-6B3146FEE7CF.jpg'
p1634
I63
tp1635
g6
s(S'/home/clayton/grive/pics/6m81793c88-5a77-4c1a-96b9-19113f792758.jpg'
p1636
I58
tp1637
g9
s(S'/home/clayton/grive/pics/5wB7907848-2DA7-2CBC-9171-46E1D7C304D7.jpg'
p1638
I34
tp1639
g6
s(S'/home/clayton/grive/pics/2m0792947c-37db-4047-bef9-7a582d6f6fca.jpg'
p1640
I36
tp1641
g12
s(S'/home/clayton/grive/pics/5w6C9F7832-CE9D-15A0-5DA4-6B8CFF5E8490.jpg'
p1642
I80
tp1643
g3
s(S'/home/clayton/grive/pics/2w1DA4F3B0-46AF-07D5-6E56-2A8D17618C41.jpg'
p1644
I59
tp1645
g6
s(S'/home/clayton/grive/pics/2w422A3E39-00CD-54DC-F42A-332478449BD6.jpg'
p1646
I89
tp1647
g6
s(S'/home/clayton/grive/pics/3KuoGlassesSurprised.jpg'
p1648
I75
tp1649
g6
s(S'/home/clayton/grive/pics/3m9660a96e-a888-40cd-b380-7d3761693c17.jpg'
p1650
I35
tp1651
g83
s(S'/home/clayton/grive/pics/1wAEFC7C09-CD73-3B8E-A369-7AFA0E31AF3D.jpg'
p1652
I28
tp1653
g3
s(S'/home/clayton/grive/pics/6wB4A6761A-AF53-7278-1AC9-4691D99C2F60.jpg'
p1654
I56
tp1655
g6
s(S'/home/clayton/grive/pics/1w75B0A7BB-3879-FF92-CC05-37B01FC821E8.jpg'
p1656
I38
tp1657
g6
s(g457
I5
tp1658
g27
s(g701
I16
tp1659
g3
s(S'/home/clayton/grive/pics/2w9142C5B8-00C3-B41B-B5F7-7B04092215BC.jpg'
p1660
I24
tp1661
g3
s(S'/home/clayton/grive/pics/0happy6.JPG'
p1662
I116
tp1663
g6
s(S'/home/clayton/grive/pics/6wF9A08F82-E468-659D-6E2A-4649DD6662AF.jpg'
p1664
I18
tp1665
g6
s(S'/home/clayton/grive/pics/6w157643A0-E4FE-5F90-C9B1-465764731874.jpg'
p1666
I30
tp1667
g6
s(g1120
I17
tp1668
g27
s(g229
I7
tp1669
g62
s(S'/home/clayton/grive/pics/6w98D0D5C2-5A24-77C4-893C-389C780B22BF.jpg'
p1670
I39
tp1671
g6
s(S'/home/clayton/grive/pics/5w6D8B00F1-237C-5070-C5C5-2725674902D4.jpg'
p1672
I85
tp1673
g6
s(S'/home/clayton/grive/pics/5w0CC8EC66-FAA1-705C-0776-4AE9EA516A65.jpg'
p1674
I47
tp1675
g6
s(S'/home/clayton/grive/pics/5w1DA4F3B0-46AF-07D5-6E56-2A8D17618C41.jpg'
p1676
I69
tp1677
g6
s(S'/home/clayton/grive/pics/4w455E62E6-5EAF-9986-F10E-383E9405062F.jpg'
p1678
I59
tp1679
g6
s(S'/home/clayton/grive/pics/4w9D75EFDC-3AE6-E0D7-C7F4-28316CCF01BA.jpg'
p1680
I69
tp1681
g6
s(S'/home/clayton/grive/pics/3w2B02DD01-5BAB-ABA0-2EAF-3833D439A739.jpg'
p1682
I128
tp1683
g6
s(S'/home/clayton/grive/pics/2w6A3CAB4F-95AC-25CB-4CD4-2D0EA445F376.jpg'
p1684
I47
tp1685
g6
s(g1414
I4
tp1686
g313
s(S'/home/clayton/grive/pics/2wAC2868E4-B636-2A84-4932-D85F939963F1.jpg'
p1687
I68
tp1688
g12
s(g418
I4
tp1689
g27
s(S'/home/clayton/grive/pics/2w10F317F3-9F1E-F59C-B335-38A8ADEE47AF.jpg'
p1690
I50
tp1691
g6
s(g1277
I10
tp1692
g27
s(S'/home/clayton/grive/pics/3wD174FE9B-6632-6EBB-E135-9EFF44352093.jpg'
p1693
I69
tp1694
g9
s(g404
I24
tp1695
g313
s(S'/home/clayton/grive/pics/4md6e113df-509f-49d9-b0c7-905e86cc5df3.jpg'
p1696
I6
tp1697
g313
s(S'/home/clayton/grive/pics/5m53633fb0-91e3-4336-8db7-0f2ed20929f7.jpg'
p1698
I27
tp1699
g9
s(S'/home/clayton/grive/pics/1DSCN0306.JPG'
p1700
I85
tp1701
g6
s(S'/home/clayton/grive/pics/4w5F3E20F0-CA15-AB7C-C873-3329D70151F2.jpg'
p1702
I58
tp1703
g6
s(S'/home/clayton/grive/pics/4wD174FE9B-6632-6EBB-E135-9EFF44352093.jpg'
p1704
I89
tp1705
g9
s(S'/home/clayton/grive/pics/6w1522DE41-3A6C-DEA0-CB4C-46E4E637BE61.jpg'
p1706
I39
tp1707
g6
s(S'/home/clayton/grive/pics/6wB7455899-8A91-0D14-67FB-3326BB8944DD.jpg'
p1708
I48
tp1709
g6
s(S'/home/clayton/grive/pics/6w42122DD0-1D98-3417-ED3C-3CD7325AEF4E.jpg'
p1710
I40
tp1711
g6
s(S'/home/clayton/grive/pics/4wD61ACB92-52ED-6679-0D80-38A0B91ACF94.jpg'
p1712
I68
tp1713
g3
s(S'/home/clayton/grive/pics/4w8039E961-EE34-7805-4B54-D80D2BE38F57.jpg'
p1714
I22
tp1715
g12
s(g196
I35
tp1716
g6
s(g1086
I4
tp1717
g27
s(S'/home/clayton/grive/pics/1m38b89e01-3e85-484d-b908-782035034769.jpg'
p1718
I24
tp1719
g9
s(S'/home/clayton/grive/pics/1w656B02A8-518C-90F3-7234-38211A0CD399.jpg'
p1720
I40
tp1721
g6
s(S'/home/clayton/grive/pics/5wB327C73A-CBE4-4E6F-85BE-37EFF9F68B2E.jpg'
p1722
I17
tp1723
g6
s(g1104
I76
tp1724
g9
s(S'/home/clayton/grive/pics/5wF38C5939-5878-3826-255B-37EF8300E8D1.jpg'
p1725
I49
tp1726
g6
s(S'/home/clayton/grive/pics/6w0AAA0AC9-6F8F-E71E-133D-46E81C08DACC.jpg'
p1727
I34
tp1728
g6
s(S'/home/clayton/grive/pics/4w3EC88953-2C9A-08EE-D3A5-465D5B7072D4.jpg'
p1729
I76
tp1730
g3
s(S'/home/clayton/grive/pics/1w6D8B00F1-237C-5070-C5C5-2725674902D4.jpg'
p1731
I72
tp1732
g3
s(S'/home/clayton/grive/pics/1w6B887E6C-D9CE-E590-E3F0-6B34BF5BA23A.jpg'
p1733
I21
tp1734
g6
s(g1118
I51
tp1735
g6
s(S'/home/clayton/grive/pics/3w0C837C12-99DE-6798-DCC0-6B372D9B14DF.jpg'
p1736
I66
tp1737
g6
s(S'/home/clayton/grive/pics/4wFA3A2A73-D799-1F82-B7C9-6B922E50F6D3.jpg'
p1738
I53
tp1739
g3
s(S'/home/clayton/grive/pics/0wB7455899-8A91-0D14-67FB-3326BB8944DD.jpg'
p1740
I84
tp1741
g6
s(S'/home/clayton/grive/pics/4wF81457BB-C846-A3E9-4C02-DD6128BED15B.jpg'
p1742
I104
tp1743
g12
s(g919
I38
tp1744
g12
s(S'/home/clayton/grive/pics/6w656B02A8-518C-90F3-7234-38211A0CD399.jpg'
p1745
I55
tp1746
g6
s(S'/home/clayton/grive/pics/1wCFBE9FE8-526E-B206-585D-7A9FA92FD844.jpg'
p1747
I45
tp1748
g3
s(S'/home/clayton/grive/pics/2w7E85E5B5-F196-987E-51DD-2EC43C62E76D.jpg'
p1749
I63
tp1750
g6
s(S'/home/clayton/grive/pics/3wE91A57C8-8766-64BA-4E1F-33C5F731BCE4.jpg'
p1751
I34
tp1752
g6
s(S'/home/clayton/grive/pics/2wD5BE1562-F05B-1AA8-6290-37EE9C424B0E.jpg'
p1753
I42
tp1754
g6
s(g747
I47
tp1755
g3
s(S'/home/clayton/grive/pics/5m18d993d2-3c00-433c-8be0-d106d508d053.jpg'
p1756
I10
tp1757
g313
s(g13
I10
tp1758
g27
s(S'/home/clayton/grive/pics/0wD445B589-5883-3783-A84A-29622D8DBC8C.jpg'
p1759
I85
tp1760
g6
s(S'/home/clayton/grive/pics/0w2C9F8C42-E900-B747-C962-465A32A9CCE7.jpg'
p1761
I49
tp1762
g6
s(S'/home/clayton/grive/pics/0mbfafedbe-f2cf-4c12-b287-c50e7850c5eb.jpg'
p1763
I89
tp1764
g9
s(g628
I46
tp1765
g12
s(S'/home/clayton/grive/pics/4wC89E1EA6-6B03-0107-19C6-312038C89CA1.jpg'
p1766
I55
tp1767
g6
s(g292
I4
tp1768
g27
s(S'/home/clayton/grive/pics/4w0CC8EC66-FAA1-705C-0776-4AE9EA516A65.jpg'
p1769
I70
tp1770
g6
s(g153
I15
tp1771
g62
s(S'/home/clayton/grive/pics/0w45F00E26-EEF8-ADBC-B511-379A0FB86DFF.jpg'
p1772
I30
tp1773
g6
s(S'/home/clayton/grive/pics/4w2C9F8C42-E900-B747-C962-465A32A9CCE7.jpg'
p1774
I50
tp1775
g3
s(S'/home/clayton/grive/pics/3wAE00083F-0B9D-4EED-63B7-2757C366CB50.jpg'
p1776
I65
tp1777
g6
s(g573
I5
tp1778
g27
s(S'/home/clayton/grive/pics/1wF7EB9296-7FE8-1C37-2486-4CDB6B286E59.jpg'
p1779
I50
tp1780
g6
s(S'/home/clayton/grive/pics/4m6ccb14e5-001d-499c-9d77-979759f7986b.jpg'
p1781
I8
tp1782
g313
s(g307
I84
tp1783
g83
s(S'/home/clayton/grive/pics/0w62D19778-1AA6-13C2-004F-389AF747333D.jpg'
p1784
I20
tp1785
g6
s(S'/home/clayton/grive/pics/0m9340b0af-fe78-4190-bcf7-13abbdf650b9.jpg'
p1786
I7
tp1787
g12
s(S'/home/clayton/grive/pics/1wA78D46C1-F503-3E91-F99D-6B2FA22B3D14.jpg'
p1788
I51
tp1789
g6
s(g1561
I17
tp1790
g6
s(S'/home/clayton/grive/pics/0whitney bday jenny seminary grad 140.JPG'
p1791
I122
tp1792
g6
s(S'/home/clayton/grive/pics/1w275D2B77-AD50-E6CD-0121-D80138F626AC.jpg'
p1793
I8
tp1794
g12
s(S'/home/clayton/grive/pics/5w9D75EFDC-3AE6-E0D7-C7F4-28316CCF01BA.jpg'
p1795
I82
tp1796
g6
s(S'/home/clayton/grive/pics/5m9660a96e-a888-40cd-b380-7d3761693c17.jpg'
p1797
I97
tp1798
g9
s(S'/home/clayton/grive/pics/5wF6EF8C51-B792-9FCF-687D-3333BA797012.jpg'
p1799
I42
tp1800
g27
s(g422
I14
tp1801
g27
s(S'/home/clayton/grive/pics/1w038FF51B-B514-1E4A-1F79-37ACE961D312.jpg'
p1802
I51
tp1803
g6
s(S'/home/clayton/grive/pics/6wD5BE1562-F05B-1AA8-6290-37EE9C424B0E.jpg'
p1804
I44
tp1805
g6
s(S'/home/clayton/grive/pics/1m58c6be84-7243-4efb-b579-ce026defc3d2.jpg'
p1806
I35
tp1807
g9
s(S'/home/clayton/grive/pics/5w656B02A8-518C-90F3-7234-38211A0CD399.jpg'
p1808
I21
tp1809
g6
s(S'/home/clayton/grive/pics/5w7F7338BC-E565-8DED-FB80-46627677A6C7.jpg'
p1810
I86
tp1811
g6
s(S'/home/clayton/grive/pics/6w2C9F8C42-E900-B747-C962-465A32A9CCE7.jpg'
p1812
I51
tp1813
g6
s(S'/home/clayton/grive/pics/6m6ccb14e5-001d-499c-9d77-979759f7986b.jpg'
p1814
I22
tp1815
g12
s(S'/home/clayton/grive/pics/1wD445B589-5883-3783-A84A-29622D8DBC8C.jpg'
p1816
I69
tp1817
g6
s(S'/home/clayton/grive/pics/5wAEFC7C09-CD73-3B8E-A369-7AFA0E31AF3D.jpg'
p1818
I37
tp1819
g3
s(S'/home/clayton/grive/pics/2m5b216672-8484-4348-b9ab-3f0437fe53dc.jpg'
p1820
I105
tp1821
g12
s(S'/home/clayton/grive/pics/2w0AAA0AC9-6F8F-E71E-133D-46E81C08DACC.jpg'
p1822
I50
tp1823
g6
s(g1440
I9
tp1824
g27
s(S'/home/clayton/grive/pics/2w86213EB0-EFE5-91A5-6308-4CE43B9C4ABB.jpg'
p1825
I45
tp1826
g6
s(S'/home/clayton/grive/pics/5w12EC627A-1192-EC96-EEC9-489DEAE24E0B.jpg'
p1827
I55
tp1828
g6
s(S'/home/clayton/grive/pics/1m8e9ff3d6-a4ff-4675-848b-314010102ee8.jpg'
p1829
I10
tp1830
g163
s(S'/home/clayton/grive/pics/4w4A42FC32-7901-26E1-A91B-33331AA34C92.jpg'
p1831
I65
tp1832
g3
s(S'/home/clayton/grive/pics/0wB3B65A5B-6FD6-FB6B-DC2C-3797ABC3D83E.jpg'
p1833
I45
tp1834
g6
s(S'/home/clayton/grive/pics/3Surprised.jpg'
p1835
I44
tp1836
g6
s(S'/home/clayton/grive/pics/2m040789e6-8b61-484e-b935-203eeeaf5a7f.jpg'
p1837
I55
tp1838
g163
s(g642
I5
tp1839
g27
s(S'/home/clayton/grive/pics/6w9FB993B7-8646-7117-CD23-27C2F4C7EC67.jpg'
p1840
I100
tp1841
g6
s(S'/home/clayton/grive/pics/4wB3B65A5B-6FD6-FB6B-DC2C-3797ABC3D83E.jpg'
p1842
I41
tp1843
g6
s(S'/home/clayton/grive/pics/3wF51ABC70-E908-AA82-8C29-D8B59FE8C62F.jpg'
p1844
I44
tp1845
g163
s(S'/home/clayton/grive/pics/1wEED45041-BE05-1F78-5044-2EF641914EDD.jpg'
p1846
I90
tp1847
g6
s(S'/home/clayton/grive/pics/5w7B52AA0B-3547-4AAC-D109-389D5596BF39.jpg'
p1848
I21
tp1849
g6
s(S'/home/clayton/grive/pics/6wD61ACB92-52ED-6679-0D80-38A0B91ACF94.jpg'
p1850
I61
tp1851
g6
s(S'/home/clayton/grive/pics/0wAEFC7C09-CD73-3B8E-A369-7AFA0E31AF3D.jpg'
p1852
I16
tp1853
g6
s(S'/home/clayton/grive/pics/6wA8290F86-C077-9F89-F9F7-464D6C6DEA5F.jpg'
p1854
I44
tp1855
g6
s(g180
I17
tp1856
g27
s(S'/home/clayton/grive/pics/0wD174FE9B-6632-6EBB-E135-9EFF44352093.jpg'
p1857
I91
tp1858
g9
s(S'/home/clayton/grive/pics/2w66F66B26-FBE8-A425-CDA6-D0273FBE14F2.jpg'
p1859
I13
tp1860
g12
s(g921
I58
tp1861
g6
s(S'/home/clayton/grive/pics/2wEED45041-BE05-1F78-5044-2EF641914EDD.jpg'
p1862
I91
tp1863
g6
s(S'/home/clayton/grive/pics/3w6D8B00F1-237C-5070-C5C5-2725674902D4.jpg'
p1864
I78
tp1865
g6
s(S'/home/clayton/grive/pics/5w77EDF533-C254-FD89-6404-4660A2F03302.jpg'
p1866
I27
tp1867
g3
s(S'/home/clayton/grive/pics/5w04AB60B8-053D-0086-A395-4698C6ECDA34.jpg'
p1868
I58
tp1869
g3
s(S'/home/clayton/grive/pics/4wA8290F86-C077-9F89-F9F7-464D6C6DEA5F.jpg'
p1870
I46
tp1871
g6
s(S'/home/clayton/grive/pics/6w62D19778-1AA6-13C2-004F-389AF747333D.jpg'
p1872
I31
tp1873
g6
s(S'/home/clayton/grive/pics/4w3F13F903-5652-1111-F8C4-28193F107980.jpg'
p1874
I4
tp1875
g3
s(S'/home/clayton/grive/pics/4scared_david_bates.jpg'
p1876
I4
tp1877
g3
s(S'/home/clayton/grive/pics/4w6A3CAB4F-95AC-25CB-4CD4-2D0EA445F376.jpg'
p1878
I31
tp1879
g6
s(S'/home/clayton/grive/pics/2w0CC8EC66-FAA1-705C-0776-4AE9EA516A65.jpg'
p1880
I43
tp1881
g6
s(g25
I35
tp1882
g6
s(S'/home/clayton/grive/pics/3Surprised.jpg (Case Conflict 1)'
p1883
I75
tp1884
g6
s(S'/home/clayton/grive/pics/3w038FF51B-B514-1E4A-1F79-37ACE961D312.jpg'
p1885
I50
tp1886
g6
s(g396
I70
tp1887
g12
s(g844
I9
tp1888
g27
s(S'/home/clayton/grive/pics/5wD9E9B0A8-7D98-A0F3-9A06-37ECA03E6425.jpg'
p1889
I61
tp1890
g6
s(S'/home/clayton/grive/pics/3w9D75EFDC-3AE6-E0D7-C7F4-28316CCF01BA.jpg'
p1891
I74
tp1892
g6
s(S'/home/clayton/grive/pics/0wF81457BB-C846-A3E9-4C02-DD6128BED15B.jpg'
p1893
I97
tp1894
g12
s(S'/home/clayton/grive/pics/5w3439D79B-2F14-0A7C-A485-3D9751A5715E.jpg'
p1895
I26
tp1896
g3
s(S'/home/clayton/grive/pics/5w8039E961-EE34-7805-4B54-D80D2BE38F57.jpg'
p1897
I11
tp1898
g163
s(g840
I4
tp1899
g27
s(S'/home/clayton/grive/pics/4w2C6C7917-E34A-87BF-D366-2849EADFBD8B.jpg'
p1900
I26
tp1901
g6
s(S'/home/clayton/grive/pics/6w9CF2D657-F38A-A867-1844-64AF3A43DEAA.jpg'
p1902
I33
tp1903
g6
s(g1245
I38
tp1904
g12
s(S'/home/clayton/grive/pics/0w5465E952-2333-F4F0-922E-D82211FE562D.jpg'
p1905
I15
tp1906
g12
s(S'/home/clayton/grive/pics/5w10F317F3-9F1E-F59C-B335-38A8ADEE47AF.jpg'
p1907
I51
tp1908
g6
s(S'/home/clayton/grive/pics/0m9660a96e-a888-40cd-b380-7d3761693c17.jpg'
p1909
I76
tp1910
g9
s(S'/home/clayton/grive/pics/1w0CC8EC66-FAA1-705C-0776-4AE9EA516A65.jpg'
p1911
I59
tp1912
g6
s(S'/home/clayton/grive/pics/0Happy.jpg (Case Conflict 1)'
p1913
I56
tp1914
g6
s(S'/home/clayton/grive/pics/1w77EDF533-C254-FD89-6404-4660A2F03302.jpg'
p1915
I11
tp1916
g3
s(g1051
I7
tp1917
g27
s(S'/home/clayton/grive/pics/2w3ED8AF10-C2CD-9852-6CD0-4B1889141529.jpg'
p1918
I6
tp1919
g27
s(g984
I13
tp1920
g27
s(S'/home/clayton/grive/pics/5m3489e795-35d9-4bc6-83c2-0b80c5b780ea.jpg'
p1921
I33
tp1922
g9
s(g859
I7
tp1923
g313
s(S'/home/clayton/grive/pics/4m3a33b8ba-bfdc-4061-a7b3-4c7fcc6839b7.jpg'
p1924
I63
tp1925
g163
s(S'/home/clayton/grive/pics/4w62D19778-1AA6-13C2-004F-389AF747333D.jpg'
p1926
I34
tp1927
g6
s(S'/home/clayton/grive/pics/2wC8D3294A-B9A8-6A3A-8331-465651FB65F4.jpg'
p1928
I109
tp1929
g6
s(S'/home/clayton/grive/pics/3md4bfe2ba-2af3-4f65-822b-b1f180ce52a1.jpg'
p1930
I9
tp1931
g313
s(S'/home/clayton/grive/pics/2wF9A08F82-E468-659D-6E2A-4649DD6662AF.jpg'
p1932
I43
tp1933
g6
s(S'/home/clayton/grive/pics/6wEA81AD9F-C919-7319-BDCE-333C59C6579E.jpg'
p1934
I31
tp1935
g6
s(S'/home/clayton/grive/pics/5w98D0D5C2-5A24-77C4-893C-389C780B22BF.jpg'
p1936
I30
tp1937
g6
s(g658
I34
tp1938
g313
s(S'/home/clayton/grive/pics/1w4ACD6E21-0751-DEA6-DB60-2F0500DBF231.jpg'
p1939
I75
tp1940
g6
s(S'/home/clayton/grive/pics/1w5D592E12-AEF9-B530-374E-3322B125D1A1.jpg'
p1941
I95
tp1942
g3
s(S'/home/clayton/grive/pics/3wEED45041-BE05-1F78-5044-2EF641914EDD.jpg'
p1943
I53
tp1944
g6
s(g1880
I8
tp1945
g27
s(S'/home/clayton/grive/pics/4w809F0A15-03D4-873B-62D0-6B3146FEE7CF.jpg'
p1946
I61
tp1947
g6
s(S'/home/clayton/grive/pics/3w6B887E6C-D9CE-E590-E3F0-6B34BF5BA23A.jpg'
p1948
I13
tp1949
g6
s(S'/home/clayton/grive/pics/1w12EC627A-1192-EC96-EEC9-489DEAE24E0B.jpg'
p1950
I50
tp1951
g6
s(S'/home/clayton/grive/pics/4wB7455899-8A91-0D14-67FB-3326BB8944DD.jpg'
p1952
I37
tp1953
g6
s(g807
I45
tp1954
g3
s(S'/home/clayton/grive/pics/5m158a7b3d-0ea7-4403-ba3e-16b56aaa4db0.jpg'
p1955
I50
tp1956
g83
s(S'/home/clayton/grive/pics/0w9FB993B7-8646-7117-CD23-27C2F4C7EC67.jpg'
p1957
I103
tp1958
g6
s(S'/home/clayton/grive/pics/0m53633fb0-91e3-4336-8db7-0f2ed20929f7.jpg'
p1959
I42
tp1960
g9
s(S'/home/clayton/grive/pics/6w24FD90A0-B0EF-2E69-7527-48907DFAB4FA.jpg'
p1961
I23
tp1962
g6
s(g1424
I41
tp1963
g3
s(S'/home/clayton/grive/pics/2w547FEF42-FCBE-B966-D617-2888E39F4498.jpg'
p1964
I39
tp1965
g6
s(g1700
I5
tp1966
g27
s(S'/home/clayton/grive/pics/4wF51ABC70-E908-AA82-8C29-D8B59FE8C62F.jpg'
p1967
I44
tp1968
g163
s(S'/home/clayton/grive/pics/0w0AAA0AC9-6F8F-E71E-133D-46E81C08DACC.jpg'
p1969
I33
tp1970
g6
s(S'/home/clayton/grive/pics/4w86213EB0-EFE5-91A5-6308-4CE43B9C4ABB.jpg'
p1971
I47
tp1972
g6
s(S'/home/clayton/grive/pics/2wEBD68548-E683-453C-76FA-387540224631.jpg'
p1973
I4
tp1974
g27
s(S'/home/clayton/grive/pics/3w9DC9791F-43FF-A0F2-136E-27278922DE8B.jpg'
p1975
I16
tp1976
g3
s(S'/home/clayton/grive/pics/4w98D0D5C2-5A24-77C4-893C-389C780B22BF.jpg'
p1977
I26
tp1978
g6
s(S'/home/clayton/grive/pics/1m3489e795-35d9-4bc6-83c2-0b80c5b780ea.jpg'
p1979
I28
tp1980
g83
s(g768
I14
tp1981
g12
s(S'/home/clayton/grive/pics/0w75B0A7BB-3879-FF92-CC05-37B01FC821E8.jpg'
p1982
I62
tp1983
g6
s(S'/home/clayton/grive/pics/5wF51ABC70-E908-AA82-8C29-D8B59FE8C62F.jpg'
p1984
I56
tp1985
g12
s(g223
I5
tp1986
g27
s(S'/home/clayton/grive/pics/0w11C902A3-3D0A-1956-0538-6B9806AA4F9F.jpg'
p1987
I64
tp1988
g6
s(S'/home/clayton/grive/pics/3m53633fb0-91e3-4336-8db7-0f2ed20929f7.jpg'
p1989
I35
tp1990
g83
s(S'/home/clayton/grive/pics/6w275D2B77-AD50-E6CD-0121-D80138F626AC.jpg'
p1991
I26
tp1992
g12
s(S'/home/clayton/grive/pics/1wF9A08F82-E468-659D-6E2A-4649DD6662AF.jpg'
p1993
I37
tp1994
g3
s(S'/home/clayton/grive/pics/2m53633fb0-91e3-4336-8db7-0f2ed20929f7.jpg'
p1995
I52
tp1996
g9
s(S'/home/clayton/grive/pics/6m18d993d2-3c00-433c-8be0-d106d508d053.jpg'
p1997
I25
tp1998
g12
s(S'/home/clayton/grive/pics/0wC89E1EA6-6B03-0107-19C6-312038C89CA1.jpg'
p1999
I65
tp2000
g6
s(S'/home/clayton/grive/pics/5wBE3974B4-A678-56B4-9610-286BC7FB53FC.jpg'
p2001
I82
tp2002
g6
s(S'/home/clayton/grive/pics/3wCADCAECA-D3E7-342A-07FA-4652ED88FBA9.jpg'
p2003
I10
tp2004
g6
s(S'/home/clayton/grive/pics/1w3439D79B-2F14-0A7C-A485-3D9751A5715E.jpg'
p2005
I28
tp2006
g6
s(S'/home/clayton/grive/pics/1w545D8371-906B-59FB-3297-3D9D8D822C99.jpg'
p2007
I41
tp2008
g6
s(S'/home/clayton/grive/pics/2w9CF2D657-F38A-A867-1844-64AF3A43DEAA.jpg'
p2009
I29
tp2010
g3
s(S'/home/clayton/grive/pics/0md4bfe2ba-2af3-4f65-822b-b1f180ce52a1.jpg'
p2011
I17
tp2012
g12
s(S'/home/clayton/grive/pics/6w9DC9791F-43FF-A0F2-136E-27278922DE8B.jpg'
p2013
I17
tp2014
g6
s(S'/home/clayton/grive/pics/0w0A63D31C-0B59-BFF2-4F27-46B385316AD7.jpg'
p2015
I25
tp2016
g6
s(S'/home/clayton/grive/pics/3w6A3CAB4F-95AC-25CB-4CD4-2D0EA445F376.jpg'
p2017
I46
tp2018
g6
s(S'/home/clayton/grive/pics/1w9142C5B8-00C3-B41B-B5F7-7B04092215BC.jpg'
p2019
I14
tp2020
g6
s(S'/home/clayton/grive/pics/4wE91A57C8-8766-64BA-4E1F-33C5F731BCE4.jpg'
p2021
I39
tp2022
g6
s(S'/home/clayton/grive/pics/5wE0CA5A8E-D4F8-F93F-8845-CD71832C5BEC.jpg'
p2023
I83
tp2024
g9
s(S'/home/clayton/grive/pics/5m0792947c-37db-4047-bef9-7a582d6f6fca.jpg'
p2025
I14
tp2026
g12
s(g735
I7
tp2027
g313
s(S'/home/clayton/grive/pics/2wEA81AD9F-C919-7319-BDCE-333C59C6579E.jpg'
p2028
I47
tp2029
g6
s(S'/home/clayton/grive/pics/6w9A37A263-9801-0A1A-312E-3334DD7F32AC.jpg'
p2030
I49
tp2031
g6
s(S'/home/clayton/grive/pics/5wD2C8420A-CA69-4783-1899-278856A49F4B.jpg'
p2032
I39
tp2033
g6
s(S'/home/clayton/grive/pics/3wC8D3294A-B9A8-6A3A-8331-465651FB65F4.jpg'
p2034
I56
tp2035
g6
s(S'/home/clayton/grive/pics/1w809F0A15-03D4-873B-62D0-6B3146FEE7CF.jpg'
p2036
I50
tp2037
g6
s(S'/home/clayton/grive/pics/1w62D19778-1AA6-13C2-004F-389AF747333D.jpg'
p2038
I25
tp2039
g6
s(g868
I79
tp2040
g6
s(S'/home/clayton/grive/pics/5wFF66FA36-78E6-6508-EDF0-3686176BF53D.jpg'
p2041
I17
tp2042
g6
s(S'/home/clayton/grive/pics/3w86213EB0-EFE5-91A5-6308-4CE43B9C4ABB.jpg'
p2043
I55
tp2044
g6
s(S'/home/clayton/grive/pics/3wA17C2882-CBD3-D872-556E-45F7E2047628.jpg'
p2045
I86
tp2046
g6
s(S'/home/clayton/grive/pics/5w809F0A15-03D4-873B-62D0-6B3146FEE7CF.jpg'
p2047
I70
tp2048
g6
s(g737
I5
tp2049
g27
s(S'/home/clayton/grive/pics/4w8CE97341-98AC-5D5E-73AB-46736817D056.jpg'
p2050
I7
tp2051
g27
s(g1137
I43
tp2052
g163
s(S'/home/clayton/grive/pics/6w9E129634-2C33-C86B-30F7-6B6F8AB2AF22.jpg'
p2053
I64
tp2054
g6
s(S'/home/clayton/grive/pics/3wE0CA5A8E-D4F8-F93F-8845-CD71832C5BEC.jpg'
p2055
I48
tp2056
g9
s(S'/home/clayton/grive/pics/1wB7455899-8A91-0D14-67FB-3326BB8944DD.jpg'
p2057
I73
tp2058
g6
s(S'/home/clayton/grive/pics/3w99B8ED23-08A7-D462-5293-489B07663B77.jpg'
p2059
I60
tp2060
g6
s(g1091
I6
tp2061
g27
s(g616
I5
tp2062
g62
s(S'/home/clayton/grive/pics/2wFA3A2A73-D799-1F82-B7C9-6B922E50F6D3.jpg'
p2063
I19
tp2064
g6
s(S'/home/clayton/grive/pics/5wE91A57C8-8766-64BA-4E1F-33C5F731BCE4.jpg'
p2065
I26
tp2066
g6
s(S'/home/clayton/grive/pics/1w01343164-B10C-A805-EF2F-2D0A02E780D0.jpg'
p2067
I81
tp2068
g6
s(S'/home/clayton/grive/pics/0w0D1FB1C2-D30A-E25F-2EBB-27E9151B697F.jpg'
p2069
I18
tp2070
g3
s(g881
I5
tp2071
g62
s(S'/home/clayton/grive/pics/4m8e9ff3d6-a4ff-4675-848b-314010102ee8.jpg'
p2072
I46
tp2073
g163
s(S'/home/clayton/grive/pics/1w99B8ED23-08A7-D462-5293-489B07663B77.jpg'
p2074
I63
tp2075
g6
s(S'/home/clayton/grive/pics/1mfdc9ff7d-8480-4e52-940b-33d65b5f09d9.jpg'
p2076
I47
tp2077
g9
s(S'/home/clayton/grive/pics/1wF51ABC70-E908-AA82-8C29-D8B59FE8C62F.jpg'
p2078
I48
tp2079
g12
s(S'/home/clayton/grive/pics/6w5465E952-2333-F4F0-922E-D82211FE562D.jpg'
p2080
I11
tp2081
g12
s(S'/home/clayton/grive/pics/4w66F66B26-FBE8-A425-CDA6-D0273FBE14F2.jpg'
p2082
I51
tp2083
g163
s(g1225
I37
tp2084
g163
s(g1791
I7
tp2085
g27
s(S'/home/clayton/grive/pics/3w8039E961-EE34-7805-4B54-D80D2BE38F57.jpg'
p2086
I41
tp2087
g12
s(S'/home/clayton/grive/pics/3w455E62E6-5EAF-9986-F10E-383E9405062F.jpg'
p2088
I53
tp2089
g6
s(S'/home/clayton/grive/pics/0mfdc9ff7d-8480-4e52-940b-33d65b5f09d9.jpg'
p2090
I39
tp2091
g9
s(S'/home/clayton/grive/pics/6KuoGlassesNeutral.jpg'
p2092
I77
tp2093
g6
s(g311
I10
tp2094
g313
s(S'/home/clayton/grive/pics/1w1DA4F3B0-46AF-07D5-6E56-2A8D17618C41.jpg'
p2095
I51
tp2096
g6
s(S'/home/clayton/grive/pics/5wEE5FC257-9937-1847-8A4C-31E98B5E3AC3.jpg'
p2097
I21
tp2098
g3
s(S'/home/clayton/grive/pics/3w1DA4F3B0-46AF-07D5-6E56-2A8D17618C41.jpg'
p2099
I42
tp2100
g3
s(S'/home/clayton/grive/pics/3wAEFC7C09-CD73-3B8E-A369-7AFA0E31AF3D.jpg'
p2101
I32
tp2102
g6
s(S'/home/clayton/grive/pics/6wFF66FA36-78E6-6508-EDF0-3686176BF53D.jpg'
p2103
I17
tp2104
g6
s(S'/home/clayton/grive/pics/1Sad.jpg (Case Conflict 2)'
p2105
I56
tp2106
g3
s(S'/home/clayton/grive/pics/2w8039E961-EE34-7805-4B54-D80D2BE38F57.jpg'
p2107
I11
tp2108
g12
s(S'/home/clayton/grive/pics/6wD2C8420A-CA69-4783-1899-278856A49F4B.jpg'
p2109
I31
tp2110
g6
s(S'/home/clayton/grive/pics/2wBE3974B4-A678-56B4-9610-286BC7FB53FC.jpg'
p2111
I89
tp2112
g6
s(g595
I59
tp2113
g6
s(S'/home/clayton/grive/pics/6m53633fb0-91e3-4336-8db7-0f2ed20929f7.jpg'
p2114
I36
tp2115
g9
s(S'/home/clayton/grive/pics/3w545D8371-906B-59FB-3297-3D9D8D822C99.jpg'
p2116
I7
tp2117
g3
s(g1687
I85
tp2118
g163
s(S'/home/clayton/grive/pics/2wDF2DC2D6-F1E3-1B71-20E2-467A671A3D60.jpg'
p2119
I12
tp2120
g3
s(S'/home/clayton/grive/pics/0w2B02DD01-5BAB-ABA0-2EAF-3833D439A739.jpg'
p2121
I138
tp2122
g6
s(S'/home/clayton/grive/pics/3wFA3A2A73-D799-1F82-B7C9-6B922E50F6D3.jpg'
p2123
I47
tp2124
g6
s(g1781
I14
tp2125
g313
s(S'/home/clayton/grive/pics/5wB75D3F87-A36C-1CFC-5730-28E28C577A75.jpg'
p2126
I79
tp2127
g6
s(S'/home/clayton/grive/pics/4w545D8371-906B-59FB-3297-3D9D8D822C99.jpg'
p2128
I25
tp2129
g6
s(S'/home/clayton/grive/pics/2wBE6C87EF-3D62-189A-34DB-33F0A359A14F.jpg'
p2130
I9
tp2131
g3
s(g1491
I31
tp2132
g27
s(S'/home/clayton/grive/pics/4wE0CA5A8E-D4F8-F93F-8845-CD71832C5BEC.jpg'
p2133
I43
tp2134
g83
s(S'/home/clayton/grive/pics/3wBE6C87EF-3D62-189A-34DB-33F0A359A14F.jpg'
p2135
I17
tp2136
g6
s.