(dp0
(S'/home/clayton/grive/pics/3wC8A7AD15-B749-2EF7-395E-3567AFF409A3.jpg'
p1
I45
tp2
S'n'
p3
s(S'/home/clayton/grive/pics/6w3AC58273-1249-F4C2-3A1C-289D10094EB9.jpg'
p4
I107
tp5
S'y'
p6
s(S'/home/clayton/grive/pics/5wFF66FA36-78E6-6508-EDF0-3686176BF53D.jpg'
p7
I17
tp8
g6
s(S'/home/clayton/grive/pics/4w4123FC40-659C-BBF1-A29E-29652EC92828.jpg'
p9
I76
tp10
g3
s(S'/home/clayton/grive/pics/4w9FB993B7-8646-7117-CD23-27C2F4C7EC67.jpg'
p11
I122
tp12
g6
s(S'/home/clayton/grive/pics/3w547FEF42-FCBE-B966-D617-2888E39F4498.jpg'
p13
I34
tp14
g3
s(S'/home/clayton/grive/pics/0DSCN0309.JPG'
p15
I6
tp16
S's'
p17
s(S'/home/clayton/grive/pics/6wEFC295BD-AB8D-C93F-1AEF-332E960B6391.jpg'
p18
I25
tp19
g6
s(S'/home/clayton/grive/pics/3w2C9F8C42-E900-B747-C962-465A32A9CCE7.jpg'
p20
I5
tp21
g17
s(S'/home/clayton/grive/pics/1w9D75EFDC-3AE6-E0D7-C7F4-28316CCF01BA.jpg'
p22
I78
tp23
g6
s(S'/home/clayton/grive/pics/4wC8A7AD15-B749-2EF7-395E-3567AFF409A3.jpg'
p24
I44
tp25
g6
s(S'/home/clayton/grive/pics/6wD445B589-5883-3783-A84A-29622D8DBC8C.jpg'
p26
I75
tp27
g6
s(S'/home/clayton/grive/pics/0w7E85E5B5-F196-987E-51DD-2EC43C62E76D.jpg'
p28
I73
tp29
g6
s(S'/home/clayton/grive/pics/5wC8D3294A-B9A8-6A3A-8331-465651FB65F4.jpg'
p30
I85
tp31
g6
s(S'/home/clayton/grive/pics/6w455E62E6-5EAF-9986-F10E-383E9405062F.jpg'
p32
I59
tp33
g6
s(S'/home/clayton/grive/pics/4wD2C8420A-CA69-4783-1899-278856A49F4B.jpg'
p34
I26
tp35
g6
s(S'/home/clayton/grive/pics/2w809F0A15-03D4-873B-62D0-6B3146FEE7CF.jpg'
p36
I74
tp37
g6
s(S'/home/clayton/grive/pics/4w5D592E12-AEF9-B530-374E-3322B125D1A1.jpg'
p38
I75
tp39
g3
s(S'/home/clayton/grive/pics/6w422A3E39-00CD-54DC-F42A-332478449BD6.jpg'
p40
I81
tp41
g6
s(S'/home/clayton/grive/pics/6Neutral.jpg (Case Conflict 1)'
p42
I55
tp43
g6
s(S'/home/clayton/grive/pics/0w656B02A8-518C-90F3-7234-38211A0CD399.jpg'
p44
I39
tp45
g6
s(S'/home/clayton/grive/pics/1wA8290F86-C077-9F89-F9F7-464D6C6DEA5F.jpg'
p46
I35
tp47
g6
s(S'/home/clayton/grive/pics/2KuoGlassesAngry.jpg'
p48
I77
tp49
g6
s(S'/home/clayton/grive/pics/6w12EC627A-1192-EC96-EEC9-489DEAE24E0B.jpg'
p50
I49
tp51
g6
s(S'/home/clayton/grive/pics/2w9FB993B7-8646-7117-CD23-27C2F4C7EC67.jpg'
p52
I5
tp53
g17
s(S'/home/clayton/grive/pics/2w7F7338BC-E565-8DED-FB80-46627677A6C7.jpg'
p54
I75
tp55
g3
s(S'/home/clayton/grive/pics/5w038FF51B-B514-1E4A-1F79-37ACE961D312.jpg'
p56
I55
tp57
g3
s(S'/home/clayton/grive/pics/6w0C837C12-99DE-6798-DCC0-6B372D9B14DF.jpg'
p58
I58
tp59
g6
s(S'/home/clayton/grive/pics/6w2FF168A3-54B0-C7D9-47C9-37FA318D713D.jpg'
p60
I8
tp61
g6
s(S'/home/clayton/grive/pics/3-Surprised.JPG'
p62
I106
tp63
g3
s(g15
I59
tp64
g6
s(S'/home/clayton/grive/pics/6wA17C2882-CBD3-D872-556E-45F7E2047628.jpg'
p65
I7
tp66
g17
s(S'/home/clayton/grive/pics/2wC8A7AD15-B749-2EF7-395E-3567AFF409A3.jpg'
p67
I5
tp68
g17
s(S'/home/clayton/grive/pics/0Snapshot_20130218_1.JPG'
p69
I46
tp70
g6
s(S'/home/clayton/grive/pics/4wE953282F-1713-2679-406D-285C8932B012.jpg'
p71
I11
tp72
g3
s(S'/home/clayton/grive/pics/1wA186136D-64B7-7288-372F-3843E2F6EAC4.jpg'
p73
I58
tp74
g6
s(S'/home/clayton/grive/pics/0w455E62E6-5EAF-9986-F10E-383E9405062F.jpg'
p75
I44
tp76
g6
s(S'/home/clayton/grive/pics/1wBE3974B4-A678-56B4-9610-286BC7FB53FC.jpg'
p77
I34
tp78
g6
s(S'/home/clayton/grive/pics/5w4ACD6E21-0751-DEA6-DB60-2F0500DBF231.jpg'
p79
I83
tp80
g6
s(S'/home/clayton/grive/pics/0wA78D46C1-F503-3E91-F99D-6B2FA22B3D14.jpg'
p81
I71
tp82
g6
s(S'/home/clayton/grive/pics/5wD6ABCA51-AA30-AB83-36E3-3D933B925793.jpg'
p83
I4
tp84
g17
s(g62
I5
tp85
g17
s(S'/home/clayton/grive/pics/5w62D19778-1AA6-13C2-004F-389AF747333D.jpg'
p86
I33
tp87
g6
s(S'/home/clayton/grive/pics/2wB75D3F87-A36C-1CFC-5730-28E28C577A75.jpg'
p88
I74
tp89
g3
s(S'/home/clayton/grive/pics/5w0D1FB1C2-D30A-E25F-2EBB-27E9151B697F.jpg'
p90
I23
tp91
g3
s(S'/home/clayton/grive/pics/3w9D75EFDC-3AE6-E0D7-C7F4-28316CCF01BA.jpg'
p92
I74
tp93
g6
s(S'/home/clayton/grive/pics/2w4A42FC32-7901-26E1-A91B-33331AA34C92.jpg'
p94
I26
tp95
g6
s(S'/home/clayton/grive/pics/1wD2C8420A-CA69-4783-1899-278856A49F4B.jpg'
p96
I29
tp97
g6
s(S'/home/clayton/grive/pics/6w10F317F3-9F1E-F59C-B335-38A8ADEE47AF.jpg'
p98
I62
tp99
g3
s(S'/home/clayton/grive/pics/4w12EC627A-1192-EC96-EEC9-489DEAE24E0B.jpg'
p100
I49
tp101
g3
s(S'/home/clayton/grive/pics/6w01343164-B10C-A805-EF2F-2D0A02E780D0.jpg'
p102
I92
tp103
g6
s(S'/home/clayton/grive/pics/6w6A3CAB4F-95AC-25CB-4CD4-2D0EA445F376.jpg'
p104
I64
tp105
g6
s(S'/home/clayton/grive/pics/1wF6EF8C51-B792-9FCF-687D-3333BA797012.jpg'
p106
I39
tp107
g3
s(S'/home/clayton/grive/pics/4wD445B589-5883-3783-A84A-29622D8DBC8C.jpg'
p108
I72
tp109
g6
s(S'/home/clayton/grive/pics/0wE953282F-1713-2679-406D-285C8932B012.jpg'
p110
I26
tp111
g6
s(S'/home/clayton/grive/pics/3wDF2DC2D6-F1E3-1B71-20E2-467A671A3D60.jpg'
p112
I28
tp113
g3
s(S'/home/clayton/grive/pics/4wF38C5939-5878-3826-255B-37EF8300E8D1.jpg'
p114
I51
tp115
g6
s(S'/home/clayton/grive/pics/0w9A37A263-9801-0A1A-312E-3334DD7F32AC.jpg'
p116
I63
tp117
g6
s(S'/home/clayton/grive/pics/3wA78D46C1-F503-3E91-F99D-6B2FA22B3D14.jpg'
p118
I35
tp119
g6
s(S'/home/clayton/grive/pics/1w422A3E39-00CD-54DC-F42A-332478449BD6.jpg'
p120
I83
tp121
g6
s(S'/home/clayton/grive/pics/1w7F7338BC-E565-8DED-FB80-46627677A6C7.jpg'
p122
I74
tp123
g3
s(S'/home/clayton/grive/pics/6wC8D3294A-B9A8-6A3A-8331-465651FB65F4.jpg'
p124
I70
tp125
g6
s(S'/home/clayton/grive/pics/0w42122DD0-1D98-3417-ED3C-3CD7325AEF4E.jpg'
p126
I42
tp127
g6
s(S'/home/clayton/grive/pics/5wBE6C87EF-3D62-189A-34DB-33F0A359A14F.jpg'
p128
I15
tp129
g6
s(S'/home/clayton/grive/pics/6w1DA4F3B0-46AF-07D5-6E56-2A8D17618C41.jpg'
p130
I65
tp131
g6
s(S'/home/clayton/grive/pics/4wEE5FC257-9937-1847-8A4C-31E98B5E3AC3.jpg'
p132
I47
tp133
g6
s(S'/home/clayton/grive/pics/2w038FF51B-B514-1E4A-1F79-37ACE961D312.jpg'
p134
I56
tp135
g6
s(S'/home/clayton/grive/pics/3wA186136D-64B7-7288-372F-3843E2F6EAC4.jpg'
p136
I41
tp137
g6
s(S'/home/clayton/grive/pics/6w77EDF533-C254-FD89-6404-4660A2F03302.jpg'
p138
I42
tp139
g6
s(S'/home/clayton/grive/pics/0w2FF168A3-54B0-C7D9-47C9-37FA318D713D.jpg'
p140
I11
tp141
g17
s(S'/home/clayton/grive/pics/6w57166D0D-8403-104C-6BEA-2F07DBC2E389.jpg'
p142
I10
tp143
g17
s(S'/home/clayton/grive/pics/4w9CF2D657-F38A-A867-1844-64AF3A43DEAA.jpg'
p144
I54
tp145
g3
s(S'/home/clayton/grive/pics/0w5F3E20F0-CA15-AB7C-C873-3329D70151F2.jpg'
p146
I38
tp147
g6
s(S'/home/clayton/grive/pics/5w4A42FC32-7901-26E1-A91B-33331AA34C92.jpg'
p148
I39
tp149
g6
s(S'/home/clayton/grive/pics/0happy11.JPG'
p150
I35
tp151
g6
s(S'/home/clayton/grive/pics/6wAEFC7C09-CD73-3B8E-A369-7AFA0E31AF3D.jpg'
p152
I33
tp153
g6
s(S'/home/clayton/grive/pics/4w3EC88953-2C9A-08EE-D3A5-465D5B7072D4.jpg'
p154
I76
tp155
g3
s(S'/home/clayton/grive/pics/5w0AAA0AC9-6F8F-E71E-133D-46E81C08DACC.jpg'
p156
I41
tp157
g6
s(S'/home/clayton/grive/pics/0-Happy.JPG'
p158
I6
tp159
g17
s(S'/home/clayton/grive/pics/3wB3B65A5B-6FD6-FB6B-DC2C-3797ABC3D83E.jpg'
p160
I43
tp161
g6
s(S'/home/clayton/grive/pics/3w01343164-B10C-A805-EF2F-2D0A02E780D0.jpg'
p162
I55
tp163
g6
s(g1
I11
tp164
g17
s(S'/home/clayton/grive/pics/6w3439D79B-2F14-0A7C-A485-3D9751A5715E.jpg'
p165
I27
tp166
g3
s(S'/home/clayton/grive/pics/5wC8A7AD15-B749-2EF7-395E-3567AFF409A3.jpg'
p167
I7
tp168
g17
s(S'/home/clayton/grive/pics/1w04AB60B8-053D-0086-A395-4698C6ECDA34.jpg'
p169
I54
tp170
g3
s(S'/home/clayton/grive/pics/5wCFBE9FE8-526E-B206-585D-7A9FA92FD844.jpg'
p171
I71
tp172
g6
s(S'/home/clayton/grive/pics/2wD9E9B0A8-7D98-A0F3-9A06-37ECA03E6425.jpg'
p173
I27
tp174
g3
s(S'/home/clayton/grive/pics/6wD6ABCA51-AA30-AB83-36E3-3D933B925793.jpg'
p175
I4
tp176
g17
s(S'/home/clayton/grive/pics/1Snapshot_20130218_5.JPG'
p177
I53
tp178
g6
s(S'/home/clayton/grive/pics/6w45F00E26-EEF8-ADBC-B511-379A0FB86DFF.jpg'
p179
I9
tp180
g6
s(S'/home/clayton/grive/pics/0wA8290F86-C077-9F89-F9F7-464D6C6DEA5F.jpg'
p181
I26
tp182
g6
s(S'/home/clayton/grive/pics/1w30492B57-425C-19D5-B21A-38A9A06B20F8.jpg'
p183
I11
tp184
g6
s(S'/home/clayton/grive/pics/4wF6EF8C51-B792-9FCF-687D-3333BA797012.jpg'
p185
I28
tp186
g6
s(S'/home/clayton/grive/pics/1sad_david_bates.jpg'
p187
I4
tp188
g6
s(S'/home/clayton/grive/pics/3w62D19778-1AA6-13C2-004F-389AF747333D.jpg'
p189
I17
tp190
g6
s(S'/home/clayton/grive/pics/6w6C9F7832-CE9D-15A0-5DA4-6B8CFF5E8490.jpg'
p191
I73
tp192
g6
s(S'/home/clayton/grive/pics/3w7B52AA0B-3547-4AAC-D109-389D5596BF39.jpg'
p193
I31
tp194
g6
s(g60
I4
tp195
g17
s(S'/home/clayton/grive/pics/3wD61ACB92-52ED-6679-0D80-38A0B91ACF94.jpg'
p196
I41
tp197
g6
s(S'/home/clayton/grive/pics/0w545D8371-906B-59FB-3297-3D9D8D822C99.jpg'
p198
I56
tp199
g6
s(S'/home/clayton/grive/pics/0wA186136D-64B7-7288-372F-3843E2F6EAC4.jpg'
p200
I53
tp201
g6
s(S'/home/clayton/grive/pics/4w9142C5B8-00C3-B41B-B5F7-7B04092215BC.jpg'
p202
I13
tp203
g6
s(S'/home/clayton/grive/pics/3Surprised.jpg (Case Conflict 2)'
p204
I37
tp205
g6
s(S'/home/clayton/grive/pics/4w45F00E26-EEF8-ADBC-B511-379A0FB86DFF.jpg'
p206
I13
tp207
g6
s(S'/home/clayton/grive/pics/6wF7EB9296-7FE8-1C37-2486-4CDB6B286E59.jpg'
p208
I74
tp209
g6
s(S'/home/clayton/grive/pics/5wDF2DC2D6-F1E3-1B71-20E2-467A671A3D60.jpg'
p210
I29
tp211
g6
s(S'/home/clayton/grive/pics/1wE953282F-1713-2679-406D-285C8932B012.jpg'
p212
I11
tp213
g3
s(S'/home/clayton/grive/pics/1w86213EB0-EFE5-91A5-6308-4CE43B9C4ABB.jpg'
p214
I47
tp215
g6
s(S'/home/clayton/grive/pics/3w2C6C7917-E34A-87BF-D366-2849EADFBD8B.jpg'
p216
I11
tp217
g17
s(S'/home/clayton/grive/pics/5w545D8371-906B-59FB-3297-3D9D8D822C99.jpg'
p218
I41
tp219
g3
s(S'/home/clayton/grive/pics/5wD5BE1562-F05B-1AA8-6290-37EE9C424B0E.jpg'
p220
I53
tp221
g3
s(S'/home/clayton/grive/pics/4w9A37A263-9801-0A1A-312E-3334DD7F32AC.jpg'
p222
I50
tp223
g6
s(S'/home/clayton/grive/pics/3wE953282F-1713-2679-406D-285C8932B012.jpg'
p224
I21
tp225
g3
s(g118
I11
tp226
g17
s(S'/home/clayton/grive/pics/6-Neutral.JPG'
p227
I103
tp228
g6
s(S'/home/clayton/grive/pics/1wEE5FC257-9937-1847-8A4C-31E98B5E3AC3.jpg'
p229
I5
tp230
g17
s(S'/home/clayton/grive/pics/3DSCN0308.JPG'
p231
I69
tp232
g6
s(S'/home/clayton/grive/pics/3wEA81AD9F-C919-7319-BDCE-333C59C6579E.jpg'
p233
I29
tp234
g6
s(S'/home/clayton/grive/pics/3w9E129634-2C33-C86B-30F7-6B6F8AB2AF22.jpg'
p235
I42
tp236
g6
s(S'/home/clayton/grive/pics/4w2FF168A3-54B0-C7D9-47C9-37FA318D713D.jpg'
p237
I8
tp238
g17
s(S'/home/clayton/grive/pics/5wEBD68548-E683-453C-76FA-387540224631.jpg'
p239
I47
tp240
g3
s(S'/home/clayton/grive/pics/1w2C6C7917-E34A-87BF-D366-2849EADFBD8B.jpg'
p241
I35
tp242
g3
s(S'/home/clayton/grive/pics/6wA78D46C1-F503-3E91-F99D-6B2FA22B3D14.jpg'
p243
I66
tp244
g6
s(S'/home/clayton/grive/pics/2w157643A0-E4FE-5F90-C9B1-465764731874.jpg'
p245
I7
tp246
g3
s(S'/home/clayton/grive/pics/2DSCN0310.JPG'
p247
I92
tp248
g3
s(S'/home/clayton/grive/pics/1wD5BE1562-F05B-1AA8-6290-37EE9C424B0E.jpg'
p249
I24
tp250
g6
s(S'/home/clayton/grive/pics/3wD445B589-5883-3783-A84A-29622D8DBC8C.jpg'
p251
I74
tp252
g6
s(S'/home/clayton/grive/pics/0w157643A0-E4FE-5F90-C9B1-465764731874.jpg'
p253
I29
tp254
g6
s(S'/home/clayton/grive/pics/5wE953282F-1713-2679-406D-285C8932B012.jpg'
p255
I18
tp256
g3
s(S'/home/clayton/grive/pics/1wD445B589-5883-3783-A84A-29622D8DBC8C.jpg'
p257
I69
tp258
g6
s(S'/home/clayton/grive/pics/5wB6218480-F680-6013-04E0-38A57AE3C9A5.jpg'
p259
I43
tp260
g6
s(S'/home/clayton/grive/pics/5w9CF2D657-F38A-A867-1844-64AF3A43DEAA.jpg'
p261
I33
tp262
g6
s(S'/home/clayton/grive/pics/5w9142C5B8-00C3-B41B-B5F7-7B04092215BC.jpg'
p263
I15
tp264
g3
s(S'/home/clayton/grive/pics/6wB75D3F87-A36C-1CFC-5730-28E28C577A75.jpg'
p265
I55
tp266
g3
s(S'/home/clayton/grive/pics/4w157643A0-E4FE-5F90-C9B1-465764731874.jpg'
p267
I29
tp268
g6
s(S'/home/clayton/grive/pics/0w4123FC40-659C-BBF1-A29E-29652EC92828.jpg'
p269
I15
tp270
g17
s(S'/home/clayton/grive/pics/1wB7907848-2DA7-2CBC-9171-46E1D7C304D7.jpg'
p271
I30
tp272
g6
s(S'/home/clayton/grive/pics/2wCFBE9FE8-526E-B206-585D-7A9FA92FD844.jpg'
p273
I74
tp274
g6
s(S'/home/clayton/grive/pics/3w0CC8EC66-FAA1-705C-0776-4AE9EA516A65.jpg'
p275
I64
tp276
g6
s(S'/home/clayton/grive/pics/4wAEFC7C09-CD73-3B8E-A369-7AFA0E31AF3D.jpg'
p277
I45
tp278
g3
s(S'/home/clayton/grive/pics/1w3EC88953-2C9A-08EE-D3A5-465D5B7072D4.jpg'
p279
I72
tp280
g6
s(S'/home/clayton/grive/pics/4w2B02DD01-5BAB-ABA0-2EAF-3833D439A739.jpg'
p281
I121
tp282
g6
s(S'/home/clayton/grive/pics/2w77EDF533-C254-FD89-6404-4660A2F03302.jpg'
p283
I9
tp284
g17
s(S'/home/clayton/grive/pics/1wEBD68548-E683-453C-76FA-387540224631.jpg'
p285
I5
tp286
g17
s(S'/home/clayton/grive/pics/0w9E129634-2C33-C86B-30F7-6B6F8AB2AF22.jpg'
p287
I72
tp288
g6
s(S'/home/clayton/grive/pics/3w3F606B5D-77FB-F545-EEF4-36CCC8791888.jpg'
p289
I35
tp290
g17
s(S'/home/clayton/grive/pics/0wBE3974B4-A678-56B4-9610-286BC7FB53FC.jpg'
p291
I85
tp292
g6
s(S'/home/clayton/grive/pics/6w3F606B5D-77FB-F545-EEF4-36CCC8791888.jpg'
p293
I21
tp294
g17
s(S'/home/clayton/grive/pics/1w7E85E5B5-F196-987E-51DD-2EC43C62E76D.jpg'
p295
I61
tp296
g6
s(S'/home/clayton/grive/pics/3wCFBE9FE8-526E-B206-585D-7A9FA92FD844.jpg'
p297
I57
tp298
g6
s(S'/home/clayton/grive/pics/0wD5BE1562-F05B-1AA8-6290-37EE9C424B0E.jpg'
p299
I20
tp300
g6
s(S'/home/clayton/grive/pics/2Angry.jpg (Case Conflict 2)'
p301
I62
tp302
g3
s(S'/home/clayton/grive/pics/2w45F00E26-EEF8-ADBC-B511-379A0FB86DFF.jpg'
p303
I30
tp304
g6
s(S'/home/clayton/grive/pics/0w1DA4F3B0-46AF-07D5-6E56-2A8D17618C41.jpg'
p305
I34
tp306
g6
s(S'/home/clayton/grive/pics/0wBE6C87EF-3D62-189A-34DB-33F0A359A14F.jpg'
p307
I8
tp308
g17
s(S'/home/clayton/grive/pics/3wD9E9B0A8-7D98-A0F3-9A06-37ECA03E6425.jpg'
p309
I43
tp310
g3
s(S'/home/clayton/grive/pics/0wA17C2882-CBD3-D872-556E-45F7E2047628.jpg'
p311
I92
tp312
g6
s(S'/home/clayton/grive/pics/2w545D8371-906B-59FB-3297-3D9D8D822C99.jpg'
p313
I46
tp314
g6
s(S'/home/clayton/grive/pics/4wA186136D-64B7-7288-372F-3843E2F6EAC4.jpg'
p315
I60
tp316
g6
s(S'/home/clayton/grive/pics/3w8CE97341-98AC-5D5E-73AB-46736817D056.jpg'
p317
I14
tp318
g17
s(S'/home/clayton/grive/pics/2wB7907848-2DA7-2CBC-9171-46E1D7C304D7.jpg'
p319
I33
tp320
g3
s(S'/home/clayton/grive/pics/6wEE5FC257-9937-1847-8A4C-31E98B5E3AC3.jpg'
p321
I37
tp322
g6
s(S'/home/clayton/grive/pics/3w75B0A7BB-3879-FF92-CC05-37B01FC821E8.jpg'
p323
I54
tp324
g3
s(S'/home/clayton/grive/pics/0w809F0A15-03D4-873B-62D0-6B3146FEE7CF.jpg'
p325
I67
tp326
g6
s(S'/home/clayton/grive/pics/5w24FD90A0-B0EF-2E69-7527-48907DFAB4FA.jpg'
p327
I8
tp328
g17
s(S'/home/clayton/grive/pics/0wF7EB9296-7FE8-1C37-2486-4CDB6B286E59.jpg'
p329
I101
tp330
g6
s(g132
I14
tp331
g17
s(S'/home/clayton/grive/pics/0w6D8B00F1-237C-5070-C5C5-2725674902D4.jpg'
p332
I68
tp333
g6
s(S'/home/clayton/grive/pics/1w157643A0-E4FE-5F90-C9B1-465764731874.jpg'
p334
I26
tp335
g6
s(S'/home/clayton/grive/pics/3wEFC295BD-AB8D-C93F-1AEF-332E960B6391.jpg'
p336
I23
tp337
g6
s(S'/home/clayton/grive/pics/6wF38C5939-5878-3826-255B-37EF8300E8D1.jpg'
p338
I47
tp339
g6
s(S'/home/clayton/grive/pics/5w4123FC40-659C-BBF1-A29E-29652EC92828.jpg'
p340
I55
tp341
g6
s(S'/home/clayton/grive/pics/3Snapshot_20130218_3.JPG'
p342
I42
tp343
g6
s(S'/home/clayton/grive/pics/5w3F13F903-5652-1111-F8C4-28193F107980.jpg'
p344
I4
tp345
g17
s(S'/home/clayton/grive/pics/5w86213EB0-EFE5-91A5-6308-4CE43B9C4ABB.jpg'
p346
I56
tp347
g6
s(S'/home/clayton/grive/pics/5w0C837C12-99DE-6798-DCC0-6B372D9B14DF.jpg'
p348
I70
tp349
g3
s(S'/home/clayton/grive/pics/5wEFC295BD-AB8D-C93F-1AEF-332E960B6391.jpg'
p350
I24
tp351
g6
s(S'/home/clayton/grive/pics/2w30492B57-425C-19D5-B21A-38A9A06B20F8.jpg'
p352
I29
tp353
g6
s(S'/home/clayton/grive/pics/6w04AB60B8-053D-0086-A395-4698C6ECDA34.jpg'
p354
I41
tp355
g6
s(g173
I4
tp356
g17
s(S'/home/clayton/grive/pics/4wF9A08F82-E468-659D-6E2A-4649DD6662AF.jpg'
p357
I4
tp358
g6
s(S'/home/clayton/grive/pics/5w0A63D31C-0B59-BFF2-4F27-46B385316AD7.jpg'
p359
I27
tp360
g6
s(S'/home/clayton/grive/pics/1wD9E9B0A8-7D98-A0F3-9A06-37ECA03E6425.jpg'
p361
I52
tp362
g3
s(S'/home/clayton/grive/pics/2w75B0A7BB-3879-FF92-CC05-37B01FC821E8.jpg'
p363
I43
tp364
g3
s(S'/home/clayton/grive/pics/5wB7455899-8A91-0D14-67FB-3326BB8944DD.jpg'
p365
I17
tp366
g3
s(S'/home/clayton/grive/pics/4wFF66FA36-78E6-6508-EDF0-3686176BF53D.jpg'
p367
I11
tp368
g3
s(S'/home/clayton/grive/pics/4w77EDF533-C254-FD89-6404-4660A2F03302.jpg'
p369
I15
tp370
g3
s(S'/home/clayton/grive/pics/5w9FB993B7-8646-7117-CD23-27C2F4C7EC67.jpg'
p371
I117
tp372
g6
s(S'/home/clayton/grive/pics/3w3EC88953-2C9A-08EE-D3A5-465D5B7072D4.jpg'
p373
I59
tp374
g3
s(g357
I5
tp375
g17
s(S'/home/clayton/grive/pics/1wEED45041-BE05-1F78-5044-2EF641914EDD.jpg'
p376
I90
tp377
g6
s(S'/home/clayton/grive/pics/6w7E85E5B5-F196-987E-51DD-2EC43C62E76D.jpg'
p378
I73
tp379
g6
s(S'/home/clayton/grive/pics/2wE91A57C8-8766-64BA-4E1F-33C5F731BCE4.jpg'
p380
I37
tp381
g3
s(S'/home/clayton/grive/pics/3w3439D79B-2F14-0A7C-A485-3D9751A5715E.jpg'
p382
I14
tp383
g6
s(S'/home/clayton/grive/pics/0wDF2DC2D6-F1E3-1B71-20E2-467A671A3D60.jpg'
p384
I4
tp385
g17
s(S'/home/clayton/grive/pics/4wC8D3294A-B9A8-6A3A-8331-465651FB65F4.jpg'
p386
I85
tp387
g6
s(S'/home/clayton/grive/pics/2w656B02A8-518C-90F3-7234-38211A0CD399.jpg'
p388
I6
tp389
g17
s(S'/home/clayton/grive/pics/6wC8A7AD15-B749-2EF7-395E-3567AFF409A3.jpg'
p390
I8
tp391
g17
s(S'/home/clayton/grive/pics/1wE91A57C8-8766-64BA-4E1F-33C5F731BCE4.jpg'
p392
I28
tp393
g6
s(S'/home/clayton/grive/pics/4w7E85E5B5-F196-987E-51DD-2EC43C62E76D.jpg'
p394
I59
tp395
g6
s(S'/home/clayton/grive/pics/2wAEFC7C09-CD73-3B8E-A369-7AFA0E31AF3D.jpg'
p396
I45
tp397
g6
s(S'/home/clayton/grive/pics/3w4123FC40-659C-BBF1-A29E-29652EC92828.jpg'
p398
I71
tp399
g6
s(S'/home/clayton/grive/pics/3w98D0D5C2-5A24-77C4-893C-389C780B22BF.jpg'
p400
I8
tp401
g6
s(S'/home/clayton/grive/pics/2wD445B589-5883-3783-A84A-29622D8DBC8C.jpg'
p402
I78
tp403
g6
s(S'/home/clayton/grive/pics/2w42122DD0-1D98-3417-ED3C-3CD7325AEF4E.jpg'
p404
I50
tp405
g6
s(S'/home/clayton/grive/pics/3w9FB993B7-8646-7117-CD23-27C2F4C7EC67.jpg'
p406
I105
tp407
g6
s(S'/home/clayton/grive/pics/0wB7907848-2DA7-2CBC-9171-46E1D7C304D7.jpg'
p408
I44
tp409
g6
s(S'/home/clayton/grive/pics/2wFF66FA36-78E6-6508-EDF0-3686176BF53D.jpg'
p410
I20
tp411
g6
s(S'/home/clayton/grive/pics/4wAE00083F-0B9D-4EED-63B7-2757C366CB50.jpg'
p412
I66
tp413
g3
s(S'/home/clayton/grive/pics/6wD9E9B0A8-7D98-A0F3-9A06-37ECA03E6425.jpg'
p414
I45
tp415
g6
s(S'/home/clayton/grive/pics/5wA78D46C1-F503-3E91-F99D-6B2FA22B3D14.jpg'
p416
I77
tp417
g3
s(S'/home/clayton/grive/pics/6w6B887E6C-D9CE-E590-E3F0-6B34BF5BA23A.jpg'
p418
I28
tp419
g6
s(S'/home/clayton/grive/pics/0w5D592E12-AEF9-B530-374E-3322B125D1A1.jpg'
p420
I65
tp421
g6
s(S'/home/clayton/grive/pics/6w2B02DD01-5BAB-ABA0-2EAF-3833D439A739.jpg'
p422
I129
tp423
g6
s(S'/home/clayton/grive/pics/4w1522DE41-3A6C-DEA0-CB4C-46E4E637BE61.jpg'
p424
I41
tp425
g6
s(S'/home/clayton/grive/pics/5wEED45041-BE05-1F78-5044-2EF641914EDD.jpg'
p426
I86
tp427
g6
s(S'/home/clayton/grive/pics/6w1F9D7616-B031-13BA-2CF1-332BB1E15DC2.jpg'
p428
I54
tp429
g6
s(S'/home/clayton/grive/pics/1Sad.jpg (Case Conflict 2)'
p430
I56
tp431
g3
s(S'/home/clayton/grive/pics/6w3D74C8C9-3DC1-0E0C-4327-4CE1A9A76C25.jpg'
p432
I87
tp433
g3
s(S'/home/clayton/grive/pics/1w9CF2D657-F38A-A867-1844-64AF3A43DEAA.jpg'
p434
I24
tp435
g6
s(S'/home/clayton/grive/pics/5w1522DE41-3A6C-DEA0-CB4C-46E4E637BE61.jpg'
p436
I30
tp437
g6
s(S'/home/clayton/grive/pics/4scared54.jpg'
p438
I48
tp439
g3
s(S'/home/clayton/grive/pics/0w04AB60B8-053D-0086-A395-4698C6ECDA34.jpg'
p440
I39
tp441
g6
s(S'/home/clayton/grive/pics/5w9E129634-2C33-C86B-30F7-6B6F8AB2AF22.jpg'
p442
I73
tp443
g3
s(g67
I4
tp444
g17
s(S'/home/clayton/grive/pics/3wB327C73A-CBE4-4E6F-85BE-37EFF9F68B2E.jpg'
p445
I30
tp446
g3
s(S'/home/clayton/grive/pics/2w12EC627A-1192-EC96-EEC9-489DEAE24E0B.jpg'
p447
I38
tp448
g6
s(S'/home/clayton/grive/pics/3w4A42FC32-7901-26E1-A91B-33331AA34C92.jpg'
p449
I41
tp450
g6
s(S'/home/clayton/grive/pics/1wFF66FA36-78E6-6508-EDF0-3686176BF53D.jpg'
p451
I18
tp452
g6
s(g62
I8
tp453
g17
s(S'/home/clayton/grive/pics/0w038FF51B-B514-1E4A-1F79-37ACE961D312.jpg'
p454
I50
tp455
g6
s(g98
I4
tp456
g17
s(g90
I7
tp457
g17
s(S'/home/clayton/grive/pics/2w1F9D7616-B031-13BA-2CF1-332BB1E15DC2.jpg'
p458
I102
tp459
g6
s(S'/home/clayton/grive/pics/6wBE6C87EF-3D62-189A-34DB-33F0A359A14F.jpg'
p460
I10
tp461
g6
s(S'/home/clayton/grive/pics/0w0CC8EC66-FAA1-705C-0776-4AE9EA516A65.jpg'
p462
I4
tp463
g17
s(S'/home/clayton/grive/pics/1Sad.jpg'
p464
I57
tp465
g6
s(S'/home/clayton/grive/pics/6w9142C5B8-00C3-B41B-B5F7-7B04092215BC.jpg'
p466
I12
tp467
g6
s(g67
I48
tp468
g3
s(S'/home/clayton/grive/pics/4w4ACD6E21-0751-DEA6-DB60-2F0500DBF231.jpg'
p469
I111
tp470
g6
s(S'/home/clayton/grive/pics/1wC8A7AD15-B749-2EF7-395E-3567AFF409A3.jpg'
p471
I45
tp472
g3
s(S'/home/clayton/grive/pics/2w5D592E12-AEF9-B530-374E-3322B125D1A1.jpg'
p473
I84
tp474
g3
s(S'/home/clayton/grive/pics/3w3D74C8C9-3DC1-0E0C-4327-4CE1A9A76C25.jpg'
p475
I102
tp476
g6
s(S'/home/clayton/grive/pics/2wA17C2882-CBD3-D872-556E-45F7E2047628.jpg'
p477
I88
tp478
g3
s(S'/home/clayton/grive/pics/0wF9A08F82-E468-659D-6E2A-4649DD6662AF.jpg'
p479
I30
tp480
g6
s(S'/home/clayton/grive/pics/5w99B8ED23-08A7-D462-5293-489B07663B77.jpg'
p481
I69
tp482
g6
s(S'/home/clayton/grive/pics/1w4A42FC32-7901-26E1-A91B-33331AA34C92.jpg'
p483
I13
tp484
g6
s(S'/home/clayton/grive/pics/0w547FEF42-FCBE-B966-D617-2888E39F4498.jpg'
p485
I42
tp486
g6
s(S'/home/clayton/grive/pics/1-Sad.JPG'
p487
I110
tp488
g6
s(S'/home/clayton/grive/pics/2w2FF168A3-54B0-C7D9-47C9-37FA318D713D.jpg'
p489
I4
tp490
g17
s(S'/home/clayton/grive/pics/6w3EC88953-2C9A-08EE-D3A5-465D5B7072D4.jpg'
p491
I85
tp492
g6
s(S'/home/clayton/grive/pics/6w4123FC40-659C-BBF1-A29E-29652EC92828.jpg'
p493
I36
tp494
g17
s(g227
I6
tp495
g17
s(S'/home/clayton/grive/pics/5w04AB60B8-053D-0086-A395-4698C6ECDA34.jpg'
p496
I58
tp497
g3
s(S'/home/clayton/grive/pics/4wD5BE1562-F05B-1AA8-6290-37EE9C424B0E.jpg'
p498
I17
tp499
g3
s(S'/home/clayton/grive/pics/2w0C837C12-99DE-6798-DCC0-6B372D9B14DF.jpg'
p500
I68
tp501
g6
s(S'/home/clayton/grive/pics/4w7B52AA0B-3547-4AAC-D109-389D5596BF39.jpg'
p502
I6
tp503
g17
s(S'/home/clayton/grive/pics/3wFF66FA36-78E6-6508-EDF0-3686176BF53D.jpg'
p504
I15
tp505
g6
s(S'/home/clayton/grive/pics/0DSCN0305.JPG'
p506
I82
tp507
g6
s(S'/home/clayton/grive/pics/1wC89E1EA6-6B03-0107-19C6-312038C89CA1.jpg'
p508
I67
tp509
g6
s(S'/home/clayton/grive/pics/3w12EC627A-1192-EC96-EEC9-489DEAE24E0B.jpg'
p510
I59
tp511
g6
s(S'/home/clayton/grive/pics/2w2C6C7917-E34A-87BF-D366-2849EADFBD8B.jpg'
p512
I22
tp513
g6
s(S'/home/clayton/grive/pics/1wB3B65A5B-6FD6-FB6B-DC2C-3797ABC3D83E.jpg'
p514
I41
tp515
g6
s(S'/home/clayton/grive/pics/3w5D592E12-AEF9-B530-374E-3322B125D1A1.jpg'
p516
I93
tp517
g3
s(S'/home/clayton/grive/pics/4w99B8ED23-08A7-D462-5293-489B07663B77.jpg'
p518
I52
tp519
g3
s(S'/home/clayton/grive/pics/6w62D19778-1AA6-13C2-004F-389AF747333D.jpg'
p520
I31
tp521
g6
s(S'/home/clayton/grive/pics/2w99B8ED23-08A7-D462-5293-489B07663B77.jpg'
p522
I38
tp523
g3
s(S'/home/clayton/grive/pics/2w6D8B00F1-237C-5070-C5C5-2725674902D4.jpg'
p524
I67
tp525
g6
s(S'/home/clayton/grive/pics/3w77EDF533-C254-FD89-6404-4660A2F03302.jpg'
p526
I12
tp527
g17
s(S'/home/clayton/grive/pics/6wCADCAECA-D3E7-342A-07FA-4652ED88FBA9.jpg'
p528
I10
tp529
g6
s(S'/home/clayton/grive/pics/2w01343164-B10C-A805-EF2F-2D0A02E780D0.jpg'
p530
I106
tp531
g6
s(S'/home/clayton/grive/pics/6w2C6C7917-E34A-87BF-D366-2849EADFBD8B.jpg'
p532
I30
tp533
g6
s(g140
I17
tp534
g6
s(S'/home/clayton/grive/pics/3w656B02A8-518C-90F3-7234-38211A0CD399.jpg'
p535
I46
tp536
g3
s(S'/home/clayton/grive/pics/4wF7EB9296-7FE8-1C37-2486-4CDB6B286E59.jpg'
p537
I94
tp538
g6
s(S'/home/clayton/grive/pics/1wEA81AD9F-C919-7319-BDCE-333C59C6579E.jpg'
p539
I28
tp540
g6
s(S'/home/clayton/grive/pics/5w3ED8AF10-C2CD-9852-6CD0-4B1889141529.jpg'
p541
I4
tp542
g17
s(S'/home/clayton/grive/pics/0w7F7338BC-E565-8DED-FB80-46627677A6C7.jpg'
p543
I72
tp544
g6
s(S'/home/clayton/grive/pics/6w9CF2D657-F38A-A867-1844-64AF3A43DEAA.jpg'
p545
I33
tp546
g6
s(S'/home/clayton/grive/pics/2w3AC58273-1249-F4C2-3A1C-289D10094EB9.jpg'
p547
I102
tp548
g6
s(S'/home/clayton/grive/pics/2w0A63D31C-0B59-BFF2-4F27-46B385316AD7.jpg'
p549
I31
tp550
g6
s(S'/home/clayton/grive/pics/2w3EC88953-2C9A-08EE-D3A5-465D5B7072D4.jpg'
p551
I80
tp552
g6
s(S'/home/clayton/grive/pics/1wB75D3F87-A36C-1CFC-5730-28E28C577A75.jpg'
p553
I23
tp554
g3
s(S'/home/clayton/grive/pics/3w04AB60B8-053D-0086-A395-4698C6ECDA34.jpg'
p555
I32
tp556
g6
s(S'/home/clayton/grive/pics/0KuoHappy.jpg'
p557
I99
tp558
g6
s(S'/home/clayton/grive/pics/6wAE00083F-0B9D-4EED-63B7-2757C366CB50.jpg'
p559
I64
tp560
g6
s(S'/home/clayton/grive/pics/5wF9A08F82-E468-659D-6E2A-4649DD6662AF.jpg'
p561
I39
tp562
g6
s(S'/home/clayton/grive/pics/2KuoAngry.jpg'
p563
I127
tp564
g3
s(S'/home/clayton/grive/pics/0w57166D0D-8403-104C-6BEA-2F07DBC2E389.jpg'
p565
I23
tp566
g3
s(S'/home/clayton/grive/pics/3w57166D0D-8403-104C-6BEA-2F07DBC2E389.jpg'
p567
I34
tp568
g3
s(S'/home/clayton/grive/pics/0wEA81AD9F-C919-7319-BDCE-333C59C6579E.jpg'
p569
I38
tp570
g6
s(S'/home/clayton/grive/pics/2w70574034-301E-9568-EB56-389E0E002C5E.jpg'
p571
I56
tp572
g6
s(S'/home/clayton/grive/pics/3w9DC9791F-43FF-A0F2-136E-27278922DE8B.jpg'
p573
I16
tp574
g3
s(g4
I14
tp575
g17
s(g235
I5
tp576
g17
s(S'/home/clayton/grive/pics/0Happy.jpg (Case Conflict 2)'
p577
I67
tp578
g6
s(S'/home/clayton/grive/pics/1w7B52AA0B-3547-4AAC-D109-389D5596BF39.jpg'
p579
I20
tp580
g6
s(S'/home/clayton/grive/pics/5wF7EB9296-7FE8-1C37-2486-4CDB6B286E59.jpg'
p581
I59
tp582
g3
s(g239
I4
tp583
g17
s(S'/home/clayton/grive/pics/0w3AC58273-1249-F4C2-3A1C-289D10094EB9.jpg'
p584
I18
tp585
g17
s(S'/home/clayton/grive/pics/5w3F606B5D-77FB-F545-EEF4-36CCC8791888.jpg'
p586
I15
tp587
g17
s(S'/home/clayton/grive/pics/4w0AAA0AC9-6F8F-E71E-133D-46E81C08DACC.jpg'
p588
I27
tp589
g6
s(S'/home/clayton/grive/pics/4w6C9F7832-CE9D-15A0-5DA4-6B8CFF5E8490.jpg'
p590
I67
tp591
g3
s(S'/home/clayton/grive/pics/5w7E85E5B5-F196-987E-51DD-2EC43C62E76D.jpg'
p592
I72
tp593
g6
s(S'/home/clayton/grive/pics/6w038FF51B-B514-1E4A-1F79-37ACE961D312.jpg'
p594
I45
tp595
g6
s(S'/home/clayton/grive/pics/3wD5BE1562-F05B-1AA8-6290-37EE9C424B0E.jpg'
p596
I26
tp597
g6
s(S'/home/clayton/grive/pics/5w70574034-301E-9568-EB56-389E0E002C5E.jpg'
p598
I45
tp599
g3
s(S'/home/clayton/grive/pics/5w57166D0D-8403-104C-6BEA-2F07DBC2E389.jpg'
p600
I41
tp601
g6
s(S'/home/clayton/grive/pics/4-Scared.JPG'
p602
I8
tp603
g17
s(S'/home/clayton/grive/pics/0w24FD90A0-B0EF-2E69-7527-48907DFAB4FA.jpg'
p604
I10
tp605
g6
s(S'/home/clayton/grive/pics/4w656B02A8-518C-90F3-7234-38211A0CD399.jpg'
p606
I40
tp607
g6
s(S'/home/clayton/grive/pics/3w2FF168A3-54B0-C7D9-47C9-37FA318D713D.jpg'
p608
I4
tp609
g6
s(S'/home/clayton/grive/pics/4scared.jpg'
p610
I64
tp611
g6
s(S'/home/clayton/grive/pics/2w3F606B5D-77FB-F545-EEF4-36CCC8791888.jpg'
p612
I6
tp613
g17
s(S'/home/clayton/grive/pics/3w0D1FB1C2-D30A-E25F-2EBB-27E9151B697F.jpg'
p614
I20
tp615
g6
s(S'/home/clayton/grive/pics/1w11C902A3-3D0A-1956-0538-6B9806AA4F9F.jpg'
p616
I64
tp617
g6
s(S'/home/clayton/grive/pics/5w45F00E26-EEF8-ADBC-B511-379A0FB86DFF.jpg'
p618
I13
tp619
g6
s(S'/home/clayton/grive/pics/6wDF2DC2D6-F1E3-1B71-20E2-467A671A3D60.jpg'
p620
I4
tp621
g17
s(S'/home/clayton/grive/pics/2w5F3E20F0-CA15-AB7C-C873-3329D70151F2.jpg'
p622
I36
tp623
g6
s(S'/home/clayton/grive/pics/0w9142C5B8-00C3-B41B-B5F7-7B04092215BC.jpg'
p624
I20
tp625
g6
s(S'/home/clayton/grive/pics/5w6A3CAB4F-95AC-25CB-4CD4-2D0EA445F376.jpg'
p626
I48
tp627
g3
s(S'/home/clayton/grive/pics/3wB7907848-2DA7-2CBC-9171-46E1D7C304D7.jpg'
p628
I21
tp629
g6
s(S'/home/clayton/grive/pics/0w9DC9791F-43FF-A0F2-136E-27278922DE8B.jpg'
p630
I26
tp631
g6
s(S'/home/clayton/grive/pics/4KuoGlassesScared.jpg'
p632
I90
tp633
g3
s(S'/home/clayton/grive/pics/1w3D74C8C9-3DC1-0E0C-4327-4CE1A9A76C25.jpg'
p634
I85
tp635
g6
s(S'/home/clayton/grive/pics/0happy5.JPG'
p636
I98
tp637
g6
s(g471
I13
tp638
g17
s(g275
I4
tp639
g17
s(S'/home/clayton/grive/pics/1KuoGlassesSad.jpg'
p640
I60
tp641
g6
s(S'/home/clayton/grive/pics/5w2B02DD01-5BAB-ABA0-2EAF-3833D439A739.jpg'
p642
I118
tp643
g6
s(S'/home/clayton/grive/pics/0w1F9D7616-B031-13BA-2CF1-332BB1E15DC2.jpg'
p644
I94
tp645
g6
s(S'/home/clayton/grive/pics/4w038FF51B-B514-1E4A-1F79-37ACE961D312.jpg'
p646
I39
tp647
g6
s(S'/home/clayton/grive/pics/4wBE6C87EF-3D62-189A-34DB-33F0A359A14F.jpg'
p648
I23
tp649
g6
s(g388
I4
tp650
g17
s(S'/home/clayton/grive/pics/0w6B887E6C-D9CE-E590-E3F0-6B34BF5BA23A.jpg'
p651
I18
tp652
g6
s(S'/home/clayton/grive/pics/2w4ACD6E21-0751-DEA6-DB60-2F0500DBF231.jpg'
p653
I99
tp654
g6
s(S'/home/clayton/grive/pics/0happy7.JPG'
p655
I131
tp656
g6
s(S'/home/clayton/grive/pics/2w4123FC40-659C-BBF1-A29E-29652EC92828.jpg'
p657
I18
tp658
g17
s(S'/home/clayton/grive/pics/2wF38C5939-5878-3826-255B-37EF8300E8D1.jpg'
p659
I45
tp660
g6
s(S'/home/clayton/grive/pics/6wEBD68548-E683-453C-76FA-387540224631.jpg'
p661
I47
tp662
g6
s(g307
I6
tp663
g6
s(S'/home/clayton/grive/pics/4wB6218480-F680-6013-04E0-38A57AE3C9A5.jpg'
p664
I58
tp665
g3
s(S'/home/clayton/grive/pics/3wA8290F86-C077-9F89-F9F7-464D6C6DEA5F.jpg'
p666
I43
tp667
g6
s(S'/home/clayton/grive/pics/3w157643A0-E4FE-5F90-C9B1-465764731874.jpg'
p668
I10
tp669
g6
s(S'/home/clayton/grive/pics/1w0C837C12-99DE-6798-DCC0-6B372D9B14DF.jpg'
p670
I75
tp671
g6
s(S'/home/clayton/grive/pics/3w5F3E20F0-CA15-AB7C-C873-3329D70151F2.jpg'
p672
I28
tp673
g6
s(S'/home/clayton/grive/pics/4wEBD68548-E683-453C-76FA-387540224631.jpg'
p674
I31
tp675
g6
s(S'/home/clayton/grive/pics/1w9A37A263-9801-0A1A-312E-3334DD7F32AC.jpg'
p676
I40
tp677
g6
s(S'/home/clayton/grive/pics/4wEA81AD9F-C919-7319-BDCE-333C59C6579E.jpg'
p678
I24
tp679
g6
s(S'/home/clayton/grive/pics/2wEE5FC257-9937-1847-8A4C-31E98B5E3AC3.jpg'
p680
I5
tp681
g17
s(S'/home/clayton/grive/pics/2w1522DE41-3A6C-DEA0-CB4C-46E4E637BE61.jpg'
p682
I30
tp683
g6
s(S'/home/clayton/grive/pics/0wCC78F689-E22B-23A4-2B55-3336F8A9B35C.jpg'
p684
I53
tp685
g6
s(S'/home/clayton/grive/pics/1wA17C2882-CBD3-D872-556E-45F7E2047628.jpg'
p686
I9
tp687
g17
s(S'/home/clayton/grive/pics/0w422A3E39-00CD-54DC-F42A-332478449BD6.jpg'
p688
I102
tp689
g6
s(S'/home/clayton/grive/pics/6wCFBE9FE8-526E-B206-585D-7A9FA92FD844.jpg'
p690
I59
tp691
g6
s(S'/home/clayton/grive/pics/1wD6ABCA51-AA30-AB83-36E3-3D933B925793.jpg'
p692
I8
tp693
g17
s(S'/home/clayton/grive/pics/4wCADCAECA-D3E7-342A-07FA-4652ED88FBA9.jpg'
p694
I26
tp695
g3
s(S'/home/clayton/grive/pics/0Happy.jpg (Case Conflict 1)'
p696
I56
tp697
g6
s(S'/home/clayton/grive/pics/3w3AC58273-1249-F4C2-3A1C-289D10094EB9.jpg'
p698
I88
tp699
g6
s(S'/home/clayton/grive/pics/3wB6218480-F680-6013-04E0-38A57AE3C9A5.jpg'
p700
I43
tp701
g6
s(S'/home/clayton/grive/pics/0w9D75EFDC-3AE6-E0D7-C7F4-28316CCF01BA.jpg'
p702
I114
tp703
g6
s(S'/home/clayton/grive/pics/0wD6ABCA51-AA30-AB83-36E3-3D933B925793.jpg'
p704
I9
tp705
g17
s(S'/home/clayton/grive/pics/1w455E62E6-5EAF-9986-F10E-383E9405062F.jpg'
p706
I54
tp707
g6
s(S'/home/clayton/grive/pics/3w1522DE41-3A6C-DEA0-CB4C-46E4E637BE61.jpg'
p708
I21
tp709
g6
s(g584
I135
tp710
g6
s(S'/home/clayton/grive/pics/4w3AC58273-1249-F4C2-3A1C-289D10094EB9.jpg'
p711
I110
tp712
g6
s(S'/home/clayton/grive/pics/0w0C837C12-99DE-6798-DCC0-6B372D9B14DF.jpg'
p713
I80
tp714
g6
s(S'/home/clayton/grive/pics/6wE953282F-1713-2679-406D-285C8932B012.jpg'
p715
I23
tp716
g6
s(S'/home/clayton/grive/pics/4w547FEF42-FCBE-B966-D617-2888E39F4498.jpg'
p717
I44
tp718
g3
s(S'/home/clayton/grive/pics/2w455E62E6-5EAF-9986-F10E-383E9405062F.jpg'
p719
I73
tp720
g6
s(S'/home/clayton/grive/pics/6w0CC8EC66-FAA1-705C-0776-4AE9EA516A65.jpg'
p721
I4
tp722
g17
s(S'/home/clayton/grive/pics/5w157643A0-E4FE-5F90-C9B1-465764731874.jpg'
p723
I17
tp724
g6
s(S'/home/clayton/grive/pics/0wEBD68548-E683-453C-76FA-387540224631.jpg'
p725
I33
tp726
g6
s(S'/home/clayton/grive/pics/3w809F0A15-03D4-873B-62D0-6B3146FEE7CF.jpg'
p727
I8
tp728
g17
s(S'/home/clayton/grive/pics/4w75B0A7BB-3879-FF92-CC05-37B01FC821E8.jpg'
p729
I31
tp730
g3
s(S'/home/clayton/grive/pics/0w3439D79B-2F14-0A7C-A485-3D9751A5715E.jpg'
p731
I35
tp732
g6
s(S'/home/clayton/grive/pics/1wCADCAECA-D3E7-342A-07FA-4652ED88FBA9.jpg'
p733
I14
tp734
g3
s(g680
I26
tp735
g6
s(S'/home/clayton/grive/pics/2wB7455899-8A91-0D14-67FB-3326BB8944DD.jpg'
p736
I72
tp737
g6
s(S'/home/clayton/grive/pics/0wEED45041-BE05-1F78-5044-2EF641914EDD.jpg'
p738
I85
tp739
g6
s(S'/home/clayton/grive/pics/5w3AC58273-1249-F4C2-3A1C-289D10094EB9.jpg'
p740
I8
tp741
g17
s(S'/home/clayton/grive/pics/0KuoHappy2.jpg'
p742
I112
tp743
g6
s(S'/home/clayton/grive/pics/4w70574034-301E-9568-EB56-389E0E002C5E.jpg'
p744
I36
tp745
g6
s(S'/home/clayton/grive/pics/0wB75D3F87-A36C-1CFC-5730-28E28C577A75.jpg'
p746
I74
tp747
g6
s(g740
I110
tp748
g6
s(S'/home/clayton/grive/pics/3w42122DD0-1D98-3417-ED3C-3CD7325AEF4E.jpg'
p749
I35
tp750
g6
s(S'/home/clayton/grive/pics/3wF38C5939-5878-3826-255B-37EF8300E8D1.jpg'
p751
I30
tp752
g6
s(g60
I9
tp753
g17
s(S'/home/clayton/grive/pics/6wFA3A2A73-D799-1F82-B7C9-6B922E50F6D3.jpg'
p754
I57
tp755
g6
s(S'/home/clayton/grive/pics/0wAE00083F-0B9D-4EED-63B7-2757C366CB50.jpg'
p756
I69
tp757
g6
s(S'/home/clayton/grive/pics/4wCFBE9FE8-526E-B206-585D-7A9FA92FD844.jpg'
p758
I60
tp759
g6
s(S'/home/clayton/grive/pics/0wF6EF8C51-B792-9FCF-687D-3333BA797012.jpg'
p760
I54
tp761
g6
s(S'/home/clayton/grive/pics/0w12EC627A-1192-EC96-EEC9-489DEAE24E0B.jpg'
p762
I48
tp763
g6
s(g309
I6
tp764
g17
s(g384
I5
tp765
g17
s(S'/home/clayton/grive/pics/5w2FF168A3-54B0-C7D9-47C9-37FA318D713D.jpg'
p766
I20
tp767
g6
s(S'/home/clayton/grive/pics/6Neutral.jpg'
p768
I78
tp769
g6
s(S'/home/clayton/grive/pics/1w6A3CAB4F-95AC-25CB-4CD4-2D0EA445F376.jpg'
p770
I54
tp771
g6
s(S'/home/clayton/grive/pics/0wCADCAECA-D3E7-342A-07FA-4652ED88FBA9.jpg'
p772
I4
tp773
g6
s(S'/home/clayton/grive/pics/2w6A3CAB4F-95AC-25CB-4CD4-2D0EA445F376.jpg'
p774
I47
tp775
g6
s(S'/home/clayton/grive/pics/3wC89E1EA6-6B03-0107-19C6-312038C89CA1.jpg'
p776
I52
tp777
g6
s(S'/home/clayton/grive/pics/1w3ED8AF10-C2CD-9852-6CD0-4B1889141529.jpg'
p778
I19
tp779
g3
s(S'/home/clayton/grive/pics/6w3F13F903-5652-1111-F8C4-28193F107980.jpg'
p780
I9
tp781
g17
s(S'/home/clayton/grive/pics/3wEBD68548-E683-453C-76FA-387540224631.jpg'
p782
I47
tp783
g6
s(S'/home/clayton/grive/pics/2wB3B65A5B-6FD6-FB6B-DC2C-3797ABC3D83E.jpg'
p784
I58
tp785
g3
s(g657
I52
tp786
g3
s(S'/home/clayton/grive/pics/4w6D8B00F1-237C-5070-C5C5-2725674902D4.jpg'
p787
I82
tp788
g6
s(S'/home/clayton/grive/pics/5wAE00083F-0B9D-4EED-63B7-2757C366CB50.jpg'
p789
I70
tp790
g6
s(S'/home/clayton/grive/pics/5wD61ACB92-52ED-6679-0D80-38A0B91ACF94.jpg'
p791
I59
tp792
g6
s(S'/home/clayton/grive/pics/1w0D1FB1C2-D30A-E25F-2EBB-27E9151B697F.jpg'
p793
I15
tp794
g3
s(S'/home/clayton/grive/pics/0wFA3A2A73-D799-1F82-B7C9-6B922E50F6D3.jpg'
p795
I79
tp796
g6
s(S'/home/clayton/grive/pics/6wB3B65A5B-6FD6-FB6B-DC2C-3797ABC3D83E.jpg'
p797
I35
tp798
g6
s(S'/home/clayton/grive/pics/6wE91A57C8-8766-64BA-4E1F-33C5F731BCE4.jpg'
p799
I44
tp800
g6
s(S'/home/clayton/grive/pics/1w24FD90A0-B0EF-2E69-7527-48907DFAB4FA.jpg'
p801
I18
tp802
g6
s(S'/home/clayton/grive/pics/6w4ACD6E21-0751-DEA6-DB60-2F0500DBF231.jpg'
p803
I118
tp804
g6
s(S'/home/clayton/grive/pics/5wA186136D-64B7-7288-372F-3843E2F6EAC4.jpg'
p805
I64
tp806
g6
s(S'/home/clayton/grive/pics/3w7F7338BC-E565-8DED-FB80-46627677A6C7.jpg'
p807
I66
tp808
g3
s(S'/home/clayton/grive/pics/2w9DC9791F-43FF-A0F2-136E-27278922DE8B.jpg'
p809
I18
tp810
g6
s(S'/home/clayton/grive/pics/1w57166D0D-8403-104C-6BEA-2F07DBC2E389.jpg'
p811
I35
tp812
g6
s(S'/home/clayton/grive/pics/3wF6EF8C51-B792-9FCF-687D-3333BA797012.jpg'
p813
I33
tp814
g6
s(S'/home/clayton/grive/pics/1w0A63D31C-0B59-BFF2-4F27-46B385316AD7.jpg'
p815
I34
tp816
g3
s(S'/home/clayton/grive/pics/1w2FF168A3-54B0-C7D9-47C9-37FA318D713D.jpg'
p817
I7
tp818
g6
s(S'/home/clayton/grive/pics/2w57166D0D-8403-104C-6BEA-2F07DBC2E389.jpg'
p819
I43
tp820
g6
s(S'/home/clayton/grive/pics/1w4ACD6E21-0751-DEA6-DB60-2F0500DBF231.jpg'
p821
I75
tp822
g6
s(S'/home/clayton/grive/pics/6w9D75EFDC-3AE6-E0D7-C7F4-28316CCF01BA.jpg'
p823
I109
tp824
g6
s(S'/home/clayton/grive/pics/5wEA81AD9F-C919-7319-BDCE-333C59C6579E.jpg'
p825
I28
tp826
g3
s(S'/home/clayton/grive/pics/6wCC78F689-E22B-23A4-2B55-3336F8A9B35C.jpg'
p827
I31
tp828
g6
s(g357
I6
tp829
g17
s(S'/home/clayton/grive/pics/4wDF2DC2D6-F1E3-1B71-20E2-467A671A3D60.jpg'
p830
I5
tp831
g17
s(S'/home/clayton/grive/pics/1w3AC58273-1249-F4C2-3A1C-289D10094EB9.jpg'
p832
I109
tp833
g6
s(S'/home/clayton/grive/pics/0happy1.JPG'
p834
I90
tp835
g6
s(S'/home/clayton/grive/pics/2w9A37A263-9801-0A1A-312E-3334DD7F32AC.jpg'
p836
I36
tp837
g6
s(S'/home/clayton/grive/pics/6wBE3974B4-A678-56B4-9610-286BC7FB53FC.jpg'
p838
I80
tp839
g6
s(S'/home/clayton/grive/pics/6neutral2.jpg'
p840
I17
tp841
g17
s(S'/home/clayton/grive/pics/0wE91A57C8-8766-64BA-4E1F-33C5F731BCE4.jpg'
p842
I36
tp843
g6
s(S'/home/clayton/grive/pics/0wC8D3294A-B9A8-6A3A-8331-465651FB65F4.jpg'
p844
I74
tp845
g6
s(S'/home/clayton/grive/pics/5wD445B589-5883-3783-A84A-29622D8DBC8C.jpg'
p846
I95
tp847
g6
s(g1
I4
tp848
g17
s(S'/home/clayton/grive/pics/6wC89E1EA6-6B03-0107-19C6-312038C89CA1.jpg'
p849
I83
tp850
g6
s(S'/home/clayton/grive/pics/1wBE6C87EF-3D62-189A-34DB-33F0A359A14F.jpg'
p851
I19
tp852
g3
s(S'/home/clayton/grive/pics/0wD9E9B0A8-7D98-A0F3-9A06-37ECA03E6425.jpg'
p853
I34
tp854
g6
s(S'/home/clayton/grive/pics/5w42122DD0-1D98-3417-ED3C-3CD7325AEF4E.jpg'
p855
I46
tp856
g6
s(g620
I32
tp857
g6
s(S'/home/clayton/grive/pics/4w10F317F3-9F1E-F59C-B335-38A8ADEE47AF.jpg'
p858
I38
tp859
g6
s(S'/home/clayton/grive/pics/1w62D19778-1AA6-13C2-004F-389AF747333D.jpg'
p860
I25
tp861
g6
s(S'/home/clayton/grive/pics/2w98D0D5C2-5A24-77C4-893C-389C780B22BF.jpg'
p862
I39
tp863
g6
s(S'/home/clayton/grive/pics/1wF38C5939-5878-3826-255B-37EF8300E8D1.jpg'
p864
I26
tp865
g6
s(S'/home/clayton/grive/pics/4w30492B57-425C-19D5-B21A-38A9A06B20F8.jpg'
p866
I4
tp867
g17
s(S'/home/clayton/grive/pics/3w2B02DD01-5BAB-ABA0-2EAF-3833D439A739.jpg'
p868
I128
tp869
g6
s(S'/home/clayton/grive/pics/0w86213EB0-EFE5-91A5-6308-4CE43B9C4ABB.jpg'
p870
I36
tp871
g6
s(S'/home/clayton/grive/pics/0w6C9F7832-CE9D-15A0-5DA4-6B8CFF5E8490.jpg'
p872
I64
tp873
g6
s(S'/home/clayton/grive/pics/4w1F9D7616-B031-13BA-2CF1-332BB1E15DC2.jpg'
p874
I39
tp875
g6
s(S'/home/clayton/grive/pics/5w9A37A263-9801-0A1A-312E-3334DD7F32AC.jpg'
p876
I57
tp877
g6
s(S'/home/clayton/grive/pics/4wB327C73A-CBE4-4E6F-85BE-37EFF9F68B2E.jpg'
p878
I11
tp879
g17
s(S'/home/clayton/grive/pics/3wEE5FC257-9937-1847-8A4C-31E98B5E3AC3.jpg'
p880
I32
tp881
g3
s(S'/home/clayton/grive/pics/4wA17C2882-CBD3-D872-556E-45F7E2047628.jpg'
p882
I83
tp883
g6
s(S'/home/clayton/grive/pics/1w98D0D5C2-5A24-77C4-893C-389C780B22BF.jpg'
p884
I29
tp885
g3
s(S'/home/clayton/grive/pics/3w10F317F3-9F1E-F59C-B335-38A8ADEE47AF.jpg'
p886
I66
tp887
g6
s(S'/home/clayton/grive/pics/1w2C9F8C42-E900-B747-C962-465A32A9CCE7.jpg'
p888
I4
tp889
g3
s(S'/home/clayton/grive/pics/6w86213EB0-EFE5-91A5-6308-4CE43B9C4ABB.jpg'
p890
I48
tp891
g6
s(S'/home/clayton/grive/pics/0w98D0D5C2-5A24-77C4-893C-389C780B22BF.jpg'
p892
I53
tp893
g6
s(S'/home/clayton/grive/pics/5w5D592E12-AEF9-B530-374E-3322B125D1A1.jpg'
p894
I94
tp895
g3
s(S'/home/clayton/grive/pics/5wCC78F689-E22B-23A4-2B55-3336F8A9B35C.jpg'
p896
I35
tp897
g3
s(S'/home/clayton/grive/pics/3wD2C8420A-CA69-4783-1899-278856A49F4B.jpg'
p898
I20
tp899
g6
s(S'/home/clayton/grive/pics/0w01343164-B10C-A805-EF2F-2D0A02E780D0.jpg'
p900
I72
tp901
g6
s(S'/home/clayton/grive/pics/3w9CF2D657-F38A-A867-1844-64AF3A43DEAA.jpg'
p902
I26
tp903
g6
s(S'/home/clayton/grive/pics/0wFF66FA36-78E6-6508-EDF0-3686176BF53D.jpg'
p904
I15
tp905
g6
s(S'/home/clayton/grive/pics/0w6A3CAB4F-95AC-25CB-4CD4-2D0EA445F376.jpg'
p906
I71
tp907
g6
s(S'/home/clayton/grive/pics/6w0A63D31C-0B59-BFF2-4F27-46B385316AD7.jpg'
p908
I38
tp909
g6
s(S'/home/clayton/grive/pics/2wF6EF8C51-B792-9FCF-687D-3333BA797012.jpg'
p910
I26
tp911
g6
s(S'/home/clayton/grive/pics/6w4A42FC32-7901-26E1-A91B-33331AA34C92.jpg'
p912
I37
tp913
g6
s(S'/home/clayton/grive/pics/2w24FD90A0-B0EF-2E69-7527-48907DFAB4FA.jpg'
p914
I34
tp915
g3
s(S'/home/clayton/grive/pics/5wA17C2882-CBD3-D872-556E-45F7E2047628.jpg'
p916
I74
tp917
g6
s(S'/home/clayton/grive/pics/3w9A37A263-9801-0A1A-312E-3334DD7F32AC.jpg'
p918
I66
tp919
g6
s(S'/home/clayton/grive/pics/1wB6218480-F680-6013-04E0-38A57AE3C9A5.jpg'
p920
I65
tp921
g6
s(g269
I49
tp922
g6
s(S'/home/clayton/grive/pics/1wFA3A2A73-D799-1F82-B7C9-6B922E50F6D3.jpg'
p923
I64
tp924
g6
s(S'/home/clayton/grive/pics/4w9DC9791F-43FF-A0F2-136E-27278922DE8B.jpg'
p925
I14
tp926
g3
s(S'/home/clayton/grive/pics/6neutral1.JPG'
p927
I122
tp928
g6
s(S'/home/clayton/grive/pics/4wEFC295BD-AB8D-C93F-1AEF-332E960B6391.jpg'
p929
I27
tp930
g6
s(S'/home/clayton/grive/pics/6w7B52AA0B-3547-4AAC-D109-389D5596BF39.jpg'
p931
I20
tp932
g6
s(S'/home/clayton/grive/pics/5w3D74C8C9-3DC1-0E0C-4327-4CE1A9A76C25.jpg'
p933
I79
tp934
g3
s(S'/home/clayton/grive/pics/4w0C837C12-99DE-6798-DCC0-6B372D9B14DF.jpg'
p935
I78
tp936
g3
s(S'/home/clayton/grive/pics/2wB327C73A-CBE4-4E6F-85BE-37EFF9F68B2E.jpg'
p937
I4
tp938
g17
s(S'/home/clayton/grive/pics/4w3D74C8C9-3DC1-0E0C-4327-4CE1A9A76C25.jpg'
p939
I73
tp940
g6
s(g404
I11
tp941
g17
s(S'/home/clayton/grive/pics/2wF7EB9296-7FE8-1C37-2486-4CDB6B286E59.jpg'
p942
I64
tp943
g6
s(S'/home/clayton/grive/pics/2wEFC295BD-AB8D-C93F-1AEF-332E960B6391.jpg'
p944
I29
tp945
g6
s(S'/home/clayton/grive/pics/1wD61ACB92-52ED-6679-0D80-38A0B91ACF94.jpg'
p946
I64
tp947
g3
s(S'/home/clayton/grive/pics/2w0CC8EC66-FAA1-705C-0776-4AE9EA516A65.jpg'
p948
I43
tp949
g6
s(S'/home/clayton/grive/pics/2Angry.jpg'
p950
I58
tp951
g6
s(S'/home/clayton/grive/pics/0Happy.jpg'
p952
I60
tp953
g6
s(S'/home/clayton/grive/pics/2w1DA4F3B0-46AF-07D5-6E56-2A8D17618C41.jpg'
p954
I59
tp955
g6
s(S'/home/clayton/grive/pics/4Snapshot_20130218_2.JPG'
p956
I56
tp957
g6
s(S'/home/clayton/grive/pics/2wD2C8420A-CA69-4783-1899-278856A49F4B.jpg'
p958
I27
tp959
g3
s(S'/home/clayton/grive/pics/1wCC78F689-E22B-23A4-2B55-3336F8A9B35C.jpg'
p960
I44
tp961
g6
s(S'/home/clayton/grive/pics/0happy8.JPG'
p962
I15
tp963
g6
s(S'/home/clayton/grive/pics/4wB75D3F87-A36C-1CFC-5730-28E28C577A75.jpg'
p964
I68
tp965
g3
s(S'/home/clayton/grive/pics/0w0AAA0AC9-6F8F-E71E-133D-46E81C08DACC.jpg'
p966
I33
tp967
g6
s(S'/home/clayton/grive/pics/0wD2C8420A-CA69-4783-1899-278856A49F4B.jpg'
p968
I28
tp969
g6
s(g471
I5
tp970
g17
s(S'/home/clayton/grive/pics/3w30492B57-425C-19D5-B21A-38A9A06B20F8.jpg'
p971
I35
tp972
g3
s(g167
I50
tp973
g6
s(S'/home/clayton/grive/pics/1w3F606B5D-77FB-F545-EEF4-36CCC8791888.jpg'
p974
I19
tp975
g17
s(S'/home/clayton/grive/pics/6wB7907848-2DA7-2CBC-9171-46E1D7C304D7.jpg'
p976
I37
tp977
g6
s(S'/home/clayton/grive/pics/4w0A63D31C-0B59-BFF2-4F27-46B385316AD7.jpg'
p978
I31
tp979
g6
s(S'/home/clayton/grive/pics/2wCADCAECA-D3E7-342A-07FA-4652ED88FBA9.jpg'
p980
I5
tp981
g17
s(S'/home/clayton/grive/pics/5w11C902A3-3D0A-1956-0538-6B9806AA4F9F.jpg'
p982
I52
tp983
g3
s(S'/home/clayton/grive/pics/1wEFC295BD-AB8D-C93F-1AEF-332E960B6391.jpg'
p984
I25
tp985
g6
s(S'/home/clayton/grive/pics/0wF38C5939-5878-3826-255B-37EF8300E8D1.jpg'
p986
I27
tp987
g6
s(S'/home/clayton/grive/pics/3w24FD90A0-B0EF-2E69-7527-48907DFAB4FA.jpg'
p988
I35
tp989
g17
s(S'/home/clayton/grive/pics/2w11C902A3-3D0A-1956-0538-6B9806AA4F9F.jpg'
p990
I55
tp991
g6
s(S'/home/clayton/grive/pics/0happy9.JPG'
p992
I14
tp993
g6
s(S'/home/clayton/grive/pics/0w45F00E26-EEF8-ADBC-B511-379A0FB86DFF.jpg'
p994
I30
tp995
g6
s(S'/home/clayton/grive/pics/3w45F00E26-EEF8-ADBC-B511-379A0FB86DFF.jpg'
p996
I19
tp997
g6
s(S'/home/clayton/grive/pics/0w9CF2D657-F38A-A867-1844-64AF3A43DEAA.jpg'
p998
I22
tp999
g6
s(g692
I4
tp1000
g6
s(S'/home/clayton/grive/pics/1w0AAA0AC9-6F8F-E71E-133D-46E81C08DACC.jpg'
p1001
I43
tp1002
g3
s(S'/home/clayton/grive/pics/4w422A3E39-00CD-54DC-F42A-332478449BD6.jpg'
p1003
I70
tp1004
g3
s(S'/home/clayton/grive/pics/3wF9A08F82-E468-659D-6E2A-4649DD6662AF.jpg'
p1005
I28
tp1006
g6
s(g795
I6
tp1007
g17
s(S'/home/clayton/grive/pics/0w75B0A7BB-3879-FF92-CC05-37B01FC821E8.jpg'
p1008
I62
tp1009
g6
s(S'/home/clayton/grive/pics/0happy10.JPG'
p1010
I88
tp1011
g6
s(g674
I4
tp1012
g17
s(S'/home/clayton/grive/pics/3w422A3E39-00CD-54DC-F42A-332478449BD6.jpg'
p1013
I71
tp1014
g6
s(g384
I27
tp1015
g6
s(g231
I4
tp1016
g17
s(S'/home/clayton/grive/pics/1KuoSad.jpg'
p1017
I92
tp1018
g6
s(S'/home/clayton/grive/pics/5w2C9F8C42-E900-B747-C962-465A32A9CCE7.jpg'
p1019
I42
tp1020
g3
s(S'/home/clayton/grive/pics/2angry1.jpg'
p1021
I62
tp1022
g6
s(S'/home/clayton/grive/pics/0wB327C73A-CBE4-4E6F-85BE-37EFF9F68B2E.jpg'
p1023
I24
tp1024
g6
s(g167
I5
tp1025
g17
s(S'/home/clayton/grive/pics/2wA186136D-64B7-7288-372F-3843E2F6EAC4.jpg'
p1026
I60
tp1027
g6
s(S'/home/clayton/grive/pics/4w1DA4F3B0-46AF-07D5-6E56-2A8D17618C41.jpg'
p1028
I54
tp1029
g6
s(S'/home/clayton/grive/pics/4w0D1FB1C2-D30A-E25F-2EBB-27E9151B697F.jpg'
p1030
I23
tp1031
g3
s(S'/home/clayton/grive/pics/4w3ED8AF10-C2CD-9852-6CD0-4B1889141529.jpg'
p1032
I11
tp1033
g6
s(S'/home/clayton/grive/pics/5w422A3E39-00CD-54DC-F42A-332478449BD6.jpg'
p1034
I87
tp1035
g6
s(S'/home/clayton/grive/pics/1Sad.jpg (Case Conflict 1)'
p1036
I60
tp1037
g6
s(S'/home/clayton/grive/pics/6wB7455899-8A91-0D14-67FB-3326BB8944DD.jpg'
p1038
I48
tp1039
g6
s(S'/home/clayton/grive/pics/4w2C6C7917-E34A-87BF-D366-2849EADFBD8B.jpg'
p1040
I26
tp1041
g6
s(S'/home/clayton/grive/pics/2w2C9F8C42-E900-B747-C962-465A32A9CCE7.jpg'
p1042
I56
tp1043
g3
s(g237
I7
tp1044
g3
s(g976
I4
tp1045
g17
s(S'/home/clayton/grive/pics/1w45F00E26-EEF8-ADBC-B511-379A0FB86DFF.jpg'
p1046
I27
tp1047
g6
s(g489
I11
tp1048
g6
s(S'/home/clayton/grive/pics/6w7F7338BC-E565-8DED-FB80-46627677A6C7.jpg'
p1049
I86
tp1050
g6
s(S'/home/clayton/grive/pics/3w0AAA0AC9-6F8F-E71E-133D-46E81C08DACC.jpg'
p1051
I42
tp1052
g3
s(S'/home/clayton/grive/pics/6w0D1FB1C2-D30A-E25F-2EBB-27E9151B697F.jpg'
p1053
I26
tp1054
g3
s(S'/home/clayton/grive/pics/2w3F13F903-5652-1111-F8C4-28193F107980.jpg'
p1055
I5
tp1056
g17
s(S'/home/clayton/grive/pics/2w86213EB0-EFE5-91A5-6308-4CE43B9C4ABB.jpg'
p1057
I45
tp1058
g6
s(S'/home/clayton/grive/pics/0w7B52AA0B-3547-4AAC-D109-389D5596BF39.jpg'
p1059
I34
tp1060
g6
s(S'/home/clayton/grive/pics/5w5F3E20F0-CA15-AB7C-C873-3329D70151F2.jpg'
p1061
I67
tp1062
g6
s(S'/home/clayton/grive/pics/1wDF2DC2D6-F1E3-1B71-20E2-467A671A3D60.jpg'
p1063
I26
tp1064
g6
s(S'/home/clayton/grive/pics/2wEBD68548-E683-453C-76FA-387540224631.jpg'
p1065
I4
tp1066
g17
s(S'/home/clayton/grive/pics/4w7F7338BC-E565-8DED-FB80-46627677A6C7.jpg'
p1067
I72
tp1068
g3
s(S'/home/clayton/grive/pics/3wCC78F689-E22B-23A4-2B55-3336F8A9B35C.jpg'
p1069
I31
tp1070
g6
s(S'/home/clayton/grive/pics/4wE91A57C8-8766-64BA-4E1F-33C5F731BCE4.jpg'
p1071
I39
tp1072
g6
s(S'/home/clayton/grive/pics/4w6B887E6C-D9CE-E590-E3F0-6B34BF5BA23A.jpg'
p1073
I20
tp1074
g3
s(S'/home/clayton/grive/pics/0w77EDF533-C254-FD89-6404-4660A2F03302.jpg'
p1075
I44
tp1076
g6
s(S'/home/clayton/grive/pics/2wA78D46C1-F503-3E91-F99D-6B2FA22B3D14.jpg'
p1077
I82
tp1078
g6
s(S'/home/clayton/grive/pics/4w3F606B5D-77FB-F545-EEF4-36CCC8791888.jpg'
p1079
I24
tp1080
g17
s(S'/home/clayton/grive/pics/2wCC78F689-E22B-23A4-2B55-3336F8A9B35C.jpg'
p1081
I55
tp1082
g6
s(S'/home/clayton/grive/pics/3wC8D3294A-B9A8-6A3A-8331-465651FB65F4.jpg'
p1083
I56
tp1084
g6
s(S'/home/clayton/grive/pics/4wEED45041-BE05-1F78-5044-2EF641914EDD.jpg'
p1085
I78
tp1086
g3
s(S'/home/clayton/grive/pics/1w9DC9791F-43FF-A0F2-136E-27278922DE8B.jpg'
p1087
I19
tp1088
g3
s(S'/home/clayton/grive/pics/6w656B02A8-518C-90F3-7234-38211A0CD399.jpg'
p1089
I55
tp1090
g6
s(S'/home/clayton/grive/pics/1w2B02DD01-5BAB-ABA0-2EAF-3833D439A739.jpg'
p1091
I117
tp1092
g6
s(S'/home/clayton/grive/pics/6wB4A6761A-AF53-7278-1AC9-4691D99C2F60.jpg'
p1093
I56
tp1094
g6
s(S'/home/clayton/grive/pics/5w9DC9791F-43FF-A0F2-136E-27278922DE8B.jpg'
p1095
I25
tp1096
g3
s(g218
I24
tp1097
g3
s(S'/home/clayton/grive/pics/6wF6EF8C51-B792-9FCF-687D-3333BA797012.jpg'
p1098
I30
tp1099
g6
s(S'/home/clayton/grive/pics/5wFA3A2A73-D799-1F82-B7C9-6B922E50F6D3.jpg'
p1100
I54
tp1101
g6
s(S'/home/clayton/grive/pics/6wB6218480-F680-6013-04E0-38A57AE3C9A5.jpg'
p1102
I67
tp1103
g6
s(S'/home/clayton/grive/pics/5wBE3974B4-A678-56B4-9610-286BC7FB53FC.jpg'
p1104
I82
tp1105
g6
s(S'/home/clayton/grive/pics/1w9E129634-2C33-C86B-30F7-6B6F8AB2AF22.jpg'
p1106
I40
tp1107
g6
s(S'/home/clayton/grive/pics/3wD6ABCA51-AA30-AB83-36E3-3D933B925793.jpg'
p1108
I5
tp1109
g17
s(S'/home/clayton/grive/pics/5w547FEF42-FCBE-B966-D617-2888E39F4498.jpg'
p1110
I56
tp1111
g6
s(S'/home/clayton/grive/pics/0wC8A7AD15-B749-2EF7-395E-3567AFF409A3.jpg'
p1112
I46
tp1113
g6
s(g577
I5
tp1114
g17
s(S'/home/clayton/grive/pics/1w547FEF42-FCBE-B966-D617-2888E39F4498.jpg'
p1115
I45
tp1116
g6
s(S'/home/clayton/grive/pics/6wA186136D-64B7-7288-372F-3843E2F6EAC4.jpg'
p1117
I58
tp1118
g6
s(g937
I49
tp1119
g6
s(S'/home/clayton/grive/pics/3wB75D3F87-A36C-1CFC-5730-28E28C577A75.jpg'
p1120
I45
tp1121
g6
s(S'/home/clayton/grive/pics/2w9E129634-2C33-C86B-30F7-6B6F8AB2AF22.jpg'
p1122
I81
tp1123
g6
s(S'/home/clayton/grive/pics/4w24FD90A0-B0EF-2E69-7527-48907DFAB4FA.jpg'
p1124
I33
tp1125
g6
s(S'/home/clayton/grive/pics/1wAE00083F-0B9D-4EED-63B7-2757C366CB50.jpg'
p1126
I70
tp1127
g6
s(S'/home/clayton/grive/pics/5wB3B65A5B-6FD6-FB6B-DC2C-3797ABC3D83E.jpg'
p1128
I60
tp1129
g6
s(S'/home/clayton/grive/pics/6w5F3E20F0-CA15-AB7C-C873-3329D70151F2.jpg'
p1130
I55
tp1131
g6
s(S'/home/clayton/grive/pics/2wA8290F86-C077-9F89-F9F7-464D6C6DEA5F.jpg'
p1132
I56
tp1133
g6
s(S'/home/clayton/grive/pics/3w1DA4F3B0-46AF-07D5-6E56-2A8D17618C41.jpg'
p1134
I42
tp1135
g3
s(S'/home/clayton/grive/pics/3w6C9F7832-CE9D-15A0-5DA4-6B8CFF5E8490.jpg'
p1136
I41
tp1137
g6
s(S'/home/clayton/grive/pics/6w6D8B00F1-237C-5070-C5C5-2725674902D4.jpg'
p1138
I75
tp1139
g6
s(S'/home/clayton/grive/pics/3wB7455899-8A91-0D14-67FB-3326BB8944DD.jpg'
p1140
I62
tp1141
g6
s(S'/home/clayton/grive/pics/0w4ACD6E21-0751-DEA6-DB60-2F0500DBF231.jpg'
p1142
I110
tp1143
g6
s(S'/home/clayton/grive/pics/6w99B8ED23-08A7-D462-5293-489B07663B77.jpg'
p1144
I53
tp1145
g6
s(S'/home/clayton/grive/pics/5w01343164-B10C-A805-EF2F-2D0A02E780D0.jpg'
p1146
I87
tp1147
g3
s(g1042
I4
tp1148
g17
s(S'/home/clayton/grive/pics/5w6D37274F-6971-2063-C29B-4671208BF5AE.jpg'
p1149
I7
tp1150
g17
s(S'/home/clayton/grive/pics/0w0A63D31C-0B59-BFF2-4F27-46B385316AD7.jpg'
p1151
I25
tp1152
g6
s(S'/home/clayton/grive/pics/5w75B0A7BB-3879-FF92-CC05-37B01FC821E8.jpg'
p1153
I45
tp1154
g6
s(S'/home/clayton/grive/pics/6w545D8371-906B-59FB-3297-3D9D8D822C99.jpg'
p1155
I50
tp1156
g6
s(S'/home/clayton/grive/pics/3w4ACD6E21-0751-DEA6-DB60-2F0500DBF231.jpg'
p1157
I88
tp1158
g6
s(S'/home/clayton/grive/pics/1w99B8ED23-08A7-D462-5293-489B07663B77.jpg'
p1159
I63
tp1160
g6
s(S'/home/clayton/grive/pics/6w75B0A7BB-3879-FF92-CC05-37B01FC821E8.jpg'
p1161
I50
tp1162
g6
s(g830
I43
tp1163
g3
s(S'/home/clayton/grive/pics/0w70574034-301E-9568-EB56-389E0E002C5E.jpg'
p1164
I52
tp1165
g6
s(g136
I9
tp1166
g17
s(S'/home/clayton/grive/pics/4w42122DD0-1D98-3417-ED3C-3CD7325AEF4E.jpg'
p1167
I43
tp1168
g6
s(g388
I57
tp1169
g6
s(S'/home/clayton/grive/pics/0w1522DE41-3A6C-DEA0-CB4C-46E4E637BE61.jpg'
p1170
I34
tp1171
g6
s(S'/home/clayton/grive/pics/4w01343164-B10C-A805-EF2F-2D0A02E780D0.jpg'
p1172
I84
tp1173
g3
s(g866
I38
tp1174
g6
s(g602
I71
tp1175
g3
s(S'/home/clayton/grive/pics/3wF7EB9296-7FE8-1C37-2486-4CDB6B286E59.jpg'
p1176
I82
tp1177
g6
s(S'/home/clayton/grive/pics/2Angry.jpg (Case Conflict 1)'
p1178
I54
tp1179
g6
s(S'/home/clayton/grive/pics/3wEED45041-BE05-1F78-5044-2EF641914EDD.jpg'
p1180
I53
tp1181
g6
s(S'/home/clayton/grive/pics/2w9D75EFDC-3AE6-E0D7-C7F4-28316CCF01BA.jpg'
p1182
I92
tp1183
g6
s(S'/home/clayton/grive/pics/3KuoSurprised.jpg'
p1184
I95
tp1185
g6
s(S'/home/clayton/grive/pics/4wA78D46C1-F503-3E91-F99D-6B2FA22B3D14.jpg'
p1186
I62
tp1187
g6
s(S'/home/clayton/grive/pics/6w11C902A3-3D0A-1956-0538-6B9806AA4F9F.jpg'
p1188
I60
tp1189
g6
s(g229
I22
tp1190
g6
s(S'/home/clayton/grive/pics/0happy2.JPG'
p1191
I72
tp1192
g6
s(S'/home/clayton/grive/pics/2wD61ACB92-52ED-6679-0D80-38A0B91ACF94.jpg'
p1193
I65
tp1194
g6
s(S'/home/clayton/grive/pics/2wEA81AD9F-C919-7319-BDCE-333C59C6579E.jpg'
p1195
I47
tp1196
g6
s(g24
I9
tp1197
g17
s(S'/home/clayton/grive/pics/1wB327C73A-CBE4-4E6F-85BE-37EFF9F68B2E.jpg'
p1198
I38
tp1199
g3
s(S'/home/clayton/grive/pics/5wCADCAECA-D3E7-342A-07FA-4652ED88FBA9.jpg'
p1200
I4
tp1201
g17
s(S'/home/clayton/grive/pics/2w6C9F7832-CE9D-15A0-5DA4-6B8CFF5E8490.jpg'
p1202
I66
tp1203
g6
s(S'/home/clayton/grive/pics/6DSCN0303.JPG'
p1204
I82
tp1205
g6
s(g20
I24
tp1206
g6
s(S'/home/clayton/grive/pics/4w11C902A3-3D0A-1956-0538-6B9806AA4F9F.jpg'
p1207
I50
tp1208
g3
s(S'/home/clayton/grive/pics/5w3EC88953-2C9A-08EE-D3A5-465D5B7072D4.jpg'
p1209
I97
tp1210
g6
s(S'/home/clayton/grive/pics/1w6C9F7832-CE9D-15A0-5DA4-6B8CFF5E8490.jpg'
p1211
I67
tp1212
g3
s(S'/home/clayton/grive/pics/4w9E129634-2C33-C86B-30F7-6B6F8AB2AF22.jpg'
p1213
I64
tp1214
g3
s(S'/home/clayton/grive/pics/0w4A42FC32-7901-26E1-A91B-33331AA34C92.jpg'
p1215
I43
tp1216
g6
s(S'/home/clayton/grive/pics/4w57166D0D-8403-104C-6BEA-2F07DBC2E389.jpg'
p1217
I14
tp1218
g6
s(S'/home/clayton/grive/pics/5w30492B57-425C-19D5-B21A-38A9A06B20F8.jpg'
p1219
I18
tp1220
g6
s(S'/home/clayton/grive/pics/2wAE00083F-0B9D-4EED-63B7-2757C366CB50.jpg'
p1221
I73
tp1222
g3
s(g340
I23
tp1223
g17
s(g307
I19
tp1224
g17
s(S'/home/clayton/grive/pics/3w1F9D7616-B031-13BA-2CF1-332BB1E15DC2.jpg'
p1225
I42
tp1226
g3
s(S'/home/clayton/grive/pics/4w04AB60B8-053D-0086-A395-4698C6ECDA34.jpg'
p1227
I49
tp1228
g6
s(S'/home/clayton/grive/pics/0w3EC88953-2C9A-08EE-D3A5-465D5B7072D4.jpg'
p1229
I97
tp1230
g6
s(S'/home/clayton/grive/pics/5wF38C5939-5878-3826-255B-37EF8300E8D1.jpg'
p1231
I49
tp1232
g6
s(S'/home/clayton/grive/pics/1w5F3E20F0-CA15-AB7C-C873-3329D70151F2.jpg'
p1233
I37
tp1234
g3
s(S'/home/clayton/grive/pics/3w7E85E5B5-F196-987E-51DD-2EC43C62E76D.jpg'
p1235
I42
tp1236
g6
s(g52
I131
tp1237
g3
s(S'/home/clayton/grive/pics/3w0A63D31C-0B59-BFF2-4F27-46B385316AD7.jpg'
p1238
I25
tp1239
g6
s(S'/home/clayton/grive/pics/4wD9E9B0A8-7D98-A0F3-9A06-37ECA03E6425.jpg'
p1240
I55
tp1241
g6
s(S'/home/clayton/grive/pics/6KuoNeutral.jpg'
p1242
I118
tp1243
g6
s(S'/home/clayton/grive/pics/5w455E62E6-5EAF-9986-F10E-383E9405062F.jpg'
p1244
I68
tp1245
g6
s(S'/home/clayton/grive/pics/1w70574034-301E-9568-EB56-389E0E002C5E.jpg'
p1246
I57
tp1247
g6
s(g686
I79
tp1248
g6
s(g158
I97
tp1249
g6
s(S'/home/clayton/grive/pics/3wBE3974B4-A678-56B4-9610-286BC7FB53FC.jpg'
p1250
I38
tp1251
g6
s(S'/home/clayton/grive/pics/2w62D19778-1AA6-13C2-004F-389AF747333D.jpg'
p1252
I46
tp1253
g6
s(S'/home/clayton/grive/pics/6wEED45041-BE05-1F78-5044-2EF641914EDD.jpg'
p1254
I69
tp1255
g6
s(g622
I6
tp1256
g17
s(S'/home/clayton/grive/pics/1wC8D3294A-B9A8-6A3A-8331-465651FB65F4.jpg'
p1257
I72
tp1258
g6
s(S'/home/clayton/grive/pics/2w7B52AA0B-3547-4AAC-D109-389D5596BF39.jpg'
p1259
I11
tp1260
g6
s(g840
I8
tp1261
g6
s(S'/home/clayton/grive/pics/0wB3B65A5B-6FD6-FB6B-DC2C-3797ABC3D83E.jpg'
p1262
I45
tp1263
g6
s(S'/home/clayton/grive/pics/5wF6EF8C51-B792-9FCF-687D-3333BA797012.jpg'
p1264
I42
tp1265
g17
s(S'/home/clayton/grive/pics/6w809F0A15-03D4-873B-62D0-6B3146FEE7CF.jpg'
p1266
I63
tp1267
g6
s(S'/home/clayton/grive/pics/5wB7907848-2DA7-2CBC-9171-46E1D7C304D7.jpg'
p1268
I34
tp1269
g6
s(S'/home/clayton/grive/pics/6w5D592E12-AEF9-B530-374E-3322B125D1A1.jpg'
p1270
I83
tp1271
g6
s(S'/home/clayton/grive/pics/5w6C9F7832-CE9D-15A0-5DA4-6B8CFF5E8490.jpg'
p1272
I80
tp1273
g3
s(S'/home/clayton/grive/pics/2w422A3E39-00CD-54DC-F42A-332478449BD6.jpg'
p1274
I89
tp1275
g6
s(S'/home/clayton/grive/pics/3KuoGlassesSurprised.jpg'
p1276
I75
tp1277
g6
s(S'/home/clayton/grive/pics/1wAEFC7C09-CD73-3B8E-A369-7AFA0E31AF3D.jpg'
p1278
I28
tp1279
g3
s(S'/home/clayton/grive/pics/2w04AB60B8-053D-0086-A395-4698C6ECDA34.jpg'
p1280
I60
tp1281
g3
s(S'/home/clayton/grive/pics/1w75B0A7BB-3879-FF92-CC05-37B01FC821E8.jpg'
p1282
I38
tp1283
g6
s(g344
I5
tp1284
g17
s(g541
I16
tp1285
g3
s(S'/home/clayton/grive/pics/2w9142C5B8-00C3-B41B-B5F7-7B04092215BC.jpg'
p1286
I24
tp1287
g3
s(S'/home/clayton/grive/pics/0happy6.JPG'
p1288
I116
tp1289
g6
s(S'/home/clayton/grive/pics/6wF9A08F82-E468-659D-6E2A-4649DD6662AF.jpg'
p1290
I18
tp1291
g6
s(S'/home/clayton/grive/pics/6w157643A0-E4FE-5F90-C9B1-465764731874.jpg'
p1292
I30
tp1293
g6
s(g880
I17
tp1294
g17
s(S'/home/clayton/grive/pics/6w98D0D5C2-5A24-77C4-893C-389C780B22BF.jpg'
p1295
I39
tp1296
g6
s(S'/home/clayton/grive/pics/5w6D8B00F1-237C-5070-C5C5-2725674902D4.jpg'
p1297
I85
tp1298
g6
s(S'/home/clayton/grive/pics/5w0CC8EC66-FAA1-705C-0776-4AE9EA516A65.jpg'
p1299
I47
tp1300
g6
s(S'/home/clayton/grive/pics/5w1DA4F3B0-46AF-07D5-6E56-2A8D17618C41.jpg'
p1301
I69
tp1302
g6
s(S'/home/clayton/grive/pics/2w10F317F3-9F1E-F59C-B335-38A8ADEE47AF.jpg'
p1303
I50
tp1304
g6
s(S'/home/clayton/grive/pics/6KuoGlassesNeutral.jpg'
p1305
I77
tp1306
g6
s(S'/home/clayton/grive/pics/2w2B02DD01-5BAB-ABA0-2EAF-3833D439A739.jpg'
p1307
I133
tp1308
g6
s(S'/home/clayton/grive/pics/6w70574034-301E-9568-EB56-389E0E002C5E.jpg'
p1309
I51
tp1310
g6
s(S'/home/clayton/grive/pics/1w9142C5B8-00C3-B41B-B5F7-7B04092215BC.jpg'
p1311
I14
tp1312
g6
s(g317
I4
tp1313
g17
s(S'/home/clayton/grive/pics/4w9D75EFDC-3AE6-E0D7-C7F4-28316CCF01BA.jpg'
p1314
I69
tp1315
g6
s(S'/home/clayton/grive/pics/1w42122DD0-1D98-3417-ED3C-3CD7325AEF4E.jpg'
p1316
I10
tp1317
g17
s(S'/home/clayton/grive/pics/1wF9A08F82-E468-659D-6E2A-4649DD6662AF.jpg'
p1318
I37
tp1319
g3
s(g398
I31
tp1320
g17
s(S'/home/clayton/grive/pics/1DSCN0306.JPG'
p1321
I85
tp1322
g6
s(S'/home/clayton/grive/pics/4w5F3E20F0-CA15-AB7C-C873-3329D70151F2.jpg'
p1323
I58
tp1324
g6
s(S'/home/clayton/grive/pics/6w1522DE41-3A6C-DEA0-CB4C-46E4E637BE61.jpg'
p1325
I39
tp1326
g6
s(S'/home/clayton/grive/pics/6w42122DD0-1D98-3417-ED3C-3CD7325AEF4E.jpg'
p1327
I40
tp1328
g6
s(S'/home/clayton/grive/pics/4wD61ACB92-52ED-6679-0D80-38A0B91ACF94.jpg'
p1329
I68
tp1330
g3
s(S'/home/clayton/grive/pics/5w7B52AA0B-3547-4AAC-D109-389D5596BF39.jpg'
p1331
I21
tp1332
g6
s(g142
I35
tp1333
g6
s(g853
I4
tp1334
g17
s(S'/home/clayton/grive/pics/1w3439D79B-2F14-0A7C-A485-3D9751A5715E.jpg'
p1335
I28
tp1336
g6
s(S'/home/clayton/grive/pics/1w656B02A8-518C-90F3-7234-38211A0CD399.jpg'
p1337
I40
tp1338
g6
s(S'/home/clayton/grive/pics/5wB327C73A-CBE4-4E6F-85BE-37EFF9F68B2E.jpg'
p1339
I17
tp1340
g6
s(S'/home/clayton/grive/pics/4wB7907848-2DA7-2CBC-9171-46E1D7C304D7.jpg'
p1341
I51
tp1342
g6
s(S'/home/clayton/grive/pics/5w12EC627A-1192-EC96-EEC9-489DEAE24E0B.jpg'
p1343
I55
tp1344
g6
s(S'/home/clayton/grive/pics/1w6D8B00F1-237C-5070-C5C5-2725674902D4.jpg'
p1345
I72
tp1346
g3
s(S'/home/clayton/grive/pics/1w6B887E6C-D9CE-E590-E3F0-6B34BF5BA23A.jpg'
p1347
I21
tp1348
g6
s(g878
I51
tp1349
g6
s(S'/home/clayton/grive/pics/3w0C837C12-99DE-6798-DCC0-6B372D9B14DF.jpg'
p1350
I66
tp1351
g6
s(S'/home/clayton/grive/pics/4wFA3A2A73-D799-1F82-B7C9-6B922E50F6D3.jpg'
p1352
I53
tp1353
g3
s(S'/home/clayton/grive/pics/5wC89E1EA6-6B03-0107-19C6-312038C89CA1.jpg'
p1354
I64
tp1355
g3
s(g493
I76
tp1356
g6
s(S'/home/clayton/grive/pics/5w2C6C7917-E34A-87BF-D366-2849EADFBD8B.jpg'
p1357
I27
tp1358
g6
s(S'/home/clayton/grive/pics/2wD5BE1562-F05B-1AA8-6290-37EE9C424B0E.jpg'
p1359
I42
tp1360
g6
s(S'/home/clayton/grive/pics/2w7E85E5B5-F196-987E-51DD-2EC43C62E76D.jpg'
p1361
I63
tp1362
g6
s(S'/home/clayton/grive/pics/3wE91A57C8-8766-64BA-4E1F-33C5F731BCE4.jpg'
p1363
I34
tp1364
g6
s(S'/home/clayton/grive/pics/5wD2C8420A-CA69-4783-1899-278856A49F4B.jpg'
p1365
I39
tp1366
g6
s(S'/home/clayton/grive/pics/0w3F606B5D-77FB-F545-EEF4-36CCC8791888.jpg'
p1367
I16
tp1368
g17
s(g9
I10
tp1369
g17
s(S'/home/clayton/grive/pics/0wD445B589-5883-3783-A84A-29622D8DBC8C.jpg'
p1370
I85
tp1371
g6
s(S'/home/clayton/grive/pics/0w2C9F8C42-E900-B747-C962-465A32A9CCE7.jpg'
p1372
I49
tp1373
g6
s(S'/home/clayton/grive/pics/1w5D592E12-AEF9-B530-374E-3322B125D1A1.jpg'
p1374
I95
tp1375
g3
s(S'/home/clayton/grive/pics/5wB75D3F87-A36C-1CFC-5730-28E28C577A75.jpg'
p1376
I79
tp1377
g6
s(g864
I4
tp1378
g17
s(S'/home/clayton/grive/pics/4w0CC8EC66-FAA1-705C-0776-4AE9EA516A65.jpg'
p1379
I70
tp1380
g6
s(S'/home/clayton/grive/pics/4w2C9F8C42-E900-B747-C962-465A32A9CCE7.jpg'
p1381
I50
tp1382
g3
s(S'/home/clayton/grive/pics/3wAE00083F-0B9D-4EED-63B7-2757C366CB50.jpg'
p1383
I65
tp1384
g6
s(S'/home/clayton/grive/pics/0wB6218480-F680-6013-04E0-38A57AE3C9A5.jpg'
p1385
I81
tp1386
g6
s(S'/home/clayton/grive/pics/1wF7EB9296-7FE8-1C37-2486-4CDB6B286E59.jpg'
p1387
I50
tp1388
g6
s(S'/home/clayton/grive/pics/1wA78D46C1-F503-3E91-F99D-6B2FA22B3D14.jpg'
p1389
I51
tp1390
g6
s(g1200
I17
tp1391
g6
s(S'/home/clayton/grive/pics/0whitney bday jenny seminary grad 140.JPG'
p1392
I122
tp1393
g6
s(S'/home/clayton/grive/pics/0wEE5FC257-9937-1847-8A4C-31E98B5E3AC3.jpg'
p1394
I68
tp1395
g6
s(g321
I14
tp1396
g17
s(S'/home/clayton/grive/pics/1w038FF51B-B514-1E4A-1F79-37ACE961D312.jpg'
p1397
I51
tp1398
g6
s(S'/home/clayton/grive/pics/6wD5BE1562-F05B-1AA8-6290-37EE9C424B0E.jpg'
p1399
I44
tp1400
g6
s(S'/home/clayton/grive/pics/5w9D75EFDC-3AE6-E0D7-C7F4-28316CCF01BA.jpg'
p1401
I82
tp1402
g6
s(S'/home/clayton/grive/pics/5w7F7338BC-E565-8DED-FB80-46627677A6C7.jpg'
p1403
I86
tp1404
g6
s(S'/home/clayton/grive/pics/6w2C9F8C42-E900-B747-C962-465A32A9CCE7.jpg'
p1405
I51
tp1406
g6
s(S'/home/clayton/grive/pics/4w3439D79B-2F14-0A7C-A485-3D9751A5715E.jpg'
p1407
I25
tp1408
g3
s(S'/home/clayton/grive/pics/5wAEFC7C09-CD73-3B8E-A369-7AFA0E31AF3D.jpg'
p1409
I37
tp1410
g3
s(S'/home/clayton/grive/pics/2w0AAA0AC9-6F8F-E71E-133D-46E81C08DACC.jpg'
p1411
I50
tp1412
g6
s(g1112
I9
tp1413
g17
s(S'/home/clayton/grive/pics/2wB6218480-F680-6013-04E0-38A57AE3C9A5.jpg'
p1414
I82
tp1415
g3
s(S'/home/clayton/grive/pics/4w4A42FC32-7901-26E1-A91B-33331AA34C92.jpg'
p1416
I65
tp1417
g3
s(S'/home/clayton/grive/pics/0w0D1FB1C2-D30A-E25F-2EBB-27E9151B697F.jpg'
p1418
I18
tp1419
g3
s(S'/home/clayton/grive/pics/3Surprised.jpg'
p1420
I44
tp1421
g6
s(g227
I5
tp1422
g17
s(S'/home/clayton/grive/pics/6w9FB993B7-8646-7117-CD23-27C2F4C7EC67.jpg'
p1423
I100
tp1424
g6
s(S'/home/clayton/grive/pics/4wB3B65A5B-6FD6-FB6B-DC2C-3797ABC3D83E.jpg'
p1425
I41
tp1426
g6
s(S'/home/clayton/grive/pics/1w10F317F3-9F1E-F59C-B335-38A8ADEE47AF.jpg'
p1427
I55
tp1428
g6
s(S'/home/clayton/grive/pics/0wCFBE9FE8-526E-B206-585D-7A9FA92FD844.jpg'
p1429
I74
tp1430
g6
s(S'/home/clayton/grive/pics/6wD61ACB92-52ED-6679-0D80-38A0B91ACF94.jpg'
p1431
I61
tp1432
g6
s(S'/home/clayton/grive/pics/0wAEFC7C09-CD73-3B8E-A369-7AFA0E31AF3D.jpg'
p1433
I16
tp1434
g6
s(S'/home/clayton/grive/pics/6wA8290F86-C077-9F89-F9F7-464D6C6DEA5F.jpg'
p1435
I44
tp1436
g6
s(g126
I17
tp1437
g17
s(g721
I58
tp1438
g6
s(S'/home/clayton/grive/pics/3w6D8B00F1-237C-5070-C5C5-2725674902D4.jpg'
p1439
I78
tp1440
g6
s(S'/home/clayton/grive/pics/5w77EDF533-C254-FD89-6404-4660A2F03302.jpg'
p1441
I27
tp1442
g3
s(S'/home/clayton/grive/pics/0happy4.JPG'
p1443
I108
tp1444
g6
s(S'/home/clayton/grive/pics/4wA8290F86-C077-9F89-F9F7-464D6C6DEA5F.jpg'
p1445
I46
tp1446
g6
s(g727
I40
tp1447
g6
s(S'/home/clayton/grive/pics/4w3F13F903-5652-1111-F8C4-28193F107980.jpg'
p1448
I4
tp1449
g3
s(S'/home/clayton/grive/pics/4scared_david_bates.jpg'
p1450
I4
tp1451
g3
s(S'/home/clayton/grive/pics/4w6A3CAB4F-95AC-25CB-4CD4-2D0EA445F376.jpg'
p1452
I31
tp1453
g6
s(g1316
I44
tp1454
g6
s(g390
I35
tp1455
g6
s(S'/home/clayton/grive/pics/3Surprised.jpg (Case Conflict 1)'
p1456
I75
tp1457
g6
s(S'/home/clayton/grive/pics/3w038FF51B-B514-1E4A-1F79-37ACE961D312.jpg'
p1458
I50
tp1459
g6
s(g1394
I9
tp1460
g17
s(S'/home/clayton/grive/pics/5wD9E9B0A8-7D98-A0F3-9A06-37ECA03E6425.jpg'
p1461
I61
tp1462
g6
s(S'/home/clayton/grive/pics/2w547FEF42-FCBE-B966-D617-2888E39F4498.jpg'
p1463
I39
tp1464
g6
s(S'/home/clayton/grive/pics/3w86213EB0-EFE5-91A5-6308-4CE43B9C4ABB.jpg'
p1465
I55
tp1466
g6
s(S'/home/clayton/grive/pics/5w3439D79B-2F14-0A7C-A485-3D9751A5715E.jpg'
p1467
I26
tp1468
g3
s(g535
I7
tp1469
g17
s(S'/home/clayton/grive/pics/1w1F9D7616-B031-13BA-2CF1-332BB1E15DC2.jpg'
p1470
I108
tp1471
g3
s(S'/home/clayton/grive/pics/4wC89E1EA6-6B03-0107-19C6-312038C89CA1.jpg'
p1472
I55
tp1473
g6
s(S'/home/clayton/grive/pics/5w10F317F3-9F1E-F59C-B335-38A8ADEE47AF.jpg'
p1474
I51
tp1475
g6
s(S'/home/clayton/grive/pics/1w0CC8EC66-FAA1-705C-0776-4AE9EA516A65.jpg'
p1476
I59
tp1477
g6
s(S'/home/clayton/grive/pics/6w0AAA0AC9-6F8F-E71E-133D-46E81C08DACC.jpg'
p1478
I34
tp1479
g6
s(S'/home/clayton/grive/pics/1w77EDF533-C254-FD89-6404-4660A2F03302.jpg'
p1480
I11
tp1481
g3
s(g832
I7
tp1482
g17
s(S'/home/clayton/grive/pics/2w3ED8AF10-C2CD-9852-6CD0-4B1889141529.jpg'
p1483
I6
tp1484
g17
s(S'/home/clayton/grive/pics/3w11C902A3-3D0A-1956-0538-6B9806AA4F9F.jpg'
p1485
I13
tp1486
g17
s(S'/home/clayton/grive/pics/2wC8D3294A-B9A8-6A3A-8331-465651FB65F4.jpg'
p1487
I109
tp1488
g6
s(S'/home/clayton/grive/pics/2wF9A08F82-E468-659D-6E2A-4649DD6662AF.jpg'
p1489
I43
tp1490
g6
s(S'/home/clayton/grive/pics/3wAEFC7C09-CD73-3B8E-A369-7AFA0E31AF3D.jpg'
p1491
I32
tp1492
g6
s(S'/home/clayton/grive/pics/5w98D0D5C2-5A24-77C4-893C-389C780B22BF.jpg'
p1493
I30
tp1494
g6
s(S'/home/clayton/grive/pics/0wEFC295BD-AB8D-C93F-1AEF-332E960B6391.jpg'
p1495
I36
tp1496
g6
s(g948
I8
tp1497
g17
s(S'/home/clayton/grive/pics/4w809F0A15-03D4-873B-62D0-6B3146FEE7CF.jpg'
p1498
I61
tp1499
g6
s(S'/home/clayton/grive/pics/3w6B887E6C-D9CE-E590-E3F0-6B34BF5BA23A.jpg'
p1500
I13
tp1501
g6
s(S'/home/clayton/grive/pics/1w12EC627A-1192-EC96-EEC9-489DEAE24E0B.jpg'
p1502
I50
tp1503
g6
s(S'/home/clayton/grive/pics/4wB7455899-8A91-0D14-67FB-3326BB8944DD.jpg'
p1504
I37
tp1505
g6
s(S'/home/clayton/grive/pics/0w2C6C7917-E34A-87BF-D366-2849EADFBD8B.jpg'
p1506
I27
tp1507
g6
s(S'/home/clayton/grive/pics/0w9FB993B7-8646-7117-CD23-27C2F4C7EC67.jpg'
p1508
I103
tp1509
g6
s(S'/home/clayton/grive/pics/6w24FD90A0-B0EF-2E69-7527-48907DFAB4FA.jpg'
p1510
I23
tp1511
g6
s(S'/home/clayton/grive/pics/1w4123FC40-659C-BBF1-A29E-29652EC92828.jpg'
p1512
I60
tp1513
g3
s(g1321
I5
tp1514
g17
s(g65
I86
tp1515
g6
s(S'/home/clayton/grive/pics/4w86213EB0-EFE5-91A5-6308-4CE43B9C4ABB.jpg'
p1516
I47
tp1517
g6
s(S'/home/clayton/grive/pics/0wB7455899-8A91-0D14-67FB-3326BB8944DD.jpg'
p1518
I84
tp1519
g6
s(S'/home/clayton/grive/pics/2Snapshot_20130218_4.JPG'
p1520
I64
tp1521
g3
s(S'/home/clayton/grive/pics/4w98D0D5C2-5A24-77C4-893C-389C780B22BF.jpg'
p1522
I26
tp1523
g6
s(S'/home/clayton/grive/pics/3w70574034-301E-9568-EB56-389E0E002C5E.jpg'
p1524
I50
tp1525
g3
s(S'/home/clayton/grive/pics/5w1F9D7616-B031-13BA-2CF1-332BB1E15DC2.jpg'
p1526
I66
tp1527
g6
s(S'/home/clayton/grive/pics/0w11C902A3-3D0A-1956-0538-6B9806AA4F9F.jpg'
p1528
I64
tp1529
g6
s(g608
I5
tp1530
g17
s(S'/home/clayton/grive/pics/2-Angry.JPG'
p1531
I122
tp1532
g6
s(S'/home/clayton/grive/pics/0wC89E1EA6-6B03-0107-19C6-312038C89CA1.jpg'
p1533
I65
tp1534
g6
s(S'/home/clayton/grive/pics/0w99B8ED23-08A7-D462-5293-489B07663B77.jpg'
p1535
I65
tp1536
g6
s(S'/home/clayton/grive/pics/3wCADCAECA-D3E7-342A-07FA-4652ED88FBA9.jpg'
p1537
I10
tp1538
g6
s(S'/home/clayton/grive/pics/1w545D8371-906B-59FB-3297-3D9D8D822C99.jpg'
p1539
I41
tp1540
g6
s(S'/home/clayton/grive/pics/2w9CF2D657-F38A-A867-1844-64AF3A43DEAA.jpg'
p1541
I29
tp1542
g3
s(S'/home/clayton/grive/pics/1wCFBE9FE8-526E-B206-585D-7A9FA92FD844.jpg'
p1543
I45
tp1544
g3
s(S'/home/clayton/grive/pics/6w9DC9791F-43FF-A0F2-136E-27278922DE8B.jpg'
p1545
I17
tp1546
g6
s(S'/home/clayton/grive/pics/1w9FB993B7-8646-7117-CD23-27C2F4C7EC67.jpg'
p1547
I116
tp1548
g6
s(S'/home/clayton/grive/pics/3w6A3CAB4F-95AC-25CB-4CD4-2D0EA445F376.jpg'
p1549
I46
tp1550
g6
s(S'/home/clayton/grive/pics/4w455E62E6-5EAF-9986-F10E-383E9405062F.jpg'
p1551
I59
tp1552
g6
s(S'/home/clayton/grive/pics/2wC89E1EA6-6B03-0107-19C6-312038C89CA1.jpg'
p1553
I67
tp1554
g3
s(S'/home/clayton/grive/pics/0happy3.JPG'
p1555
I36
tp1556
g6
s(S'/home/clayton/grive/pics/6w9A37A263-9801-0A1A-312E-3334DD7F32AC.jpg'
p1557
I49
tp1558
g6
s(g682
I5
tp1559
g17
s(S'/home/clayton/grive/pics/1w809F0A15-03D4-873B-62D0-6B3146FEE7CF.jpg'
p1560
I50
tp1561
g6
s(S'/home/clayton/grive/pics/2wEED45041-BE05-1F78-5044-2EF641914EDD.jpg'
p1562
I91
tp1563
g6
s(S'/home/clayton/grive/pics/2w3D74C8C9-3DC1-0E0C-4327-4CE1A9A76C25.jpg'
p1564
I73
tp1565
g6
s(S'/home/clayton/grive/pics/5wA8290F86-C077-9F89-F9F7-464D6C6DEA5F.jpg'
p1566
I29
tp1567
g6
s(g390
I7
tp1568
g17
s(S'/home/clayton/grive/pics/3wFA3A2A73-D799-1F82-B7C9-6B922E50F6D3.jpg'
p1569
I47
tp1570
g6
s(S'/home/clayton/grive/pics/5w809F0A15-03D4-873B-62D0-6B3146FEE7CF.jpg'
p1571
I70
tp1572
g6
s(g40
I5
tp1573
g17
s(S'/home/clayton/grive/pics/4w8CE97341-98AC-5D5E-73AB-46736817D056.jpg'
p1574
I7
tp1575
g17
s(S'/home/clayton/grive/pics/4wCC78F689-E22B-23A4-2B55-3336F8A9B35C.jpg'
p1576
I39
tp1577
g6
s(S'/home/clayton/grive/pics/6w9E129634-2C33-C86B-30F7-6B6F8AB2AF22.jpg'
p1578
I64
tp1579
g6
s(S'/home/clayton/grive/pics/1wB7455899-8A91-0D14-67FB-3326BB8944DD.jpg'
p1580
I73
tp1581
g6
s(S'/home/clayton/grive/pics/3w99B8ED23-08A7-D462-5293-489B07663B77.jpg'
p1582
I60
tp1583
g6
s(g858
I6
tp1584
g17
s(S'/home/clayton/grive/pics/2wFA3A2A73-D799-1F82-B7C9-6B922E50F6D3.jpg'
p1585
I19
tp1586
g6
s(S'/home/clayton/grive/pics/5wE91A57C8-8766-64BA-4E1F-33C5F731BCE4.jpg'
p1587
I26
tp1588
g6
s(S'/home/clayton/grive/pics/1w01343164-B10C-A805-EF2F-2D0A02E780D0.jpg'
p1589
I81
tp1590
g6
s(S'/home/clayton/grive/pics/0w62D19778-1AA6-13C2-004F-389AF747333D.jpg'
p1591
I20
tp1592
g6
s(S'/home/clayton/grive/pics/5w656B02A8-518C-90F3-7234-38211A0CD399.jpg'
p1593
I21
tp1594
g6
s(g1392
I7
tp1595
g17
s(S'/home/clayton/grive/pics/3w455E62E6-5EAF-9986-F10E-383E9405062F.jpg'
p1596
I53
tp1597
g6
s(S'/home/clayton/grive/pics/0KuoGlassesHappy.jpg'
p1598
I72
tp1599
g6
s(S'/home/clayton/grive/pics/1w1DA4F3B0-46AF-07D5-6E56-2A8D17618C41.jpg'
p1600
I51
tp1601
g6
s(S'/home/clayton/grive/pics/5wEE5FC257-9937-1847-8A4C-31E98B5E3AC3.jpg'
p1602
I21
tp1603
g3
s(S'/home/clayton/grive/pics/4w62D19778-1AA6-13C2-004F-389AF747333D.jpg'
p1604
I34
tp1605
g6
s(S'/home/clayton/grive/pics/6wEA81AD9F-C919-7319-BDCE-333C59C6579E.jpg'
p1606
I31
tp1607
g6
s(S'/home/clayton/grive/pics/6wFF66FA36-78E6-6508-EDF0-3686176BF53D.jpg'
p1608
I17
tp1609
g6
s(S'/home/clayton/grive/pics/6wD2C8420A-CA69-4783-1899-278856A49F4B.jpg'
p1610
I31
tp1611
g6
s(S'/home/clayton/grive/pics/2wBE3974B4-A678-56B4-9610-286BC7FB53FC.jpg'
p1612
I89
tp1613
g6
s(g462
I59
tp1614
g6
s(S'/home/clayton/grive/pics/3w545D8371-906B-59FB-3297-3D9D8D822C99.jpg'
p1615
I7
tp1616
g3
s(S'/home/clayton/grive/pics/4KuoScared.jpg'
p1617
I107
tp1618
g6
s(S'/home/clayton/grive/pics/2wDF2DC2D6-F1E3-1B71-20E2-467A671A3D60.jpg'
p1619
I12
tp1620
g3
s(S'/home/clayton/grive/pics/0w2B02DD01-5BAB-ABA0-2EAF-3833D439A739.jpg'
p1621
I138
tp1622
g6
s(S'/home/clayton/grive/pics/3wA17C2882-CBD3-D872-556E-45F7E2047628.jpg'
p1623
I86
tp1624
g6
s(g1485
I37
tp1625
g6
s(S'/home/clayton/grive/pics/4w545D8371-906B-59FB-3297-3D9D8D822C99.jpg'
p1626
I25
tp1627
g6
s(S'/home/clayton/grive/pics/2wBE6C87EF-3D62-189A-34DB-33F0A359A14F.jpg'
p1628
I9
tp1629
g3
s(S'/home/clayton/grive/pics/0w3ED8AF10-C2CD-9852-6CD0-4B1889141529.jpg'
p1630
I26
tp1631
g6
s(S'/home/clayton/grive/pics/3wBE6C87EF-3D62-189A-34DB-33F0A359A14F.jpg'
p1632
I17
tp1633
g6
s.