(dp0
(S'/home/clayton/grive/pics/3wC8A7AD15-B749-2EF7-395E-3567AFF409A3.jpg'
p1
I45
tp2
S'y'
p3
s(S'/home/clayton/grive/pics/6w3AC58273-1249-F4C2-3A1C-289D10094EB9.jpg'
p4
I107
tp5
g3
s(S'/home/clayton/grive/pics/4w4123FC40-659C-BBF1-A29E-29652EC92828.jpg'
p6
I76
tp7
g3
s(S'/home/clayton/grive/pics/4w9FB993B7-8646-7117-CD23-27C2F4C7EC67.jpg'
p8
I122
tp9
g3
s(S'/home/clayton/grive/pics/3w547FEF42-FCBE-B966-D617-2888E39F4498.jpg'
p10
I34
tp11
g3
s(S'/home/clayton/grive/pics/2w57166D0D-8403-104C-6BEA-2F07DBC2E389.jpg'
p12
I43
tp13
g3
s(S'/home/clayton/grive/pics/0DSCN0309.JPG'
p14
I6
tp15
g3
s(S'/home/clayton/grive/pics/6wEFC295BD-AB8D-C93F-1AEF-332E960B6391.jpg'
p16
I25
tp17
g3
s(S'/home/clayton/grive/pics/1w9D75EFDC-3AE6-E0D7-C7F4-28316CCF01BA.jpg'
p18
I78
tp19
g3
s(S'/home/clayton/grive/pics/4wC8A7AD15-B749-2EF7-395E-3567AFF409A3.jpg'
p20
I44
tp21
g3
s(S'/home/clayton/grive/pics/6wD445B589-5883-3783-A84A-29622D8DBC8C.jpg'
p22
I75
tp23
g3
s(S'/home/clayton/grive/pics/0w7E85E5B5-F196-987E-51DD-2EC43C62E76D.jpg'
p24
I73
tp25
g3
s(S'/home/clayton/grive/pics/6w455E62E6-5EAF-9986-F10E-383E9405062F.jpg'
p26
I59
tp27
g3
s(S'/home/clayton/grive/pics/4wD2C8420A-CA69-4783-1899-278856A49F4B.jpg'
p28
I26
tp29
g3
s(S'/home/clayton/grive/pics/1Snapshot_20130218_5.JPG'
p30
I53
tp31
g3
s(S'/home/clayton/grive/pics/4w5D592E12-AEF9-B530-374E-3322B125D1A1.jpg'
p32
I75
tp33
g3
s(S'/home/clayton/grive/pics/2w70574034-301E-9568-EB56-389E0E002C5E.jpg'
p34
I56
tp35
g3
s(S'/home/clayton/grive/pics/6Neutral.jpg (Case Conflict 1)'
p36
I55
tp37
g3
s(S'/home/clayton/grive/pics/0w656B02A8-518C-90F3-7234-38211A0CD399.jpg'
p38
I39
tp39
g3
s(S'/home/clayton/grive/pics/2KuoGlassesAngry.jpg'
p40
I77
tp41
g3
s(S'/home/clayton/grive/pics/2w9FB993B7-8646-7117-CD23-27C2F4C7EC67.jpg'
p42
I5
tp43
S'n'
p44
s(S'/home/clayton/grive/pics/0wD5BE1562-F05B-1AA8-6290-37EE9C424B0E.jpg'
p45
I20
tp46
g3
s(S'/home/clayton/grive/pics/6w2FF168A3-54B0-C7D9-47C9-37FA318D713D.jpg'
p47
I8
tp48
g3
s(g14
I59
tp49
g3
s(S'/home/clayton/grive/pics/0wB6218480-F680-6013-04E0-38A57AE3C9A5.jpg'
p50
I81
tp51
g3
s(S'/home/clayton/grive/pics/0Snapshot_20130218_1.JPG'
p52
I46
tp53
g3
s(S'/home/clayton/grive/pics/0happy3.JPG'
p54
I36
tp55
g3
s(S'/home/clayton/grive/pics/0Happy.jpg (Case Conflict 2)'
p56
I67
tp57
g3
s(S'/home/clayton/grive/pics/0w455E62E6-5EAF-9986-F10E-383E9405062F.jpg'
p58
I44
tp59
g3
s(S'/home/clayton/grive/pics/1wBE3974B4-A678-56B4-9610-286BC7FB53FC.jpg'
p60
I34
tp61
g3
s(S'/home/clayton/grive/pics/5w4ACD6E21-0751-DEA6-DB60-2F0500DBF231.jpg'
p62
I83
tp63
g3
s(S'/home/clayton/grive/pics/3-Surprised.JPG'
p64
I5
tp65
g44
s(S'/home/clayton/grive/pics/5w62D19778-1AA6-13C2-004F-389AF747333D.jpg'
p66
I33
tp67
g3
s(S'/home/clayton/grive/pics/2wB75D3F87-A36C-1CFC-5730-28E28C577A75.jpg'
p68
I74
tp69
g3
s(S'/home/clayton/grive/pics/5w0D1FB1C2-D30A-E25F-2EBB-27E9151B697F.jpg'
p70
I23
tp71
g3
s(S'/home/clayton/grive/pics/0w2C6C7917-E34A-87BF-D366-2849EADFBD8B.jpg'
p72
I27
tp73
g3
s(S'/home/clayton/grive/pics/2w4A42FC32-7901-26E1-A91B-33331AA34C92.jpg'
p74
I26
tp75
g3
s(S'/home/clayton/grive/pics/1wD2C8420A-CA69-4783-1899-278856A49F4B.jpg'
p76
I29
tp77
g3
s(S'/home/clayton/grive/pics/6w10F317F3-9F1E-F59C-B335-38A8ADEE47AF.jpg'
p78
I62
tp79
g3
s(S'/home/clayton/grive/pics/6w01343164-B10C-A805-EF2F-2D0A02E780D0.jpg'
p80
I92
tp81
g3
s(S'/home/clayton/grive/pics/6w6A3CAB4F-95AC-25CB-4CD4-2D0EA445F376.jpg'
p82
I64
tp83
g3
s(S'/home/clayton/grive/pics/1wF6EF8C51-B792-9FCF-687D-3333BA797012.jpg'
p84
I39
tp85
g3
s(S'/home/clayton/grive/pics/4wD445B589-5883-3783-A84A-29622D8DBC8C.jpg'
p86
I72
tp87
g3
s(S'/home/clayton/grive/pics/0wE953282F-1713-2679-406D-285C8932B012.jpg'
p88
I26
tp89
g3
s(S'/home/clayton/grive/pics/4wF38C5939-5878-3826-255B-37EF8300E8D1.jpg'
p90
I51
tp91
g3
s(S'/home/clayton/grive/pics/0w9A37A263-9801-0A1A-312E-3334DD7F32AC.jpg'
p92
I63
tp93
g3
s(S'/home/clayton/grive/pics/1w422A3E39-00CD-54DC-F42A-332478449BD6.jpg'
p94
I83
tp95
g3
s(S'/home/clayton/grive/pics/0w42122DD0-1D98-3417-ED3C-3CD7325AEF4E.jpg'
p96
I42
tp97
g3
s(S'/home/clayton/grive/pics/5wBE6C87EF-3D62-189A-34DB-33F0A359A14F.jpg'
p98
I15
tp99
g3
s(S'/home/clayton/grive/pics/4wEE5FC257-9937-1847-8A4C-31E98B5E3AC3.jpg'
p100
I47
tp101
g3
s(S'/home/clayton/grive/pics/2w038FF51B-B514-1E4A-1F79-37ACE961D312.jpg'
p102
I56
tp103
g3
s(S'/home/clayton/grive/pics/3wA186136D-64B7-7288-372F-3843E2F6EAC4.jpg'
p104
I41
tp105
g3
s(S'/home/clayton/grive/pics/6wC89E1EA6-6B03-0107-19C6-312038C89CA1.jpg'
p106
I83
tp107
g3
s(S'/home/clayton/grive/pics/0w2FF168A3-54B0-C7D9-47C9-37FA318D713D.jpg'
p108
I11
tp109
g44
s(S'/home/clayton/grive/pics/2Angry.jpg (Case Conflict 2)'
p110
I62
tp111
g3
s(S'/home/clayton/grive/pics/0w5F3E20F0-CA15-AB7C-C873-3329D70151F2.jpg'
p112
I38
tp113
g3
s(S'/home/clayton/grive/pics/5w4A42FC32-7901-26E1-A91B-33331AA34C92.jpg'
p114
I39
tp115
g3
s(S'/home/clayton/grive/pics/0happy11.JPG'
p116
I35
tp117
g3
s(S'/home/clayton/grive/pics/1w57166D0D-8403-104C-6BEA-2F07DBC2E389.jpg'
p118
I35
tp119
g3
s(S'/home/clayton/grive/pics/0-Happy.JPG'
p120
I6
tp121
g44
s(S'/home/clayton/grive/pics/3wB3B65A5B-6FD6-FB6B-DC2C-3797ABC3D83E.jpg'
p122
I43
tp123
g3
s(S'/home/clayton/grive/pics/3w01343164-B10C-A805-EF2F-2D0A02E780D0.jpg'
p124
I55
tp125
g3
s(g1
I11
tp126
g44
s(S'/home/clayton/grive/pics/5wC8A7AD15-B749-2EF7-395E-3567AFF409A3.jpg'
p127
I7
tp128
g44
s(S'/home/clayton/grive/pics/2wD9E9B0A8-7D98-A0F3-9A06-37ECA03E6425.jpg'
p129
I27
tp130
g3
s(S'/home/clayton/grive/pics/6w45F00E26-EEF8-ADBC-B511-379A0FB86DFF.jpg'
p131
I9
tp132
g3
s(S'/home/clayton/grive/pics/5wB6218480-F680-6013-04E0-38A57AE3C9A5.jpg'
p133
I43
tp134
g3
s(S'/home/clayton/grive/pics/1w30492B57-425C-19D5-B21A-38A9A06B20F8.jpg'
p135
I11
tp136
g3
s(S'/home/clayton/grive/pics/4wF6EF8C51-B792-9FCF-687D-3333BA797012.jpg'
p137
I28
tp138
g3
s(S'/home/clayton/grive/pics/1sad_david_bates.jpg'
p139
I4
tp140
g3
s(S'/home/clayton/grive/pics/3w62D19778-1AA6-13C2-004F-389AF747333D.jpg'
p141
I17
tp142
g3
s(S'/home/clayton/grive/pics/3w7B52AA0B-3547-4AAC-D109-389D5596BF39.jpg'
p143
I31
tp144
g3
s(g47
I4
tp145
g44
s(S'/home/clayton/grive/pics/0wA186136D-64B7-7288-372F-3843E2F6EAC4.jpg'
p146
I53
tp147
g3
s(S'/home/clayton/grive/pics/2w2B02DD01-5BAB-ABA0-2EAF-3833D439A739.jpg'
p148
I133
tp149
g3
s(S'/home/clayton/grive/pics/3Surprised.jpg (Case Conflict 2)'
p150
I37
tp151
g3
s(S'/home/clayton/grive/pics/4w45F00E26-EEF8-ADBC-B511-379A0FB86DFF.jpg'
p152
I13
tp153
g3
s(S'/home/clayton/grive/pics/5wC89E1EA6-6B03-0107-19C6-312038C89CA1.jpg'
p154
I64
tp155
g3
s(S'/home/clayton/grive/pics/1wE953282F-1713-2679-406D-285C8932B012.jpg'
p156
I11
tp157
g3
s(S'/home/clayton/grive/pics/1wF38C5939-5878-3826-255B-37EF8300E8D1.jpg'
p158
I26
tp159
g3
s(S'/home/clayton/grive/pics/5wD5BE1562-F05B-1AA8-6290-37EE9C424B0E.jpg'
p160
I53
tp161
g3
s(S'/home/clayton/grive/pics/4w9A37A263-9801-0A1A-312E-3334DD7F32AC.jpg'
p162
I50
tp163
g3
s(S'/home/clayton/grive/pics/3wE953282F-1713-2679-406D-285C8932B012.jpg'
p164
I21
tp165
g3
s(S'/home/clayton/grive/pics/3wD5BE1562-F05B-1AA8-6290-37EE9C424B0E.jpg'
p166
I26
tp167
g3
s(S'/home/clayton/grive/pics/1wAE00083F-0B9D-4EED-63B7-2757C366CB50.jpg'
p168
I70
tp169
g3
s(S'/home/clayton/grive/pics/0wF6EF8C51-B792-9FCF-687D-3333BA797012.jpg'
p170
I54
tp171
g3
s(S'/home/clayton/grive/pics/3DSCN0308.JPG'
p172
I69
tp173
g3
s(S'/home/clayton/grive/pics/4w2FF168A3-54B0-C7D9-47C9-37FA318D713D.jpg'
p174
I8
tp175
g44
s(S'/home/clayton/grive/pics/5wEBD68548-E683-453C-76FA-387540224631.jpg'
p176
I47
tp177
g3
s(S'/home/clayton/grive/pics/1w2C6C7917-E34A-87BF-D366-2849EADFBD8B.jpg'
p178
I35
tp179
g3
s(S'/home/clayton/grive/pics/1wD5BE1562-F05B-1AA8-6290-37EE9C424B0E.jpg'
p180
I24
tp181
g3
s(S'/home/clayton/grive/pics/3wD445B589-5883-3783-A84A-29622D8DBC8C.jpg'
p182
I74
tp183
g3
s(S'/home/clayton/grive/pics/5wE953282F-1713-2679-406D-285C8932B012.jpg'
p184
I18
tp185
g3
s(S'/home/clayton/grive/pics/2Snapshot_20130218_4.JPG'
p186
I64
tp187
g3
s(S'/home/clayton/grive/pics/4w30492B57-425C-19D5-B21A-38A9A06B20F8.jpg'
p188
I38
tp189
g3
s(S'/home/clayton/grive/pics/6wB75D3F87-A36C-1CFC-5730-28E28C577A75.jpg'
p190
I55
tp191
g3
s(S'/home/clayton/grive/pics/0w4123FC40-659C-BBF1-A29E-29652EC92828.jpg'
p192
I15
tp193
g3
s(S'/home/clayton/grive/pics/6wD2C8420A-CA69-4783-1899-278856A49F4B.jpg'
p194
I31
tp195
g3
s(S'/home/clayton/grive/pics/4w2B02DD01-5BAB-ABA0-2EAF-3833D439A739.jpg'
p196
I121
tp197
g3
s(S'/home/clayton/grive/pics/1wEBD68548-E683-453C-76FA-387540224631.jpg'
p198
I5
tp199
g44
s(S'/home/clayton/grive/pics/2wB327C73A-CBE4-4E6F-85BE-37EFF9F68B2E.jpg'
p200
I49
tp201
g3
s(S'/home/clayton/grive/pics/3w3F606B5D-77FB-F545-EEF4-36CCC8791888.jpg'
p202
I35
tp203
g44
s(S'/home/clayton/grive/pics/0wBE3974B4-A678-56B4-9610-286BC7FB53FC.jpg'
p204
I85
tp205
g3
s(S'/home/clayton/grive/pics/6w3F606B5D-77FB-F545-EEF4-36CCC8791888.jpg'
p206
I21
tp207
g44
s(S'/home/clayton/grive/pics/1w7E85E5B5-F196-987E-51DD-2EC43C62E76D.jpg'
p208
I61
tp209
g3
s(S'/home/clayton/grive/pics/5w038FF51B-B514-1E4A-1F79-37ACE961D312.jpg'
p210
I55
tp211
g3
s(S'/home/clayton/grive/pics/2w1DA4F3B0-46AF-07D5-6E56-2A8D17618C41.jpg'
p212
I59
tp213
g3
s(S'/home/clayton/grive/pics/2w45F00E26-EEF8-ADBC-B511-379A0FB86DFF.jpg'
p214
I30
tp215
g3
s(S'/home/clayton/grive/pics/0w1DA4F3B0-46AF-07D5-6E56-2A8D17618C41.jpg'
p216
I34
tp217
g3
s(S'/home/clayton/grive/pics/0wBE6C87EF-3D62-189A-34DB-33F0A359A14F.jpg'
p218
I8
tp219
g44
s(S'/home/clayton/grive/pics/3wD9E9B0A8-7D98-A0F3-9A06-37ECA03E6425.jpg'
p220
I43
tp221
g3
s(S'/home/clayton/grive/pics/3Surprised.jpg (Case Conflict 1)'
p222
I75
tp223
g3
s(S'/home/clayton/grive/pics/4wA186136D-64B7-7288-372F-3843E2F6EAC4.jpg'
p224
I60
tp225
g3
s(S'/home/clayton/grive/pics/3wEA81AD9F-C919-7319-BDCE-333C59C6579E.jpg'
p226
I29
tp227
g3
s(S'/home/clayton/grive/pics/6wEE5FC257-9937-1847-8A4C-31E98B5E3AC3.jpg'
p228
I37
tp229
g3
s(S'/home/clayton/grive/pics/2DSCN0310.JPG'
p230
I92
tp231
g3
s(S'/home/clayton/grive/pics/0w0D1FB1C2-D30A-E25F-2EBB-27E9151B697F.jpg'
p232
I18
tp233
g3
s(g100
I14
tp234
g44
s(S'/home/clayton/grive/pics/0w6D8B00F1-237C-5070-C5C5-2725674902D4.jpg'
p235
I68
tp236
g3
s(S'/home/clayton/grive/pics/3wEFC295BD-AB8D-C93F-1AEF-332E960B6391.jpg'
p237
I23
tp238
g3
s(S'/home/clayton/grive/pics/6wF38C5939-5878-3826-255B-37EF8300E8D1.jpg'
p239
I47
tp240
g3
s(S'/home/clayton/grive/pics/5w4123FC40-659C-BBF1-A29E-29652EC92828.jpg'
p241
I55
tp242
g3
s(S'/home/clayton/grive/pics/4w038FF51B-B514-1E4A-1F79-37ACE961D312.jpg'
p243
I39
tp244
g3
s(S'/home/clayton/grive/pics/5w3F13F903-5652-1111-F8C4-28193F107980.jpg'
p245
I4
tp246
g44
s(S'/home/clayton/grive/pics/5wEFC295BD-AB8D-C93F-1AEF-332E960B6391.jpg'
p247
I24
tp248
g3
s(S'/home/clayton/grive/pics/2w30492B57-425C-19D5-B21A-38A9A06B20F8.jpg'
p249
I29
tp250
g3
s(g129
I4
tp251
g44
s(S'/home/clayton/grive/pics/1wD9E9B0A8-7D98-A0F3-9A06-37ECA03E6425.jpg'
p252
I52
tp253
g3
s(S'/home/clayton/grive/pics/2w75B0A7BB-3879-FF92-CC05-37B01FC821E8.jpg'
p254
I43
tp255
g3
s(S'/home/clayton/grive/pics/5wB7455899-8A91-0D14-67FB-3326BB8944DD.jpg'
p256
I17
tp257
g3
s(S'/home/clayton/grive/pics/3Snapshot_20130218_3.JPG'
p258
I42
tp259
g3
s(S'/home/clayton/grive/pics/4wFF66FA36-78E6-6508-EDF0-3686176BF53D.jpg'
p260
I11
tp261
g3
s(S'/home/clayton/grive/pics/5w9FB993B7-8646-7117-CD23-27C2F4C7EC67.jpg'
p262
I117
tp263
g3
s(S'/home/clayton/grive/pics/6w7E85E5B5-F196-987E-51DD-2EC43C62E76D.jpg'
p264
I73
tp265
g3
s(S'/home/clayton/grive/pics/2wE91A57C8-8766-64BA-4E1F-33C5F731BCE4.jpg'
p266
I37
tp267
g3
s(S'/home/clayton/grive/pics/6w9D75EFDC-3AE6-E0D7-C7F4-28316CCF01BA.jpg'
p268
I109
tp269
g3
s(S'/home/clayton/grive/pics/6wC8A7AD15-B749-2EF7-395E-3567AFF409A3.jpg'
p270
I8
tp271
g44
s(S'/home/clayton/grive/pics/4wB6218480-F680-6013-04E0-38A57AE3C9A5.jpg'
p272
I58
tp273
g3
s(S'/home/clayton/grive/pics/4w7E85E5B5-F196-987E-51DD-2EC43C62E76D.jpg'
p274
I59
tp275
g3
s(S'/home/clayton/grive/pics/5w75B0A7BB-3879-FF92-CC05-37B01FC821E8.jpg'
p276
I45
tp277
g3
s(S'/home/clayton/grive/pics/3w98D0D5C2-5A24-77C4-893C-389C780B22BF.jpg'
p278
I8
tp279
g3
s(S'/home/clayton/grive/pics/2wD445B589-5883-3783-A84A-29622D8DBC8C.jpg'
p280
I78
tp281
g3
s(S'/home/clayton/grive/pics/2w42122DD0-1D98-3417-ED3C-3CD7325AEF4E.jpg'
p282
I50
tp283
g3
s(S'/home/clayton/grive/pics/3w9FB993B7-8646-7117-CD23-27C2F4C7EC67.jpg'
p284
I105
tp285
g3
s(S'/home/clayton/grive/pics/4KuoGlassesScared.jpg'
p286
I90
tp287
g3
s(S'/home/clayton/grive/pics/4wAE00083F-0B9D-4EED-63B7-2757C366CB50.jpg'
p288
I66
tp289
g3
s(S'/home/clayton/grive/pics/6wD9E9B0A8-7D98-A0F3-9A06-37ECA03E6425.jpg'
p290
I45
tp291
g3
s(S'/home/clayton/grive/pics/0w5D592E12-AEF9-B530-374E-3322B125D1A1.jpg'
p292
I65
tp293
g3
s(S'/home/clayton/grive/pics/6w2B02DD01-5BAB-ABA0-2EAF-3833D439A739.jpg'
p294
I129
tp295
g3
s(S'/home/clayton/grive/pics/5wEED45041-BE05-1F78-5044-2EF641914EDD.jpg'
p296
I86
tp297
g3
s(S'/home/clayton/grive/pics/6w1F9D7616-B031-13BA-2CF1-332BB1E15DC2.jpg'
p298
I54
tp299
g3
s(S'/home/clayton/grive/pics/6neutral1.JPG'
p300
I122
tp301
g3
s(S'/home/clayton/grive/pics/4scared54.jpg'
p302
I48
tp303
g3
s(S'/home/clayton/grive/pics/2wC8A7AD15-B749-2EF7-395E-3567AFF409A3.jpg'
p304
I4
tp305
g44
s(S'/home/clayton/grive/pics/3wB327C73A-CBE4-4E6F-85BE-37EFF9F68B2E.jpg'
p306
I30
tp307
g3
s(S'/home/clayton/grive/pics/3w4A42FC32-7901-26E1-A91B-33331AA34C92.jpg'
p308
I41
tp309
g3
s(S'/home/clayton/grive/pics/1wFF66FA36-78E6-6508-EDF0-3686176BF53D.jpg'
p310
I18
tp311
g3
s(S'/home/clayton/grive/pics/0w6A3CAB4F-95AC-25CB-4CD4-2D0EA445F376.jpg'
p312
I71
tp313
g3
s(S'/home/clayton/grive/pics/0w038FF51B-B514-1E4A-1F79-37ACE961D312.jpg'
p314
I50
tp315
g3
s(g78
I4
tp316
g44
s(g70
I7
tp317
g44
s(S'/home/clayton/grive/pics/6wBE6C87EF-3D62-189A-34DB-33F0A359A14F.jpg'
p318
I10
tp319
g3
s(S'/home/clayton/grive/pics/1Sad.jpg'
p320
I57
tp321
g3
s(S'/home/clayton/grive/pics/2wEBD68548-E683-453C-76FA-387540224631.jpg'
p322
I4
tp323
g44
s(g304
I48
tp324
g3
s(S'/home/clayton/grive/pics/5w2B02DD01-5BAB-ABA0-2EAF-3833D439A739.jpg'
p325
I118
tp326
g3
s(S'/home/clayton/grive/pics/2w5D592E12-AEF9-B530-374E-3322B125D1A1.jpg'
p327
I84
tp328
g3
s(g56
I5
tp329
g44
s(S'/home/clayton/grive/pics/1w4A42FC32-7901-26E1-A91B-33331AA34C92.jpg'
p330
I13
tp331
g3
s(S'/home/clayton/grive/pics/0w547FEF42-FCBE-B966-D617-2888E39F4498.jpg'
p332
I42
tp333
g3
s(S'/home/clayton/grive/pics/1-Sad.JPG'
p334
I110
tp335
g3
s(S'/home/clayton/grive/pics/5wF6EF8C51-B792-9FCF-687D-3333BA797012.jpg'
p336
I42
tp337
g44
s(S'/home/clayton/grive/pics/2w2FF168A3-54B0-C7D9-47C9-37FA318D713D.jpg'
p338
I4
tp339
g44
s(g64
I8
tp340
g44
s(S'/home/clayton/grive/pics/6-Neutral.JPG'
p341
I6
tp342
g44
s(S'/home/clayton/grive/pics/4wD5BE1562-F05B-1AA8-6290-37EE9C424B0E.jpg'
p343
I17
tp344
g3
s(S'/home/clayton/grive/pics/6KuoNeutral.jpg'
p345
I118
tp346
g3
s(S'/home/clayton/grive/pics/6w4A42FC32-7901-26E1-A91B-33331AA34C92.jpg'
p347
I37
tp348
g3
s(S'/home/clayton/grive/pics/3wFF66FA36-78E6-6508-EDF0-3686176BF53D.jpg'
p349
I15
tp350
g3
s(S'/home/clayton/grive/pics/4w42122DD0-1D98-3417-ED3C-3CD7325AEF4E.jpg'
p351
I43
tp352
g3
s(S'/home/clayton/grive/pics/1wC89E1EA6-6B03-0107-19C6-312038C89CA1.jpg'
p353
I67
tp354
g3
s(S'/home/clayton/grive/pics/2w2C6C7917-E34A-87BF-D366-2849EADFBD8B.jpg'
p355
I22
tp356
g3
s(S'/home/clayton/grive/pics/1wB3B65A5B-6FD6-FB6B-DC2C-3797ABC3D83E.jpg'
p357
I41
tp358
g3
s(S'/home/clayton/grive/pics/3w5D592E12-AEF9-B530-374E-3322B125D1A1.jpg'
p359
I93
tp360
g3
s(S'/home/clayton/grive/pics/2w6D8B00F1-237C-5070-C5C5-2725674902D4.jpg'
p361
I67
tp362
g3
s(S'/home/clayton/grive/pics/2w01343164-B10C-A805-EF2F-2D0A02E780D0.jpg'
p363
I106
tp364
g3
s(S'/home/clayton/grive/pics/6w2C6C7917-E34A-87BF-D366-2849EADFBD8B.jpg'
p365
I30
tp366
g3
s(g108
I17
tp367
g3
s(S'/home/clayton/grive/pics/3w656B02A8-518C-90F3-7234-38211A0CD399.jpg'
p368
I46
tp369
g3
s(S'/home/clayton/grive/pics/1wEA81AD9F-C919-7319-BDCE-333C59C6579E.jpg'
p370
I28
tp371
g3
s(S'/home/clayton/grive/pics/0happy7.JPG'
p372
I131
tp373
g3
s(S'/home/clayton/grive/pics/5w1F9D7616-B031-13BA-2CF1-332BB1E15DC2.jpg'
p374
I66
tp375
g3
s(S'/home/clayton/grive/pics/0KuoHappy.jpg'
p376
I99
tp377
g3
s(S'/home/clayton/grive/pics/6wAE00083F-0B9D-4EED-63B7-2757C366CB50.jpg'
p378
I64
tp379
g3
s(S'/home/clayton/grive/pics/2KuoAngry.jpg'
p380
I127
tp381
g3
s(S'/home/clayton/grive/pics/4w01343164-B10C-A805-EF2F-2D0A02E780D0.jpg'
p382
I84
tp383
g3
s(S'/home/clayton/grive/pics/3w57166D0D-8403-104C-6BEA-2F07DBC2E389.jpg'
p384
I34
tp385
g3
s(S'/home/clayton/grive/pics/6w422A3E39-00CD-54DC-F42A-332478449BD6.jpg'
p386
I81
tp387
g3
s(g4
I14
tp388
g44
s(g64
I106
tp389
g3
s(S'/home/clayton/grive/pics/1wA186136D-64B7-7288-372F-3843E2F6EAC4.jpg'
p390
I58
tp391
g3
s(S'/home/clayton/grive/pics/1w7B52AA0B-3547-4AAC-D109-389D5596BF39.jpg'
p392
I20
tp393
g3
s(g176
I4
tp394
g44
s(S'/home/clayton/grive/pics/0w3AC58273-1249-F4C2-3A1C-289D10094EB9.jpg'
p395
I18
tp396
g44
s(S'/home/clayton/grive/pics/5w3F606B5D-77FB-F545-EEF4-36CCC8791888.jpg'
p397
I15
tp398
g3
s(S'/home/clayton/grive/pics/3wD61ACB92-52ED-6679-0D80-38A0B91ACF94.jpg'
p399
I41
tp400
g3
s(S'/home/clayton/grive/pics/5w7E85E5B5-F196-987E-51DD-2EC43C62E76D.jpg'
p401
I72
tp402
g3
s(S'/home/clayton/grive/pics/6w038FF51B-B514-1E4A-1F79-37ACE961D312.jpg'
p403
I45
tp404
g3
s(g341
I103
tp405
g3
s(S'/home/clayton/grive/pics/5w70574034-301E-9568-EB56-389E0E002C5E.jpg'
p406
I45
tp407
g3
s(S'/home/clayton/grive/pics/5w57166D0D-8403-104C-6BEA-2F07DBC2E389.jpg'
p408
I41
tp409
g3
s(S'/home/clayton/grive/pics/4-Scared.JPG'
p410
I8
tp411
g44
s(S'/home/clayton/grive/pics/4w656B02A8-518C-90F3-7234-38211A0CD399.jpg'
p412
I40
tp413
g44
s(S'/home/clayton/grive/pics/3w2FF168A3-54B0-C7D9-47C9-37FA318D713D.jpg'
p414
I4
tp415
g3
s(S'/home/clayton/grive/pics/4scared.jpg'
p416
I64
tp417
g3
s(S'/home/clayton/grive/pics/2w3F606B5D-77FB-F545-EEF4-36CCC8791888.jpg'
p418
I6
tp419
g44
s(S'/home/clayton/grive/pics/3w0D1FB1C2-D30A-E25F-2EBB-27E9151B697F.jpg'
p420
I20
tp421
g3
s(S'/home/clayton/grive/pics/5w45F00E26-EEF8-ADBC-B511-379A0FB86DFF.jpg'
p422
I13
tp423
g3
s(S'/home/clayton/grive/pics/5wB327C73A-CBE4-4E6F-85BE-37EFF9F68B2E.jpg'
p424
I17
tp425
g3
s(S'/home/clayton/grive/pics/2w5F3E20F0-CA15-AB7C-C873-3329D70151F2.jpg'
p426
I36
tp427
g3
s(S'/home/clayton/grive/pics/5w6A3CAB4F-95AC-25CB-4CD4-2D0EA445F376.jpg'
p428
I48
tp429
g3
s(S'/home/clayton/grive/pics/2wFF66FA36-78E6-6508-EDF0-3686176BF53D.jpg'
p430
I20
tp431
g3
s(S'/home/clayton/grive/pics/0happy5.JPG'
p432
I98
tp433
g3
s(S'/home/clayton/grive/pics/1wC8A7AD15-B749-2EF7-395E-3567AFF409A3.jpg'
p434
I13
tp435
g44
s(S'/home/clayton/grive/pics/1KuoGlassesSad.jpg'
p436
I60
tp437
g3
s(S'/home/clayton/grive/pics/4w4ACD6E21-0751-DEA6-DB60-2F0500DBF231.jpg'
p438
I111
tp439
g3
s(S'/home/clayton/grive/pics/0w1F9D7616-B031-13BA-2CF1-332BB1E15DC2.jpg'
p440
I94
tp441
g3
s(S'/home/clayton/grive/pics/2w656B02A8-518C-90F3-7234-38211A0CD399.jpg'
p442
I6
tp443
g44
s(S'/home/clayton/grive/pics/6wEBD68548-E683-453C-76FA-387540224631.jpg'
p444
I47
tp445
g3
s(S'/home/clayton/grive/pics/4wBE6C87EF-3D62-189A-34DB-33F0A359A14F.jpg'
p446
I23
tp447
g3
s(g442
I4
tp448
g44
s(S'/home/clayton/grive/pics/2w4ACD6E21-0751-DEA6-DB60-2F0500DBF231.jpg'
p449
I99
tp450
g3
s(S'/home/clayton/grive/pics/2w3AC58273-1249-F4C2-3A1C-289D10094EB9.jpg'
p451
I102
tp452
g3
s(S'/home/clayton/grive/pics/2w4123FC40-659C-BBF1-A29E-29652EC92828.jpg'
p453
I18
tp454
g3
s(S'/home/clayton/grive/pics/2wF38C5939-5878-3826-255B-37EF8300E8D1.jpg'
p455
I45
tp456
g3
s(S'/home/clayton/grive/pics/1wE91A57C8-8766-64BA-4E1F-33C5F731BCE4.jpg'
p457
I28
tp458
g3
s(S'/home/clayton/grive/pics/3w5F3E20F0-CA15-AB7C-C873-3329D70151F2.jpg'
p459
I28
tp460
g3
s(S'/home/clayton/grive/pics/4wEBD68548-E683-453C-76FA-387540224631.jpg'
p461
I31
tp462
g3
s(S'/home/clayton/grive/pics/1w9A37A263-9801-0A1A-312E-3334DD7F32AC.jpg'
p463
I40
tp464
g3
s(S'/home/clayton/grive/pics/4wEA81AD9F-C919-7319-BDCE-333C59C6579E.jpg'
p465
I24
tp466
g3
s(S'/home/clayton/grive/pics/2wEE5FC257-9937-1847-8A4C-31E98B5E3AC3.jpg'
p467
I5
tp468
g44
s(S'/home/clayton/grive/pics/1w455E62E6-5EAF-9986-F10E-383E9405062F.jpg'
p469
I54
tp470
g3
s(S'/home/clayton/grive/pics/0wCC78F689-E22B-23A4-2B55-3336F8A9B35C.jpg'
p471
I53
tp472
g3
s(S'/home/clayton/grive/pics/0w422A3E39-00CD-54DC-F42A-332478449BD6.jpg'
p473
I102
tp474
g3
s(S'/home/clayton/grive/pics/3wB6218480-F680-6013-04E0-38A57AE3C9A5.jpg'
p475
I43
tp476
g3
s(S'/home/clayton/grive/pics/0w9D75EFDC-3AE6-E0D7-C7F4-28316CCF01BA.jpg'
p477
I114
tp478
g3
s(S'/home/clayton/grive/pics/3w3AC58273-1249-F4C2-3A1C-289D10094EB9.jpg'
p479
I88
tp480
g3
s(g395
I135
tp481
g3
s(S'/home/clayton/grive/pics/6DSCN0303.JPG'
p482
I82
tp483
g3
s(S'/home/clayton/grive/pics/6wE953282F-1713-2679-406D-285C8932B012.jpg'
p484
I23
tp485
g3
s(S'/home/clayton/grive/pics/4w547FEF42-FCBE-B966-D617-2888E39F4498.jpg'
p486
I44
tp487
g3
s(S'/home/clayton/grive/pics/2w455E62E6-5EAF-9986-F10E-383E9405062F.jpg'
p488
I73
tp489
g3
s(S'/home/clayton/grive/pics/0wF38C5939-5878-3826-255B-37EF8300E8D1.jpg'
p490
I27
tp491
g3
s(S'/home/clayton/grive/pics/0wEBD68548-E683-453C-76FA-387540224631.jpg'
p492
I33
tp493
g3
s(S'/home/clayton/grive/pics/4w75B0A7BB-3879-FF92-CC05-37B01FC821E8.jpg'
p494
I31
tp495
g3
s(S'/home/clayton/grive/pics/5w422A3E39-00CD-54DC-F42A-332478449BD6.jpg'
p496
I87
tp497
g3
s(g467
I26
tp498
g3
s(S'/home/clayton/grive/pics/2wB7455899-8A91-0D14-67FB-3326BB8944DD.jpg'
p499
I72
tp500
g3
s(S'/home/clayton/grive/pics/0wEED45041-BE05-1F78-5044-2EF641914EDD.jpg'
p501
I85
tp502
g3
s(S'/home/clayton/grive/pics/5w3AC58273-1249-F4C2-3A1C-289D10094EB9.jpg'
p503
I8
tp504
g44
s(S'/home/clayton/grive/pics/0KuoHappy2.jpg'
p505
I112
tp506
g3
s(S'/home/clayton/grive/pics/4w70574034-301E-9568-EB56-389E0E002C5E.jpg'
p507
I36
tp508
g3
s(S'/home/clayton/grive/pics/0wB75D3F87-A36C-1CFC-5730-28E28C577A75.jpg'
p509
I74
tp510
g3
s(g503
I110
tp511
g3
s(S'/home/clayton/grive/pics/3w42122DD0-1D98-3417-ED3C-3CD7325AEF4E.jpg'
p512
I35
tp513
g3
s(S'/home/clayton/grive/pics/3wF38C5939-5878-3826-255B-37EF8300E8D1.jpg'
p514
I30
tp515
g3
s(S'/home/clayton/grive/pics/2w9A37A263-9801-0A1A-312E-3334DD7F32AC.jpg'
p516
I36
tp517
g3
s(S'/home/clayton/grive/pics/6w57166D0D-8403-104C-6BEA-2F07DBC2E389.jpg'
p518
I10
tp519
g44
s(S'/home/clayton/grive/pics/0wAE00083F-0B9D-4EED-63B7-2757C366CB50.jpg'
p520
I69
tp521
g3
s(S'/home/clayton/grive/pics/5w30492B57-425C-19D5-B21A-38A9A06B20F8.jpg'
p522
I18
tp523
g3
s(g220
I6
tp524
g44
s(S'/home/clayton/grive/pics/5w2FF168A3-54B0-C7D9-47C9-37FA318D713D.jpg'
p525
I20
tp526
g3
s(S'/home/clayton/grive/pics/6Neutral.jpg'
p527
I78
tp528
g3
s(S'/home/clayton/grive/pics/1w6A3CAB4F-95AC-25CB-4CD4-2D0EA445F376.jpg'
p529
I54
tp530
g3
s(S'/home/clayton/grive/pics/2w6A3CAB4F-95AC-25CB-4CD4-2D0EA445F376.jpg'
p531
I47
tp532
g3
s(S'/home/clayton/grive/pics/3wC89E1EA6-6B03-0107-19C6-312038C89CA1.jpg'
p533
I52
tp534
g3
s(S'/home/clayton/grive/pics/0KuoGlassesHappy.jpg'
p535
I72
tp536
g3
s(S'/home/clayton/grive/pics/6w3F13F903-5652-1111-F8C4-28193F107980.jpg'
p537
I9
tp538
g44
s(S'/home/clayton/grive/pics/2wD5BE1562-F05B-1AA8-6290-37EE9C424B0E.jpg'
p539
I42
tp540
g3
s(S'/home/clayton/grive/pics/2wB3B65A5B-6FD6-FB6B-DC2C-3797ABC3D83E.jpg'
p541
I58
tp542
g3
s(g453
I52
tp543
g3
s(S'/home/clayton/grive/pics/0wD2C8420A-CA69-4783-1899-278856A49F4B.jpg'
p544
I28
tp545
g3
s(S'/home/clayton/grive/pics/5wAE00083F-0B9D-4EED-63B7-2757C366CB50.jpg'
p546
I70
tp547
g3
s(S'/home/clayton/grive/pics/1w0D1FB1C2-D30A-E25F-2EBB-27E9151B697F.jpg'
p548
I15
tp549
g3
s(S'/home/clayton/grive/pics/6wB3B65A5B-6FD6-FB6B-DC2C-3797ABC3D83E.jpg'
p550
I35
tp551
g3
s(S'/home/clayton/grive/pics/2w547FEF42-FCBE-B966-D617-2888E39F4498.jpg'
p552
I39
tp553
g3
s(S'/home/clayton/grive/pics/6wE91A57C8-8766-64BA-4E1F-33C5F731BCE4.jpg'
p554
I44
tp555
g3
s(S'/home/clayton/grive/pics/6w4ACD6E21-0751-DEA6-DB60-2F0500DBF231.jpg'
p556
I118
tp557
g3
s(S'/home/clayton/grive/pics/5wA186136D-64B7-7288-372F-3843E2F6EAC4.jpg'
p558
I64
tp559
g3
s(S'/home/clayton/grive/pics/2w9DC9791F-43FF-A0F2-136E-27278922DE8B.jpg'
p560
I18
tp561
g3
s(S'/home/clayton/grive/pics/3wF6EF8C51-B792-9FCF-687D-3333BA797012.jpg'
p562
I33
tp563
g3
s(S'/home/clayton/grive/pics/1w2FF168A3-54B0-C7D9-47C9-37FA318D713D.jpg'
p564
I7
tp565
g3
s(S'/home/clayton/grive/pics/2-Angry.JPG'
p566
I122
tp567
g3
s(S'/home/clayton/grive/pics/0wEFC295BD-AB8D-C93F-1AEF-332E960B6391.jpg'
p568
I36
tp569
g3
s(S'/home/clayton/grive/pics/1w62D19778-1AA6-13C2-004F-389AF747333D.jpg'
p570
I25
tp571
g3
s(S'/home/clayton/grive/pics/1w3AC58273-1249-F4C2-3A1C-289D10094EB9.jpg'
p572
I109
tp573
g3
s(S'/home/clayton/grive/pics/0happy1.JPG'
p574
I90
tp575
g3
s(S'/home/clayton/grive/pics/6wBE3974B4-A678-56B4-9610-286BC7FB53FC.jpg'
p576
I80
tp577
g3
s(S'/home/clayton/grive/pics/6neutral2.jpg'
p578
I17
tp579
g44
s(S'/home/clayton/grive/pics/0wE91A57C8-8766-64BA-4E1F-33C5F731BCE4.jpg'
p580
I36
tp581
g3
s(S'/home/clayton/grive/pics/4wE953282F-1713-2679-406D-285C8932B012.jpg'
p582
I11
tp583
g3
s(S'/home/clayton/grive/pics/5wD445B589-5883-3783-A84A-29622D8DBC8C.jpg'
p584
I95
tp585
g3
s(g1
I4
tp586
g44
s(S'/home/clayton/grive/pics/4w0D1FB1C2-D30A-E25F-2EBB-27E9151B697F.jpg'
p587
I23
tp588
g3
s(S'/home/clayton/grive/pics/1wBE6C87EF-3D62-189A-34DB-33F0A359A14F.jpg'
p589
I19
tp590
g3
s(S'/home/clayton/grive/pics/0wD9E9B0A8-7D98-A0F3-9A06-37ECA03E6425.jpg'
p591
I34
tp592
g3
s(S'/home/clayton/grive/pics/5w42122DD0-1D98-3417-ED3C-3CD7325AEF4E.jpg'
p593
I46
tp594
g3
s(S'/home/clayton/grive/pics/4w10F317F3-9F1E-F59C-B335-38A8ADEE47AF.jpg'
p595
I38
tp596
g3
s(S'/home/clayton/grive/pics/2w98D0D5C2-5A24-77C4-893C-389C780B22BF.jpg'
p597
I39
tp598
g3
s(S'/home/clayton/grive/pics/3w2C6C7917-E34A-87BF-D366-2849EADFBD8B.jpg'
p599
I11
tp600
g3
s(S'/home/clayton/grive/pics/6w0D1FB1C2-D30A-E25F-2EBB-27E9151B697F.jpg'
p601
I26
tp602
g3
s(S'/home/clayton/grive/pics/4w1F9D7616-B031-13BA-2CF1-332BB1E15DC2.jpg'
p603
I39
tp604
g3
s(S'/home/clayton/grive/pics/5w9A37A263-9801-0A1A-312E-3334DD7F32AC.jpg'
p605
I57
tp606
g3
s(S'/home/clayton/grive/pics/4wB327C73A-CBE4-4E6F-85BE-37EFF9F68B2E.jpg'
p607
I11
tp608
g44
s(S'/home/clayton/grive/pics/3wEE5FC257-9937-1847-8A4C-31E98B5E3AC3.jpg'
p609
I32
tp610
g3
s(S'/home/clayton/grive/pics/1w98D0D5C2-5A24-77C4-893C-389C780B22BF.jpg'
p611
I29
tp612
g3
s(S'/home/clayton/grive/pics/3w10F317F3-9F1E-F59C-B335-38A8ADEE47AF.jpg'
p613
I66
tp614
g3
s(S'/home/clayton/grive/pics/0w98D0D5C2-5A24-77C4-893C-389C780B22BF.jpg'
p615
I53
tp616
g3
s(S'/home/clayton/grive/pics/5w5D592E12-AEF9-B530-374E-3322B125D1A1.jpg'
p617
I94
tp618
g3
s(S'/home/clayton/grive/pics/3wD2C8420A-CA69-4783-1899-278856A49F4B.jpg'
p619
I20
tp620
g3
s(S'/home/clayton/grive/pics/0w01343164-B10C-A805-EF2F-2D0A02E780D0.jpg'
p621
I72
tp622
g3
s(S'/home/clayton/grive/pics/0wFF66FA36-78E6-6508-EDF0-3686176BF53D.jpg'
p623
I15
tp624
g3
s(S'/home/clayton/grive/pics/5wCC78F689-E22B-23A4-2B55-3336F8A9B35C.jpg'
p625
I35
tp626
g3
s(S'/home/clayton/grive/pics/2w1F9D7616-B031-13BA-2CF1-332BB1E15DC2.jpg'
p627
I102
tp628
g3
s(S'/home/clayton/grive/pics/2wF6EF8C51-B792-9FCF-687D-3333BA797012.jpg'
p629
I26
tp630
g3
s(S'/home/clayton/grive/pics/4wB7455899-8A91-0D14-67FB-3326BB8944DD.jpg'
p631
I37
tp632
g3
s(S'/home/clayton/grive/pics/3w9A37A263-9801-0A1A-312E-3334DD7F32AC.jpg'
p633
I66
tp634
g3
s(S'/home/clayton/grive/pics/1wB6218480-F680-6013-04E0-38A57AE3C9A5.jpg'
p635
I65
tp636
g3
s(g192
I49
tp637
g3
s(S'/home/clayton/grive/pics/4w9DC9791F-43FF-A0F2-136E-27278922DE8B.jpg'
p638
I14
tp639
g3
s(S'/home/clayton/grive/pics/4wEFC295BD-AB8D-C93F-1AEF-332E960B6391.jpg'
p640
I27
tp641
g3
s(S'/home/clayton/grive/pics/6w7B52AA0B-3547-4AAC-D109-389D5596BF39.jpg'
p642
I20
tp643
g3
s(g200
I4
tp644
g44
s(g282
I11
tp645
g44
s(S'/home/clayton/grive/pics/5w2C6C7917-E34A-87BF-D366-2849EADFBD8B.jpg'
p646
I27
tp647
g3
s(S'/home/clayton/grive/pics/2wEFC295BD-AB8D-C93F-1AEF-332E960B6391.jpg'
p648
I29
tp649
g3
s(S'/home/clayton/grive/pics/1wD61ACB92-52ED-6679-0D80-38A0B91ACF94.jpg'
p650
I64
tp651
g3
s(S'/home/clayton/grive/pics/2Angry.jpg'
p652
I58
tp653
g3
s(S'/home/clayton/grive/pics/0Happy.jpg'
p654
I60
tp655
g3
s(S'/home/clayton/grive/pics/4Snapshot_20130218_2.JPG'
p656
I56
tp657
g3
s(S'/home/clayton/grive/pics/2wD2C8420A-CA69-4783-1899-278856A49F4B.jpg'
p658
I27
tp659
g3
s(S'/home/clayton/grive/pics/1wCC78F689-E22B-23A4-2B55-3336F8A9B35C.jpg'
p660
I44
tp661
g3
s(S'/home/clayton/grive/pics/0happy8.JPG'
p662
I15
tp663
g3
s(S'/home/clayton/grive/pics/4wB75D3F87-A36C-1CFC-5730-28E28C577A75.jpg'
p664
I68
tp665
g3
s(S'/home/clayton/grive/pics/4w6D8B00F1-237C-5070-C5C5-2725674902D4.jpg'
p666
I82
tp667
g3
s(S'/home/clayton/grive/pics/6wEED45041-BE05-1F78-5044-2EF641914EDD.jpg'
p668
I69
tp669
g3
s(S'/home/clayton/grive/pics/3w30492B57-425C-19D5-B21A-38A9A06B20F8.jpg'
p670
I35
tp671
g3
s(g127
I50
tp672
g3
s(S'/home/clayton/grive/pics/4wD9E9B0A8-7D98-A0F3-9A06-37ECA03E6425.jpg'
p673
I55
tp674
g3
s(S'/home/clayton/grive/pics/1wEFC295BD-AB8D-C93F-1AEF-332E960B6391.jpg'
p675
I25
tp676
g3
s(S'/home/clayton/grive/pics/0happy9.JPG'
p677
I14
tp678
g3
s(S'/home/clayton/grive/pics/4w98D0D5C2-5A24-77C4-893C-389C780B22BF.jpg'
p679
I26
tp680
g3
s(S'/home/clayton/grive/pics/1w42122DD0-1D98-3417-ED3C-3CD7325AEF4E.jpg'
p681
I44
tp682
g3
s(S'/home/clayton/grive/pics/3w45F00E26-EEF8-ADBC-B511-379A0FB86DFF.jpg'
p683
I19
tp684
g3
s(S'/home/clayton/grive/pics/4w422A3E39-00CD-54DC-F42A-332478449BD6.jpg'
p685
I70
tp686
g3
s(S'/home/clayton/grive/pics/3w70574034-301E-9568-EB56-389E0E002C5E.jpg'
p687
I50
tp688
g3
s(S'/home/clayton/grive/pics/0happy10.JPG'
p689
I88
tp690
g3
s(g461
I4
tp691
g44
s(g172
I4
tp692
g44
s(S'/home/clayton/grive/pics/1KuoSad.jpg'
p693
I92
tp694
g3
s(S'/home/clayton/grive/pics/2angry1.jpg'
p695
I62
tp696
g3
s(S'/home/clayton/grive/pics/0wB327C73A-CBE4-4E6F-85BE-37EFF9F68B2E.jpg'
p697
I24
tp698
g3
s(g127
I5
tp699
g44
s(S'/home/clayton/grive/pics/4w1DA4F3B0-46AF-07D5-6E56-2A8D17618C41.jpg'
p700
I54
tp701
g3
s(S'/home/clayton/grive/pics/1Sad.jpg (Case Conflict 1)'
p702
I60
tp703
g3
s(S'/home/clayton/grive/pics/0w9DC9791F-43FF-A0F2-136E-27278922DE8B.jpg'
p704
I26
tp705
g3
s(g174
I7
tp706
g3
s(S'/home/clayton/grive/pics/1w45F00E26-EEF8-ADBC-B511-379A0FB86DFF.jpg'
p707
I27
tp708
g3
s(g338
I11
tp709
g3
s(S'/home/clayton/grive/pics/0wEE5FC257-9937-1847-8A4C-31E98B5E3AC3.jpg'
p710
I68
tp711
g3
s(S'/home/clayton/grive/pics/2w3F13F903-5652-1111-F8C4-28193F107980.jpg'
p712
I5
tp713
g44
s(S'/home/clayton/grive/pics/0w7B52AA0B-3547-4AAC-D109-389D5596BF39.jpg'
p714
I34
tp715
g3
s(S'/home/clayton/grive/pics/5w5F3E20F0-CA15-AB7C-C873-3329D70151F2.jpg'
p716
I67
tp717
g3
s(S'/home/clayton/grive/pics/3wCC78F689-E22B-23A4-2B55-3336F8A9B35C.jpg'
p718
I31
tp719
g3
s(S'/home/clayton/grive/pics/3w9DC9791F-43FF-A0F2-136E-27278922DE8B.jpg'
p720
I16
tp721
g3
s(S'/home/clayton/grive/pics/4w3F606B5D-77FB-F545-EEF4-36CCC8791888.jpg'
p722
I24
tp723
g44
s(S'/home/clayton/grive/pics/6wF6EF8C51-B792-9FCF-687D-3333BA797012.jpg'
p724
I30
tp725
g44
s(S'/home/clayton/grive/pics/2wCC78F689-E22B-23A4-2B55-3336F8A9B35C.jpg'
p726
I55
tp727
g3
s(S'/home/clayton/grive/pics/4wEED45041-BE05-1F78-5044-2EF641914EDD.jpg'
p728
I78
tp729
g3
s(S'/home/clayton/grive/pics/1w9DC9791F-43FF-A0F2-136E-27278922DE8B.jpg'
p730
I19
tp731
g3
s(S'/home/clayton/grive/pics/0whitney bday jenny seminary grad 140.JPG'
p732
I7
tp733
g44
s(S'/home/clayton/grive/pics/5w9DC9791F-43FF-A0F2-136E-27278922DE8B.jpg'
p734
I25
tp735
g3
s(S'/home/clayton/grive/pics/5wD61ACB92-52ED-6679-0D80-38A0B91ACF94.jpg'
p736
I59
tp737
g3
s(S'/home/clayton/grive/pics/6wB6218480-F680-6013-04E0-38A57AE3C9A5.jpg'
p738
I67
tp739
g3
s(S'/home/clayton/grive/pics/5w547FEF42-FCBE-B966-D617-2888E39F4498.jpg'
p740
I56
tp741
g3
s(S'/home/clayton/grive/pics/0wC8A7AD15-B749-2EF7-395E-3567AFF409A3.jpg'
p742
I46
tp743
g3
s(S'/home/clayton/grive/pics/1w547FEF42-FCBE-B966-D617-2888E39F4498.jpg'
p744
I45
tp745
g3
s(S'/home/clayton/grive/pics/6wA186136D-64B7-7288-372F-3843E2F6EAC4.jpg'
p746
I58
tp747
g3
s(S'/home/clayton/grive/pics/3wB75D3F87-A36C-1CFC-5730-28E28C577A75.jpg'
p748
I45
tp749
g3
s(S'/home/clayton/grive/pics/1w10F317F3-9F1E-F59C-B335-38A8ADEE47AF.jpg'
p750
I55
tp751
g3
s(S'/home/clayton/grive/pics/1wEE5FC257-9937-1847-8A4C-31E98B5E3AC3.jpg'
p752
I5
tp753
g44
s(S'/home/clayton/grive/pics/5wB3B65A5B-6FD6-FB6B-DC2C-3797ABC3D83E.jpg'
p754
I60
tp755
g3
s(S'/home/clayton/grive/pics/6w5F3E20F0-CA15-AB7C-C873-3329D70151F2.jpg'
p756
I55
tp757
g3
s(S'/home/clayton/grive/pics/3w1DA4F3B0-46AF-07D5-6E56-2A8D17618C41.jpg'
p758
I42
tp759
g3
s(S'/home/clayton/grive/pics/3w75B0A7BB-3879-FF92-CC05-37B01FC821E8.jpg'
p760
I54
tp761
g3
s(S'/home/clayton/grive/pics/6w6D8B00F1-237C-5070-C5C5-2725674902D4.jpg'
p762
I75
tp763
g3
s(S'/home/clayton/grive/pics/3wB7455899-8A91-0D14-67FB-3326BB8944DD.jpg'
p764
I62
tp765
g3
s(S'/home/clayton/grive/pics/0w4ACD6E21-0751-DEA6-DB60-2F0500DBF231.jpg'
p766
I110
tp767
g3
s(S'/home/clayton/grive/pics/5w01343164-B10C-A805-EF2F-2D0A02E780D0.jpg'
p768
I87
tp769
g3
s(S'/home/clayton/grive/pics/5w6D8B00F1-237C-5070-C5C5-2725674902D4.jpg'
p770
I85
tp771
g3
s(S'/home/clayton/grive/pics/3w4123FC40-659C-BBF1-A29E-29652EC92828.jpg'
p772
I71
tp773
g3
s(S'/home/clayton/grive/pics/3w4ACD6E21-0751-DEA6-DB60-2F0500DBF231.jpg'
p774
I88
tp775
g3
s(S'/home/clayton/grive/pics/3w6A3CAB4F-95AC-25CB-4CD4-2D0EA445F376.jpg'
p776
I46
tp777
g3
s(S'/home/clayton/grive/pics/4w2C6C7917-E34A-87BF-D366-2849EADFBD8B.jpg'
p778
I26
tp779
g3
s(S'/home/clayton/grive/pics/6w75B0A7BB-3879-FF92-CC05-37B01FC821E8.jpg'
p780
I50
tp781
g3
s(S'/home/clayton/grive/pics/0w70574034-301E-9568-EB56-389E0E002C5E.jpg'
p782
I52
tp783
g3
s(g104
I9
tp784
g44
s(S'/home/clayton/grive/pics/0DSCN0305.JPG'
p785
I82
tp786
g3
s(g442
I57
tp787
g3
s(S'/home/clayton/grive/pics/0w57166D0D-8403-104C-6BEA-2F07DBC2E389.jpg'
p788
I23
tp789
g3
s(g47
I9
tp790
g44
s(g410
I71
tp791
g3
s(S'/home/clayton/grive/pics/2Angry.jpg (Case Conflict 1)'
p792
I54
tp793
g3
s(S'/home/clayton/grive/pics/3wEED45041-BE05-1F78-5044-2EF641914EDD.jpg'
p794
I53
tp795
g3
s(S'/home/clayton/grive/pics/2w9D75EFDC-3AE6-E0D7-C7F4-28316CCF01BA.jpg'
p796
I92
tp797
g3
s(S'/home/clayton/grive/pics/3KuoSurprised.jpg'
p798
I95
tp799
g3
s(g752
I22
tp800
g3
s(S'/home/clayton/grive/pics/0happy2.JPG'
p801
I72
tp802
g3
s(S'/home/clayton/grive/pics/2wD61ACB92-52ED-6679-0D80-38A0B91ACF94.jpg'
p803
I65
tp804
g3
s(g20
I9
tp805
g44
s(S'/home/clayton/grive/pics/1wB327C73A-CBE4-4E6F-85BE-37EFF9F68B2E.jpg'
p806
I38
tp807
g3
s(S'/home/clayton/grive/pics/4w3AC58273-1249-F4C2-3A1C-289D10094EB9.jpg'
p808
I110
tp809
g3
s(S'/home/clayton/grive/pics/0w4A42FC32-7901-26E1-A91B-33331AA34C92.jpg'
p810
I43
tp811
g3
s(S'/home/clayton/grive/pics/4w57166D0D-8403-104C-6BEA-2F07DBC2E389.jpg'
p812
I14
tp813
g3
s(S'/home/clayton/grive/pics/5wEA81AD9F-C919-7319-BDCE-333C59C6579E.jpg'
p814
I28
tp815
g3
s(S'/home/clayton/grive/pics/2wAE00083F-0B9D-4EED-63B7-2757C366CB50.jpg'
p816
I73
tp817
g3
s(g241
I23
tp818
g3
s(g218
I19
tp819
g44
s(S'/home/clayton/grive/pics/3w1F9D7616-B031-13BA-2CF1-332BB1E15DC2.jpg'
p820
I42
tp821
g3
s(S'/home/clayton/grive/pics/0wEA81AD9F-C919-7319-BDCE-333C59C6579E.jpg'
p822
I38
tp823
g3
s(g188
I4
tp824
g44
s(S'/home/clayton/grive/pics/1w5F3E20F0-CA15-AB7C-C873-3329D70151F2.jpg'
p825
I37
tp826
g3
s(S'/home/clayton/grive/pics/3w7E85E5B5-F196-987E-51DD-2EC43C62E76D.jpg'
p827
I42
tp828
g3
s(g42
I131
tp829
g3
s(S'/home/clayton/grive/pics/6w4123FC40-659C-BBF1-A29E-29652EC92828.jpg'
p830
I36
tp831
g3
s(S'/home/clayton/grive/pics/5w455E62E6-5EAF-9986-F10E-383E9405062F.jpg'
p832
I68
tp833
g3
s(S'/home/clayton/grive/pics/1w70574034-301E-9568-EB56-389E0E002C5E.jpg'
p834
I57
tp835
g3
s(g120
I97
tp836
g3
s(S'/home/clayton/grive/pics/3wBE3974B4-A678-56B4-9610-286BC7FB53FC.jpg'
p837
I38
tp838
g3
s(S'/home/clayton/grive/pics/2w62D19778-1AA6-13C2-004F-389AF747333D.jpg'
p839
I46
tp840
g3
s(g434
I5
tp841
g44
s(g426
I6
tp842
g44
s(S'/home/clayton/grive/pics/2w7B52AA0B-3547-4AAC-D109-389D5596BF39.jpg'
p843
I11
tp844
g3
s(g578
I8
tp845
g3
s(S'/home/clayton/grive/pics/6w1DA4F3B0-46AF-07D5-6E56-2A8D17618C41.jpg'
p846
I65
tp847
g3
s(S'/home/clayton/grive/pics/6w5D592E12-AEF9-B530-374E-3322B125D1A1.jpg'
p848
I83
tp849
g3
s(S'/home/clayton/grive/pics/6w70574034-301E-9568-EB56-389E0E002C5E.jpg'
p850
I51
tp851
g3
s(S'/home/clayton/grive/pics/2w422A3E39-00CD-54DC-F42A-332478449BD6.jpg'
p852
I89
tp853
g3
s(S'/home/clayton/grive/pics/3KuoGlassesSurprised.jpg'
p854
I75
tp855
g3
s(S'/home/clayton/grive/pics/6wB7455899-8A91-0D14-67FB-3326BB8944DD.jpg'
p856
I48
tp857
g3
s(S'/home/clayton/grive/pics/1w75B0A7BB-3879-FF92-CC05-37B01FC821E8.jpg'
p858
I38
tp859
g3
s(g245
I5
tp860
g44
s(S'/home/clayton/grive/pics/0happy6.JPG'
p861
I116
tp862
g3
s(g609
I17
tp863
g44
s(S'/home/clayton/grive/pics/6w98D0D5C2-5A24-77C4-893C-389C780B22BF.jpg'
p864
I39
tp865
g3
s(S'/home/clayton/grive/pics/5w1DA4F3B0-46AF-07D5-6E56-2A8D17618C41.jpg'
p866
I69
tp867
g3
s(S'/home/clayton/grive/pics/4w9D75EFDC-3AE6-E0D7-C7F4-28316CCF01BA.jpg'
p868
I69
tp869
g3
s(S'/home/clayton/grive/pics/3w2B02DD01-5BAB-ABA0-2EAF-3833D439A739.jpg'
p870
I128
tp871
g3
s(S'/home/clayton/grive/pics/3w422A3E39-00CD-54DC-F42A-332478449BD6.jpg'
p872
I71
tp873
g3
s(S'/home/clayton/grive/pics/2w10F317F3-9F1E-F59C-B335-38A8ADEE47AF.jpg'
p874
I50
tp875
g3
s(g681
I10
tp876
g44
s(S'/home/clayton/grive/pics/1DSCN0306.JPG'
p877
I85
tp878
g3
s(S'/home/clayton/grive/pics/4w5F3E20F0-CA15-AB7C-C873-3329D70151F2.jpg'
p879
I58
tp880
g3
s(S'/home/clayton/grive/pics/6w42122DD0-1D98-3417-ED3C-3CD7325AEF4E.jpg'
p881
I40
tp882
g3
s(S'/home/clayton/grive/pics/4wD61ACB92-52ED-6679-0D80-38A0B91ACF94.jpg'
p883
I68
tp884
g3
s(S'/home/clayton/grive/pics/5w7B52AA0B-3547-4AAC-D109-389D5596BF39.jpg'
p885
I21
tp886
g3
s(g518
I35
tp887
g3
s(g591
I4
tp888
g44
s(S'/home/clayton/grive/pics/1w656B02A8-518C-90F3-7234-38211A0CD399.jpg'
p889
I40
tp890
g3
s(S'/home/clayton/grive/pics/3w038FF51B-B514-1E4A-1F79-37ACE961D312.jpg'
p891
I50
tp892
g3
s(S'/home/clayton/grive/pics/5wF38C5939-5878-3826-255B-37EF8300E8D1.jpg'
p893
I49
tp894
g3
s(S'/home/clayton/grive/pics/1w6D8B00F1-237C-5070-C5C5-2725674902D4.jpg'
p895
I72
tp896
g3
s(g607
I51
tp897
g3
s(S'/home/clayton/grive/pics/0wB7455899-8A91-0D14-67FB-3326BB8944DD.jpg'
p898
I84
tp899
g3
s(g830
I76
tp900
g3
s(S'/home/clayton/grive/pics/6w656B02A8-518C-90F3-7234-38211A0CD399.jpg'
p901
I55
tp902
g3
s(S'/home/clayton/grive/pics/3wEBD68548-E683-453C-76FA-387540224631.jpg'
p903
I47
tp904
g3
s(S'/home/clayton/grive/pics/2w7E85E5B5-F196-987E-51DD-2EC43C62E76D.jpg'
p905
I63
tp906
g3
s(S'/home/clayton/grive/pics/3wE91A57C8-8766-64BA-4E1F-33C5F731BCE4.jpg'
p907
I34
tp908
g3
s(S'/home/clayton/grive/pics/5wD2C8420A-CA69-4783-1899-278856A49F4B.jpg'
p909
I39
tp910
g3
s(S'/home/clayton/grive/pics/0w3F606B5D-77FB-F545-EEF4-36CCC8791888.jpg'
p911
I16
tp912
g44
s(g6
I10
tp913
g3
s(S'/home/clayton/grive/pics/0wD445B589-5883-3783-A84A-29622D8DBC8C.jpg'
p914
I85
tp915
g3
s(S'/home/clayton/grive/pics/1w5D592E12-AEF9-B530-374E-3322B125D1A1.jpg'
p916
I95
tp917
g3
s(S'/home/clayton/grive/pics/5wB75D3F87-A36C-1CFC-5730-28E28C577A75.jpg'
p918
I79
tp919
g3
s(S'/home/clayton/grive/pics/4wC89E1EA6-6B03-0107-19C6-312038C89CA1.jpg'
p920
I55
tp921
g3
s(g158
I4
tp922
g44
s(S'/home/clayton/grive/pics/3wAE00083F-0B9D-4EED-63B7-2757C366CB50.jpg'
p923
I65
tp924
g3
s(g304
I5
tp925
g44
s(g732
I122
tp926
g3
s(S'/home/clayton/grive/pics/5w9D75EFDC-3AE6-E0D7-C7F4-28316CCF01BA.jpg'
p927
I82
tp928
g3
s(g228
I14
tp929
g44
s(S'/home/clayton/grive/pics/1w038FF51B-B514-1E4A-1F79-37ACE961D312.jpg'
p930
I51
tp931
g3
s(S'/home/clayton/grive/pics/6wD5BE1562-F05B-1AA8-6290-37EE9C424B0E.jpg'
p932
I44
tp933
g3
s(S'/home/clayton/grive/pics/1wD445B589-5883-3783-A84A-29622D8DBC8C.jpg'
p934
I69
tp935
g3
s(g742
I9
tp936
g44
s(S'/home/clayton/grive/pics/2wB6218480-F680-6013-04E0-38A57AE3C9A5.jpg'
p937
I82
tp938
g3
s(S'/home/clayton/grive/pics/4w4A42FC32-7901-26E1-A91B-33331AA34C92.jpg'
p939
I65
tp940
g3
s(S'/home/clayton/grive/pics/0wB3B65A5B-6FD6-FB6B-DC2C-3797ABC3D83E.jpg'
p941
I45
tp942
g3
s(S'/home/clayton/grive/pics/3Surprised.jpg'
p943
I44
tp944
g3
s(g341
I5
tp945
g44
s(S'/home/clayton/grive/pics/6w9FB993B7-8646-7117-CD23-27C2F4C7EC67.jpg'
p946
I100
tp947
g3
s(S'/home/clayton/grive/pics/4wB3B65A5B-6FD6-FB6B-DC2C-3797ABC3D83E.jpg'
p948
I41
tp949
g3
s(S'/home/clayton/grive/pics/1wEED45041-BE05-1F78-5044-2EF641914EDD.jpg'
p950
I90
tp951
g3
s(S'/home/clayton/grive/pics/6wD61ACB92-52ED-6679-0D80-38A0B91ACF94.jpg'
p952
I61
tp953
g3
s(g96
I17
tp954
g44
s(S'/home/clayton/grive/pics/4w7B52AA0B-3547-4AAC-D109-389D5596BF39.jpg'
p955
I6
tp956
g44
s(S'/home/clayton/grive/pics/2wEED45041-BE05-1F78-5044-2EF641914EDD.jpg'
p957
I91
tp958
g3
s(S'/home/clayton/grive/pics/3w6D8B00F1-237C-5070-C5C5-2725674902D4.jpg'
p959
I78
tp960
g3
s(S'/home/clayton/grive/pics/0happy4.JPG'
p961
I108
tp962
g3
s(S'/home/clayton/grive/pics/6w62D19778-1AA6-13C2-004F-389AF747333D.jpg'
p963
I31
tp964
g3
s(S'/home/clayton/grive/pics/4w3F13F903-5652-1111-F8C4-28193F107980.jpg'
p965
I4
tp966
g3
s(S'/home/clayton/grive/pics/4scared_david_bates.jpg'
p967
I4
tp968
g3
s(S'/home/clayton/grive/pics/4w6A3CAB4F-95AC-25CB-4CD4-2D0EA445F376.jpg'
p969
I31
tp970
g3
s(S'/home/clayton/grive/pics/1w2B02DD01-5BAB-ABA0-2EAF-3833D439A739.jpg'
p971
I117
tp972
g3
s(g270
I35
tp973
g3
s(g710
I9
tp974
g44
s(S'/home/clayton/grive/pics/5wD9E9B0A8-7D98-A0F3-9A06-37ECA03E6425.jpg'
p975
I61
tp976
g3
s(S'/home/clayton/grive/pics/3w9D75EFDC-3AE6-E0D7-C7F4-28316CCF01BA.jpg'
p977
I74
tp978
g3
s(g368
I7
tp979
g44
s(S'/home/clayton/grive/pics/1w1F9D7616-B031-13BA-2CF1-332BB1E15DC2.jpg'
p980
I108
tp981
g3
s(S'/home/clayton/grive/pics/1Sad.jpg (Case Conflict 2)'
p982
I56
tp983
g3
s(S'/home/clayton/grive/pics/5w10F317F3-9F1E-F59C-B335-38A8ADEE47AF.jpg'
p984
I51
tp985
g3
s(S'/home/clayton/grive/pics/0Happy.jpg (Case Conflict 1)'
p986
I56
tp987
g3
s(g572
I7
tp988
g44
s(S'/home/clayton/grive/pics/5w98D0D5C2-5A24-77C4-893C-389C780B22BF.jpg'
p989
I30
tp990
g3
s(S'/home/clayton/grive/pics/1w4ACD6E21-0751-DEA6-DB60-2F0500DBF231.jpg'
p991
I75
tp992
g3
s(S'/home/clayton/grive/pics/0w9FB993B7-8646-7117-CD23-27C2F4C7EC67.jpg'
p993
I103
tp994
g3
s(g434
I45
tp995
g3
s(S'/home/clayton/grive/pics/1w4123FC40-659C-BBF1-A29E-29652EC92828.jpg'
p996
I60
tp997
g3
s(g877
I5
tp998
g3
s(S'/home/clayton/grive/pics/1w3F606B5D-77FB-F545-EEF4-36CCC8791888.jpg'
p999
I19
tp1000
g44
s(S'/home/clayton/grive/pics/0w45F00E26-EEF8-ADBC-B511-379A0FB86DFF.jpg'
p1001
I30
tp1002
g3
s(S'/home/clayton/grive/pics/0w75B0A7BB-3879-FF92-CC05-37B01FC821E8.jpg'
p1003
I62
tp1004
g3
s(S'/home/clayton/grive/pics/1wB75D3F87-A36C-1CFC-5730-28E28C577A75.jpg'
p1005
I23
tp1006
g3
s(S'/home/clayton/grive/pics/2wA186136D-64B7-7288-372F-3843E2F6EAC4.jpg'
p1007
I60
tp1008
g3
s(g414
I5
tp1009
g44
s(S'/home/clayton/grive/pics/4wE91A57C8-8766-64BA-4E1F-33C5F731BCE4.jpg'
p1010
I39
tp1011
g3
s(S'/home/clayton/grive/pics/0wC89E1EA6-6B03-0107-19C6-312038C89CA1.jpg'
p1012
I65
tp1013
g3
s(S'/home/clayton/grive/pics/5wBE3974B4-A678-56B4-9610-286BC7FB53FC.jpg'
p1014
I82
tp1015
g3
s(g218
I6
tp1016
g3
s(S'/home/clayton/grive/pics/6w9DC9791F-43FF-A0F2-136E-27278922DE8B.jpg'
p1017
I17
tp1018
g3
s(S'/home/clayton/grive/pics/1w9FB993B7-8646-7117-CD23-27C2F4C7EC67.jpg'
p1019
I116
tp1020
g3
s(S'/home/clayton/grive/pics/1w01343164-B10C-A805-EF2F-2D0A02E780D0.jpg'
p1021
I81
tp1022
g3
s(S'/home/clayton/grive/pics/4w455E62E6-5EAF-9986-F10E-383E9405062F.jpg'
p1023
I59
tp1024
g3
s(S'/home/clayton/grive/pics/2wC89E1EA6-6B03-0107-19C6-312038C89CA1.jpg'
p1025
I67
tp1026
g3
s(S'/home/clayton/grive/pics/2wEA81AD9F-C919-7319-BDCE-333C59C6579E.jpg'
p1027
I47
tp1028
g3
s(S'/home/clayton/grive/pics/6w9A37A263-9801-0A1A-312E-3334DD7F32AC.jpg'
p1029
I49
tp1030
g3
s(S'/home/clayton/grive/pics/6wCC78F689-E22B-23A4-2B55-3336F8A9B35C.jpg'
p1031
I31
tp1032
g3
s(S'/home/clayton/grive/pics/5wFF66FA36-78E6-6508-EDF0-3686176BF53D.jpg'
p1033
I17
tp1034
g3
s(g270
I7
tp1035
g44
s(g386
I5
tp1036
g44
s(S'/home/clayton/grive/pics/4wCC78F689-E22B-23A4-2B55-3336F8A9B35C.jpg'
p1037
I39
tp1038
g3
s(S'/home/clayton/grive/pics/1wB7455899-8A91-0D14-67FB-3326BB8944DD.jpg'
p1039
I73
tp1040
g3
s(g595
I6
tp1041
g44
s(S'/home/clayton/grive/pics/5wE91A57C8-8766-64BA-4E1F-33C5F731BCE4.jpg'
p1042
I26
tp1043
g3
s(S'/home/clayton/grive/pics/0w62D19778-1AA6-13C2-004F-389AF747333D.jpg'
p1044
I20
tp1045
g3
s(S'/home/clayton/grive/pics/5w656B02A8-518C-90F3-7234-38211A0CD399.jpg'
p1046
I21
tp1047
g3
s(S'/home/clayton/grive/pics/3w455E62E6-5EAF-9986-F10E-383E9405062F.jpg'
p1048
I53
tp1049
g3
s(S'/home/clayton/grive/pics/6KuoGlassesNeutral.jpg'
p1050
I77
tp1051
g3
s(S'/home/clayton/grive/pics/1w1DA4F3B0-46AF-07D5-6E56-2A8D17618C41.jpg'
p1052
I51
tp1053
g3
s(S'/home/clayton/grive/pics/5wEE5FC257-9937-1847-8A4C-31E98B5E3AC3.jpg'
p1054
I21
tp1055
g3
s(S'/home/clayton/grive/pics/4w62D19778-1AA6-13C2-004F-389AF747333D.jpg'
p1056
I34
tp1057
g3
s(S'/home/clayton/grive/pics/6wEA81AD9F-C919-7319-BDCE-333C59C6579E.jpg'
p1058
I31
tp1059
g3
s(S'/home/clayton/grive/pics/6wFF66FA36-78E6-6508-EDF0-3686176BF53D.jpg'
p1060
I17
tp1061
g3
s(S'/home/clayton/grive/pics/2wBE3974B4-A678-56B4-9610-286BC7FB53FC.jpg'
p1062
I89
tp1063
g3
s(S'/home/clayton/grive/pics/4KuoScared.jpg'
p1064
I107
tp1065
g3
s(S'/home/clayton/grive/pics/0w2B02DD01-5BAB-ABA0-2EAF-3833D439A739.jpg'
p1066
I138
tp1067
g3
s(S'/home/clayton/grive/pics/2wBE6C87EF-3D62-189A-34DB-33F0A359A14F.jpg'
p1068
I9
tp1069
g3
s(g772
I31
tp1070
g3
s(S'/home/clayton/grive/pics/3wBE6C87EF-3D62-189A-34DB-33F0A359A14F.jpg'
p1071
I17
tp1072
g3
s.